
C:\Users\Kalidas Tate\Documents\LPCXpresso_8.2.2_650\workspaceTEST\FreeRTOS-Plus-Demo-1\Debug\FreeRTOS-Plus-Demo-1.axf:     file format elf32-littlearm
C:\Users\Kalidas Tate\Documents\LPCXpresso_8.2.2_650\workspaceTEST\FreeRTOS-Plus-Demo-1\Debug\FreeRTOS-Plus-Demo-1.axf
architecture: arm, flags 0x00000112:
EXEC_P, HAS_SYMS, D_PAGED
start address 0x0000b531

Program Header:
    LOAD off    0x00010000 vaddr 0x00000000 paddr 0x00000000 align 2**16
         filesz 0x0000e908 memsz 0x0000e908 flags r-x
    LOAD off    0x00024c18 vaddr 0x10004c18 paddr 0x0000e908 align 2**16
         filesz 0x00000188 memsz 0x00000188 flags rw-
    LOAD off    0x00030000 vaddr 0x10000000 paddr 0x10000000 align 2**16
         filesz 0x00000190 memsz 0x00004c18 flags rw-
private flags = 5000200: [Version5 EABI] [soft-float ABI]

Sections:
Idx Name          Size      VMA       LMA       File off  Algn
  0 privileged_functions 00003b98  00000000  00000000  00010000  2**2
                  CONTENTS, ALLOC, LOAD, READONLY, CODE
  1 .text         0000ac0f  00003b98  00003b98  00013b98  2**2
                  CONTENTS, ALLOC, LOAD, READONLY, CODE
  2 .after_vectors 00000160  0000e7a8  0000e7a8  0001e7a8  2**2
                  CONTENTS, ALLOC, LOAD, READONLY, CODE
  3 privileged_data 00000190  10000000  10000000  00030000  2**2
                  CONTENTS, ALLOC, LOAD, DATA
  4 .bss          00004a18  10000200  10000200  00030190  2**9
                  ALLOC
  5 .data         00000188  10004c18  0000e908  00024c18  2**2
                  CONTENTS, ALLOC, LOAD, DATA
  6 .debug_info   00012c83  00000000  00000000  00030190  2**0
                  CONTENTS, READONLY, DEBUGGING
  7 .debug_abbrev 00003d44  00000000  00000000  00042e13  2**0
                  CONTENTS, READONLY, DEBUGGING
  8 .debug_aranges 00001298  00000000  00000000  00046b57  2**0
                  CONTENTS, READONLY, DEBUGGING
  9 .debug_ranges 00001130  00000000  00000000  00047def  2**0
                  CONTENTS, READONLY, DEBUGGING
 10 .debug_macro  0000ab75  00000000  00000000  00048f1f  2**0
                  CONTENTS, READONLY, DEBUGGING
 11 .debug_line   000124e7  00000000  00000000  00053a94  2**0
                  CONTENTS, READONLY, DEBUGGING
 12 .debug_str    00022e5b  00000000  00000000  00065f7b  2**0
                  CONTENTS, READONLY, DEBUGGING
 13 .comment      000000dc  00000000  00000000  00088dd6  2**0
                  CONTENTS, READONLY
 14 .ARM.attributes 00000031  00000000  00000000  00088eb2  2**0
                  CONTENTS, READONLY
 15 .debug_frame  000047ec  00000000  00000000  00088ee4  2**2
                  CONTENTS, READONLY, DEBUGGING
SYMBOL TABLE:
00000000 l    d  privileged_functions	00000000 privileged_functions
00003b98 l    d  .text	00000000 .text
0000e7a8 l    d  .after_vectors	00000000 .after_vectors
10000000 l    d  privileged_data	00000000 privileged_data
10000200 l    d  .bss	00000000 .bss
10004c18 l    d  .data	00000000 .data
00000000 l    d  .debug_info	00000000 .debug_info
00000000 l    d  .debug_abbrev	00000000 .debug_abbrev
00000000 l    d  .debug_aranges	00000000 .debug_aranges
00000000 l    d  .debug_ranges	00000000 .debug_ranges
00000000 l    d  .debug_macro	00000000 .debug_macro
00000000 l    d  .debug_line	00000000 .debug_line
00000000 l    d  .debug_str	00000000 .debug_str
00000000 l    d  .comment	00000000 .comment
00000000 l    d  .ARM.attributes	00000000 .ARM.attributes
00000000 l    d  .debug_frame	00000000 .debug_frame
00000000 l    df *ABS*	00000000 cr_startup_lpc175x_6x.c
0000b560 l     F .text	00000000 zero_loop
0000e8d4 l       .after_vectors	00000000 handler4_address_const
0000e86c l       .after_vectors	00000000 handler1_address_const
0000e88c l       .after_vectors	00000000 handler2_address_const
0000e8b0 l       .after_vectors	00000000 handler3_address_const
00000000 l    df *ABS*	00000000 heap_2.c
00007d68 l     F .text	00000050 prvHeapInit
10004018 l     O .bss	00000004 xHeapHasBeenInitialised.7734
10004008 l     O .bss	00000008 xStart
10004010 l     O .bss	00000008 xEnd
10004c54 l     O .data	00000004 xFreeBytesRemaining
10000408 l     O .bss	00003c00 ucHeap
00000000 l    df *ABS*	00000000 port.c
000004ec l     F privileged_functions	000000e0 prvSetupMPU
000004c8 l     F privileged_functions	00000024 prvSetupTimerInterrupt
10004c58 l     O .data	00000004 uxCriticalNesting
000005cc l     F privileged_functions	0000003e prvGetMPURegionSizeSetting
0000065c l       privileged_functions	00000000 pxCurrentTCBConst
000006e0 l     F privileged_functions	00000068 prvSVCHandler
000006a0 l     F privileged_functions	0000003e prvRestoreContextOfFirstTask
000006d8 l       privileged_functions	00000000 pxCurrentTCBConst2
00007e4c l     F .text	00000016 prvRaisePrivilege
00000000 l    df *ABS*	00000000 queue.c
0000144c l     F privileged_functions	000000d6 prvCopyDataToQueue
0000141c l     F privileged_functions	00000030 prvIsQueueFull
00001358 l     F privileged_functions	00000098 prvUnlockQueue
00001524 l     F privileged_functions	0000004c prvCopyDataFromQueue
000013f0 l     F privileged_functions	0000002c prvIsQueueEmpty
00000000 l    df *ABS*	00000000 tasks.c
00008360 l     F .text	00000048 prvResetNextTaskUnblockTime
100000fc l     O privileged_data	00000014 xTasksWaitingTermination
10000110 l     O privileged_data	00000004 uxTasksDeleted
10000144 l     O privileged_data	00000004 uxTaskNumber
10000134 l     O privileged_data	00000004 xSchedulerRunning
1000014c l     O privileged_data	00000004 uxSchedulerSuspended
000032c0 l     F privileged_functions	0000006c prvAddCurrentTaskToDelayedList
1000012c l     O privileged_data	00000004 xTickCount
10000054 l     O privileged_data	00000064 pxReadyTasksLists
10000130 l     O privileged_data	00000004 uxTopReadyPriority
10000114 l     O privileged_data	00000014 xSuspendedTaskList
10000128 l     O privileged_data	00000004 uxCurrentNumberOfTasks
00003138 l     F privileged_functions	00000068 prvTaskIsTaskSuspended
100000e8 l     O privileged_data	00000014 xPendingReadyList
00008350 l     F .text	0000000e prvIdleTask
10000148 l     O privileged_data	00000004 xNextTaskUnblockTime
1000013c l     O privileged_data	00000004 xYieldPending
10000138 l     O privileged_data	00000004 uxPendedTicks
000034b0 l     F privileged_functions	00000036 prvTaskCheckFreeStackSpace
00003398 l     F privileged_functions	00000118 prvListTaskWithinSingleList
100000e0 l     O privileged_data	00000004 pxDelayedTaskList
100000e4 l     O privileged_data	00000004 pxOverflowDelayedTaskList
000083a8 l     F .text	0000004a prvWriteNameToBuffer
10000140 l     O privileged_data	00000004 xNumOfOverflows
10000154 l     O privileged_data	00000004 ulTotalRunTime
10000150 l     O privileged_data	00000004 ulTaskSwitchedInTime
0000332c l     F privileged_functions	0000006c prvAllocateTCBAndStack
00003078 l     F privileged_functions	000000be prvInitialiseTCBVariables
000031a0 l     F privileged_functions	00000080 prvInitialiseTaskLists
100000b8 l     O privileged_data	00000014 xDelayedTaskList1
100000cc l     O privileged_data	00000014 xDelayedTaskList2
00003220 l     F privileged_functions	00000028 prvDeleteTCB
00003248 l     F privileged_functions	00000078 prvCheckTasksWaitingTermination
00000000 l    df *ABS*	00000000 timers.c
0000371c l     F privileged_functions	00000080 prvCheckForValidListAndQueue
10000188 l     O privileged_data	00000004 xTimerQueue
0000379c l     F privileged_functions	00000024 prvTimerTask
10000158 l     O privileged_data	00000014 xActiveTimerList1
1000016c l     O privileged_data	00000014 xActiveTimerList2
10000180 l     O privileged_data	00000004 pxCurrentTimerList
10000184 l     O privileged_data	00000004 pxOverflowTimerList
00003abc l     F privileged_functions	00000048 prvGetNextExpireTime
00003b04 l     F privileged_functions	00000094 prvProcessTimerOrBlockTask
000037c0 l     F privileged_functions	0000010c prvProcessReceivedCommands
00003a7c l     F privileged_functions	00000040 prvSampleTimeNow
000038cc l     F privileged_functions	00000084 prvInsertTimerInActiveList
00003950 l     F privileged_functions	00000074 prvProcessExpiredTimer
000039c4 l     F privileged_functions	000000b8 prvSwitchTimerLists
1000018c l     O privileged_data	00000004 xLastTime.7981
00000000 l    df *ABS*	00000000 Infotainment-UART-Console.c
10000200 l     O .bss	00000200 xRegTestStack8
10004c18 l     O .data	0000003c xRegInfotainmentTaskParameters
00007be4 l     F .text	00000184 prvInfotainmentTask
00000000 l    df *ABS*	00000000 list.c
00000000 l    df *ABS*	00000000 IOUtils_TaskNotificationBasedRx.c
00000000 l    df *ABS*	00000000 FreeRTOS_lpc17xx_DriverInterface.c
00000000 l    df *ABS*	00000000 FreeRTOS_lpc17xx_i2c.c
000086a4 l     F .text	0000003a Chip_IOCON_DisableOD
1000401c l     O .bss	0000000c pxTxTransferControlStructs
10004028 l     O .bss	00000003 ucSlaveAddresses
1000402c l     O .bss	00000003 xDataDirection
00000000 l    df *ABS*	00000000 FreeRTOS_lpc17xx_ssp.c
00008ae0 l     F .text	00000030 NVIC_EnableIRQ
00008b10 l     F .text	00000034 NVIC_DisableIRQ
00008b44 l     F .text	00000054 NVIC_SetPriority
00008b98 l     F .text	0000003a Chip_IOCON_DisableOD
00008bd4 l     F .text	0000001e Chip_SSP_Enable
00008bf4 l     F .text	0000001e Chip_SSP_Disable
00008c14 l     F .text	0000001e Chip_SSP_Int_Enable
00008c34 l     F .text	0000001e Chip_SSP_Int_Disable
00008c54 l     F .text	00000030 Chip_SSP_SetFormat
00008c84 l     F .text	00000024 Chip_SSP_Set_Mode
10004030 l     O .bss	00000008 pxTxTransferControlStructs
10004038 l     O .bss	00000008 pxRxTransferControlStructs
10004040 l     O .bss	00000008 ulReceiveActive
0000e650 l     O .text	00000002 xIRQ
00000000 l    df *ABS*	00000000 FreeRTOS_lpc17xx_uart.c
0000921c l     F .text	00000030 NVIC_EnableIRQ
0000924c l     F .text	00000034 NVIC_DisableIRQ
00009280 l     F .text	00000054 NVIC_SetPriority
000092d4 l     F .text	0000003a Chip_IOCON_DisableOD
00009310 l     F .text	00000020 Chip_UART_IntEnable
00009330 l     F .text	00000022 Chip_UART_IntDisable
00009354 l     F .text	00000016 Chip_UART_ReadIntIDReg
0000936c l     F .text	0000001a Chip_UART_SetupFIFOS
00009388 l     F .text	0000001a Chip_UART_ConfigData
10004048 l     O .bss	00000010 pxTxTransferControlStructs
10004058 l     O .bss	00000010 pxRxTransferControlStructs
0000e654 l     O .text	00000004 xIRQ
000098dc l     F .text	00000054 prvFillFifoFromBuffer
00000000 l    df *ABS*	00000000 FreeRTOS_DriverInterface.c
0000e680 l     O .text	0000003c xAvailablePeripherals
00000000 l    df *ABS*	00000000 FreeRTOS_IOUtils.c
00000000 l    df *ABS*	00000000 IOUtils_CharQueueTxAndRx.c
00000000 l    df *ABS*	00000000 IOUtils_CircularBufferRx.c
00000000 l    df *ABS*	00000000 IOUtils_ZeroCopyTx.c
00000000 l    df *ABS*	00000000 EEPROM_Write_Faullt.c
0000a958 l     F .text	00000030 NVIC_EnableIRQ
0000a988 l     F .text	00000034 NVIC_DisableIRQ
0000a9bc l     F .text	00000028 NVIC_SystemReset
0000a9e4 l     F .text	00000068 Chip_GPIO_SetPinState
0000aa4c l     F .text	00000038 Chip_GPIO_SetPinDIROutput
0000aa84 l     F .text	0000003a Chip_GPIO_SetPinDIRInput
0000aac0 l     F .text	00000042 Chip_GPIO_SetPinDIR
0000ab04 l     F .text	00000034 Chip_GPIO_SetDir
10004068 l     O .bss	00000004 mode_poll
1000406c l     O .bss	00000001 i2cDev
0000ab38 l     F .text	00000032 i2c_state_handling
0000ab6c l     F .text	00000084 i2c_set_mode
0000abf0 l     F .text	0000003a i2c_app_init
10004070 l     O .bss	00000018 xfer.7590
0000e7c4 l       .after_vectors	00000000 handler2_address_const
00000000 l    df *ABS*	00000000 Control_Task.c
10004200 l     O .bss	00000200 xRegTestStack
10004c5c l     O .data	0000003c xRegControlTaskParameters
0000afe0 l     F .text	000000d0 prvMyControlTask
00000000 l    df *ABS*	00000000 Brake.c
0000b0b0 l     F .text	00000038 Chip_GPIO_GetPinState
0000b0e8 l     F .text	00000026 Chip_GPIO_ReadPortBit
0000b110 l     F .text	00000038 Chip_GPIO_SetPinDIROutput
0000b148 l     F .text	0000003a Chip_GPIO_SetPinDIRInput
0000b184 l     F .text	00000042 Chip_GPIO_SetPinDIR
10004400 l     O .bss	00000200 xRegTestStack
10004c98 l     O .data	0000003c xRegBreakTaskParameters
0000b210 l     F .text	0000005c prvMyBrakeTask
00000000 l    df *ABS*	00000000 Accelerate.c
0000b26c l     F .text	00000038 Chip_GPIO_GetPinState
0000b2a4 l     F .text	00000026 Chip_GPIO_ReadPortBit
0000b2cc l     F .text	00000038 Chip_GPIO_SetPinDIROutput
0000b304 l     F .text	0000003a Chip_GPIO_SetPinDIRInput
0000b340 l     F .text	00000042 Chip_GPIO_SetPinDIR
10004600 l     O .bss	00000200 xRegTestStack
10004cd4 l     O .data	0000003c xRegAccelerationTaskParameters
0000b3cc l     F .text	0000005c prvMyAccelerationTask
00000000 l    df *ABS*	00000000 Display.c
10004800 l     O .bss	00000200 xRegTestStack
10004d10 l     O .data	0000003c xRegDisplayTaskParameters
0000b478 l     F .text	000000b8 prvMyDisplayTask
00000000 l    df *ABS*	00000000 main.c
0000b588 l     F .text	00000048 NVIC_SetPriorityGrouping
0000b5d0 l     F .text	00000054 NVIC_SetPriority
10004a04 l     O .bss	00000004 ulClocksPer10thOfAMilliSecond
00000000 l    df *ABS*	00000000 printf-stdarg.c
0000b750 l     F .text	0000002e printchar
0000b780 l     F .text	000000b0 prints
0000b830 l     F .text	000000d8 printi
0000b908 l     F .text	000001c4 print
00000000 l    df *ABS*	00000000 sysinit.c
00000000 l    df *ABS*	00000000 board.c
0000bb1c l     F .text	00000016 Chip_IOCON_Init
0000bb34 l     F .text	00000038 Chip_IOCON_EnableOD
0000bb6c l     F .text	0000001c Chip_IOCON_SetI2CPad
0000bb88 l     F .text	00000016 Chip_GPIO_Init
0000bba0 l     F .text	00000068 Chip_GPIO_SetPinState
0000bc08 l     F .text	0000002c Chip_GPIO_WritePortBit
0000bc34 l     F .text	00000038 Chip_GPIO_SetPinDIROutput
0000bc6c l     F .text	0000003a Chip_GPIO_SetPinDIRInput
0000bca8 l     F .text	00000042 Chip_GPIO_SetPinDIR
0000bcec l     F .text	0000002e Chip_GPIO_WriteDirBit
0000bd1c l     F .text	0000001c Chip_UART_SendByte
0000bd38 l     F .text	00000016 Chip_UART_ReadLineStatus
0000bd88 l     F .text	00000018 Board_LED_Init
0000e724 l     O .text	00000004 pinLCDCTRL
0000e728 l     O .text	00000004 pinLCDDATA
0000bdd4 l     F .text	000000cc Board_LCD_Send_Nibble
0000bfcc l     F .text	00000044 Board_lcd_Send_Cmd_Signals
0000bf88 l     F .text	00000044 Board_lcd_Send_Data_Signals
00000000 l    df *ABS*	00000000 board_sysinit.c
0000c18c l     F .text	00000030 Chip_SYSCTL_SetFLASHAccess
0000e72c l     O .text	0000005c pinmuxing
00000000 l    df *ABS*	00000000 chip_17xx_40xx.c
00000000 l    df *ABS*	00000000 clock_17xx_40xx.c
0000c214 l     F .text	00000024 Chip_Clock_IsMainPLLEnabled
0000c238 l     F .text	00000024 Chip_Clock_IsMainPLLConnected
0000c25c l     F .text	00000034 Chip_Clock_FeedPLL
0000c290 l     F .text	00000020 Chip_Clock_GetMainPLLSource
0000c2b0 l     F .text	00000014 Chip_Clock_GetMainOscRate
0000c2c4 l     F .text	00000014 Chip_Clock_GetIntOscRate
0000c2d8 l     F .text	00000014 Chip_Clock_GetRTCOscRate
0000c2ec l     F .text	0000000e Chip_Clock_GetMainPLLInClockRate
00000000 l    df *ABS*	00000000 i2c_17xx_40xx.c
0000e788 l     O .text	00000003 I2C_PeriphClk
10004d4c l     O .data	00000054 i2c
10004a08 l     O .bss	00000078 i2c_slave
0000c628 l     F .text	00000030 enableClk
0000c658 l     F .text	00000024 getClkRate
0000c67c l     F .text	0000001e startMasterXfer
0000c69c l     F .text	0000001e startSlaverXfer
0000c6bc l     F .text	00000024 isI2CBusFree
0000c6e0 l     F .text	0000001a getCurState
0000c6fc l     F .text	00000022 isMasterState
0000c720 l     F .text	0000003e isSlaveAddrMatching
0000c760 l     F .text	0000009c lookupSlaveIndex
00000000 l    df *ABS*	00000000 iocon_17xx_40xx.c
00000000 l    df *ABS*	00000000 ssp_17xx_40xx.c
0000d2c0 l     F .text	0000001e Chip_SSP_Disable
0000d2e0 l     F .text	00000028 Chip_SSP_GetStatus
0000d308 l     F .text	00000028 Chip_SSP_GetRawIntStatus
0000d330 l     F .text	0000001e Chip_SSP_GetDataSize
0000d350 l     F .text	0000001c Chip_SSP_ClearIntPending
0000d36c l     F .text	00000018 Chip_SSP_ReceiveFrame
0000d384 l     F .text	0000001c Chip_SSP_SendFrame
0000d3a0 l     F .text	00000030 Chip_SSP_SetFormat
0000d3d0 l     F .text	00000024 Chip_SSP_Set_Mode
0000d3f4 l     F .text	00000046 SSP_Write2BFifo
0000d43c l     F .text	00000046 SSP_Write1BFifo
0000d484 l     F .text	0000005c SSP_Read2BFifo
0000d4e0 l     F .text	0000005c SSP_Read1BFifo
0000d53c l     F .text	0000002c Chip_SSP_GetClockIndex
0000d568 l     F .text	0000002c Chip_SSP_GetClkIndex
00000000 l    df *ABS*	00000000 sysinit_17xx_40xx.c
0000d7f4 l     F .text	00000024 Chip_Clock_IsMainPLLEnabled
0000d818 l     F .text	00000024 Chip_Clock_IsMainPLLLocked
0000d83c l     F .text	00000024 Chip_Clock_IsMainPLLConnected
0000d860 l     F .text	00000020 Chip_Clock_EnableCrystal
0000d880 l     F .text	00000024 Chip_Clock_IsCrystalEnabled
0000d8a4 l     F .text	00000020 Chip_Clock_SetMainPLLSource
00000000 l    df *ABS*	00000000 uart_17xx_40xx.c
0000d954 l     F .text	0000001c Chip_UART_SendByte
0000d970 l     F .text	00000018 Chip_UART_ReadByte
0000d988 l     F .text	0000001a Chip_UART_SetupFIFOS
0000d9a4 l     F .text	0000001a Chip_UART_ConfigData
0000d9c0 l     F .text	0000001e Chip_UART_EnableDivisorAccess
0000d9e0 l     F .text	0000001e Chip_UART_DisableDivisorAccess
0000da00 l     F .text	00000026 Chip_UART_SetDivisorLatches
0000da28 l     F .text	00000016 Chip_UART_ReadLineStatus
0000da40 l     F .text	00000050 Chip_UART_GetClockIndex
0000da90 l     F .text	00000050 Chip_UART_GetClkIndex
00000000 l    df *ABS*	00000000 _cr__main.c
00000000 l    df *ABS*	00000000 memcpy.c
00000000 l    df *ABS*	00000000 memset.c
00000000 l    df *ABS*	00000000 initio.c
00000000 l    df *ABS*	00000000 setvbuf.c
00000000 l    df *ABS*	00000000 strcmp.c
00000000 l    df *ABS*	00000000 strcpy.c
00000000 l    df *ABS*	00000000 strlen.c
00000000 l    df *ABS*	00000000 _deferredlazyseek.c
00000000 l    df *ABS*	00000000 _fdopen.c
00000000 l    df *ABS*	00000000 _fflush.c
00000000 l    df *ABS*	00000000 _writebuf.c
00000000 l    df *ABS*	00000000 alloc.c
00000000 l    df *ABS*	00000000 fclose.c
00000000 l    df *ABS*	00000000 fflush.c
00000000 l    df *ABS*	00000000 fseek.c
00000000 l    df *ABS*	00000000 ftell.c
00000000 l    df *ABS*	00000000 remove.c
00000000 l    df *ABS*	00000000 _cr_sbrk.c
00000000 l    df *ABS*	00000000 _do_fflush.c
00000000 l    df *ABS*	00000000 _cr_check_heap.c
00000000 l    df *ABS*	00000000 memcpy.o
0000e424 l       .text	00000000 copy1
0000e40e l       .text	00000000 copy4
0000e45a l       .text	00000000 memset1a
0000e448 l       .text	00000000 __bhs_memset4
0000e44a l       .text	00000000 memset4
0000e456 l       .text	00000000 memset1
00000000 l    df *ABS*	00000000 __sys_appexit.o
00000000 l    df *ABS*	00000000 __sys_close.o
00000000 l    df *ABS*	00000000 __sys_flen.o
00000000 l    df *ABS*	00000000 __sys_istty.o
00000000 l    df *ABS*	00000000 __sys_remove.o
00000000 l    df *ABS*	00000000 __sys_seek.o
00000000 l    df *ABS*	00000000 __sys_tmpnam.o
00000000 l    df *ABS*	00000000 
00000000 l       *UND*	00000000 FreeRTOS_CLIGetOutputBuffer
00000000 l       *UND*	00000000 xTaskIsTaskSuspended
00000000 l       *UND*	00000000 FreeRTOS_CLIProcessCommand
00000000 l       *UND*	00000000 FreeRTOS_CLIGetParameter
00000000 l       *UND*	00000000 xGlobalQueue_UART
00000000 l       *UND*	00000000 FreeRTOS_CLIRegisterCommand
0000e720 g     O .text	00000004 RTCOscRateIn
0000de44 g     F .text	00000042 strcpy
0000dd00 g     F .text	00000014 __main
0000e900  w    F .after_vectors	00000006 TIMER2_IRQHandler
0000e8e8  w    F .after_vectors	00000006 DebugMon_Handler
0000e900  w    F .after_vectors	00000006 RIT_IRQHandler
000027a4 g     F privileged_functions	00000094 vTaskPlaceOnUnorderedEventList
0000ded0 g     F .text	00000044 _deferredlazyseek
00000270 g     F privileged_functions	00000014 xPortGetFreeHeapSize
00001fd8 g     F privileged_functions	000000e4 vTaskGetRunTimeStats
0000e468 g     F .text	00000000 __exit
00007df4 g     F .text	00000058 vPortExitCritical
000017a8 g     F privileged_functions	00000034 uxTaskPriorityGet
000034e8 g     F privileged_functions	0000006e xTimerCreate
0000ac3c g     F .text	0000000e I2C0_IRQHandler
0000e4b0 g     F .text	00000000 __sys_tmpnam
0000dbd8 g     F .text	00000024 Chip_UART_CheckBusy
00000000 g       privileged_functions	00000000 __FLASH_segment_start__
0000e854  w    F .after_vectors	0000001e HardFault_Handler
000011f4 g     F privileged_functions	0000005c vQueueWaitForMessageRestricted
0000c7fc g     F .text	00000284 handleMasterXferState
0000a3f0 g     F .text	000000c0 xIOUtilsConfigureTransferQueue
0000a524 g     F .text	00000068 xIOUtilsWaitTxQueueEmpty
10004c0c g     O .bss	00000004 xGlobalDispQueue
00000664 g     F privileged_functions	00000028 SysTick_Handler
0000dc9c g     F .text	00000062 Chip_UART_SetBaud
00007ee4 g     F .text	0000002e MPU_xTaskGetTickCount
0000e900  w    F .after_vectors	00000006 USBActivity_IRQHandler
00009754 g     F .text	00000186 FreeRTOS_UART_read
0000e900  w    F .after_vectors	00000006 PWM1_IRQHandler
000085d0 g     F .text	0000007c xIOUtilsTxCharsFromTNCircularBufferFromISR
0000a81c g     F .text	0000009e xIOUtilsConfigureZeroCopyTx
0000060c g     F privileged_functions	00000056 PendSV_Handler
00000c00 g     F privileged_functions	000000e4 xQueueGenericSendFromISR
0000e84c  w    F .after_vectors	00000006 NMI_Handler
0000c5e8 g     F .text	00000018 Chip_Clock_GetSystemClockRate
0000e908 g       .after_vectors	00000000 __exidx_end
0000ac2c g     F .text	0000000e I2C1_IRQHandler
0000813c g     F .text	00000036 MPU_FreeRTOS_open
0000e900  w    F .after_vectors	00000006 EINT2_IRQHandler
0000e900  w    F .after_vectors	00000006 UART1_IRQHandler
0000c2fc g     F .text	00000044 Chip_Clock_EnablePLL
00001064 g     F privileged_functions	0000005c xQueueGiveMutexRecursive
00007eb4 g     F .text	0000002e MPU_vTaskDelay
10000050 g     O privileged_data	00000004 pxCurrentTCB
0000e900  w    F .after_vectors	00000006 EINT3_IRQHandler
0000cfb0 g     F .text	00000058 Chip_I2C_MasterSend
0000e900  w    F .after_vectors	00000006 CANActivity_IRQHandler
0000cf14 g     F .text	0000009c Chip_I2C_MasterTransfer
10004bc4 g     O .bss	00000004 errno
0000c4ac g     F .text	0000008c Chip_Clock_GetPCLKDiv
0000e908 g       .after_vectors	00000000 _etext
10004a80 g     O .bss	00000004 _extra
00001820 g     F privileged_functions	00000130 vTaskPrioritySet
0000bee0 g     F .text	00000040 Board_Lcd_Cmd_Write
0000dd00  w    F .text	00000014 __CR_SEMIHOST
10000100 g       privileged_functions	00000000 __privileged_data_end__
0000e900  w    F .after_vectors	00000006 TIMER3_IRQHandler
10000400 g     O .bss	00000004 xInfotainmentTask
00009cfc g     F .text	000002e4 UART0_IRQHandler
0000e814 g     F .after_vectors	00000036 bss_init
000002ec g     F privileged_functions	0000003c xPortStartScheduler
00001c08 g     F privileged_functions	00000020 vTaskEndScheduler
0000dd14 g     F .text	00000004 memcpy
00002734 g     F privileged_functions	00000070 vTaskPlaceOnEventList
00002e50 g     F privileged_functions	000001b0 xTaskGenericCreate
0000ddc0 g     F .text	00000040 setvbuf
00008174 g     F .text	0000003a MPU_FreeRTOS_ioctl
0000d038 g     F .text	00000060 Chip_I2C_MasterStateHandler
000008f8 g     F privileged_functions	00000096 xQueuePeekFromISR
0000c388 g     F .text	0000005c Chip_Clock_SetupPLL
00008000 g     F .text	0000003e MPU_xQueueGenericReceive
10008000 g       *ABS*	00000000 __SRAM_segment_end__
000001f0 g     F privileged_functions	00000074 vPortFree
10004c14 g     O .bss	00000004 SystemCoreClock
0000d7d0 g     F .text	00000024 Chip_SSP_DeInit
0000dae0 g     F .text	00000078 Chip_UART_Init
00001328 g     F privileged_functions	00000016 uxQueueGetQueueNumber
0000e040 g     F .text	000000c8 malloc
0000e350 g     F .text	00000014 remove
00001dac g     F privileged_functions	00000038 uxTaskGetStackHighWaterMark
0000e8bc  w    F .after_vectors	00000024 UsageFault_Handler
00000fd0 g     F privileged_functions	0000002e xQueueGetMutexHolder
0000d1c8 g     F .text	00000092 Chip_IOCON_PinMux
00008244 g     F .text	00000046 vListInsertEnd
0000e400 g     F .text	0000000a __aeabi_memcpy
00009fe0 g     F .text	00000108 FreeRTOS_open
0000c1d8 g     F .text	00000012 Board_SetupClocking
0000e480 g     F .text	00000000 __sys_flen
00000100 g       *ABS*	00000000 _Privileged_Data_Region_Size
0000cecc g     F .text	00000048 Chip_I2C_SetMasterEventHandler
0000e900  w    F .after_vectors	00000006 IntDefaultHandler
00008f14 g     F .text	000000a0 FreeRTOS_SSP_read
000094a8 g     F .text	000002ac FreeRTOS_UART_write
00001abc g     F privileged_functions	000000c0 xTaskResumeFromISR
000083f4 g     F .text	000000dc xIOUtilsConfigureTaskNotificationBasedRx
0000822c g     F .text	00000018 vListInitialiseItem
00000000  w      *UND*	00000000 _pvHeapLimit
0000e900  w    F .after_vectors	00000006 PLL0_IRQHandler
0000e900  w    F .after_vectors	00000006 CAN_IRQHandler
10000000 g     O privileged_data	00000050 xQueueRegistry
0000e1c4 g     F .text	00000030 fflush
0000cacc g     F .text	000002b6 handleSlaveXferState
0000e900  w    F .after_vectors	00000006 PLL1_IRQHandler
000017dc g     F privileged_functions	00000044 uxTaskPriorityGetFromISR
00008980 g     F .text	000000e4 FreeRTOS_I2C_read
10000000 g       privileged_functions	00000000 __SRAM_segment_start__
0000ae58 g     F .text	00000140 pop_registers_from_fault_stack
0000e900  w    F .after_vectors	00000006 SSP0_IRQHandler
0000e908 g       .after_vectors	00000000 __exidx_start
00007f14 g     F .text	0000003e MPU_xQueueGenericCreate
0000e40a g     F .text	0000002a __aeabi_memcpy4
0000df14 g     F .text	0000006a _fdopen
0000e434 g     F .text	00000032 __aeabi_lowlevel_memset
10008000 g       privileged_functions	00000000 _vRamTop
0000a918 g     F .text	0000003e xIOUtilsReleaseZeroCopyWriteMutex
0000e364 g     F .text	00000040 _sbrk
000000cc g     F privileged_functions	00000124 pvPortMalloc
0000c538 g     F .text	00000034 Chip_Clock_GetSYSCLKRate
0000bf60 g     F .text	00000028 Board_LCD_Write_String
0000c0b0 g     F .text	00000020 Board_Init
0000e900  w    F .after_vectors	00000006 I2S_IRQHandler
00000bd0 g     F privileged_functions	00000030 vQueueDelete
00000328 g     F privileged_functions	00000024 vPortEndScheduler
0000e900  w    F .after_vectors	00000006 I2C2_IRQHandler
000081ec g     F .text	0000003e vListInitialise
0000d5c8 g     F .text	00000106 Chip_SSP_RWFrames_Blocking
00001d5c g     F privileged_functions	0000001c xTaskGetTickCount
00000750 g     F privileged_functions	000001a8 xQueueGenericSend
00001570 g     F privileged_functions	00000034 vTaskAllocateMPURegions
0000e900  w    F .after_vectors	00000006 RTC_IRQHandler
10004c18 g       .bss	00000000 _ebss
0000e900  w    F .after_vectors	00000006 TIMER0_IRQHandler
0000c5c0 g     F .text	00000028 Chip_Clock_GetMainClockRate
0000e900  w    F .after_vectors	00000006 SPI_IRQHandler
000093a4 g     F .text	00000104 FreeRTOS_UART_open
0000a7f4 g     F .text	00000026 vIOUtilsSetCircularBufferTimeout
0000ce64 g     F .text	00000068 Chip_I2C_SetClockRate
00001de4 g     F privileged_functions	000000f8 uxTaskGetSystemState
0000d6d0 g     F .text	0000004c Chip_SSP_Int_FlushData
00002d8c g     F privileged_functions	000000c4 xTaskPriorityDisinherit
00004000 g       *ABS*	00000000 __privileged_functions_end__
000086e0 g     F .text	000001a8 FreeRTOS_I2C_open
000084d0 g     F .text	00000100 xIOUtilsReadCharsFromTNBasedCircularBuffer
000028a8 g     F privileged_functions	000000bc xTaskRemoveFromEventList
0000b740 g     F .text	0000000e vApplicationMallocFailedHook
0000e7d0 g     F .after_vectors	00000042 data_init
0000e40a g     F .text	0000002a __aeabi_memcpy8
0000a3a0 g     F .text	00000026 xIOUtilsSetTxQueueTimeout
00007fcc g     F .text	00000032 MPU_uxQueueMessagesWaiting
0000e900  w    F .after_vectors	00000006 EINT1_IRQHandler
0000e900  w    F .after_vectors	00000006 TIMER1_IRQHandler
0000ce30 g     F .text	00000034 Chip_I2C_Init
0000d190 g     F .text	00000036 Chip_IOCON_PinMuxSet
10004da0 g       .data	00000000 end
000015a4 g     F privileged_functions	000000bc vTaskDelete
0000e900  w    F .after_vectors	00000006 UART2_IRQHandler
00001110 g     F privileged_functions	00000044 vQueueUnregisterQueue
0000e1f4 g     F .text	00000110 fseek
0000ca80 g     F .text	0000004a getSlaveIndex
00003050 g     F privileged_functions	00000028 pvTaskIncrementMutexHeldCount
0000d594 g     F .text	00000034 Chip_SSP_SetClockRate
0000df7e g     F .text	00000058 _fflush
00002bd4 g     F privileged_functions	000000a8 xTaskCheckForTimeOut
0000ac4c g     F .text	000001d0 test
10000000 g       privileged_data	00000000 _bss
00002504 g     F privileged_functions	000000bc ulTaskNotifyTake
0000c3e4 g     F .text	00000034 Chip_Clock_EnablePeriphClock
00001c28 g     F privileged_functions	0000001c vTaskSuspendAll
10000404 g     O .bss	00000004 xConsoleUART1
00001d78 g     F privileged_functions	00000020 xTaskGetTickCountFromISR
00008a64 g     F .text	0000007c FreeRTOS_I2C_ioctl
0000d71c g     F .text	00000074 Chip_SSP_SetBitRate
000082fc g     F .text	00000052 uxListRemove
0000e900  w    F .after_vectors	00000006 ADC_IRQHandler
0000e71c g     O .text	00000004 OscRateIn
0000c0d0 g     F .text	000000bc Board_I2C_Init
00007f8c g     F .text	0000003e MPU_xQueueGenericSend
00002cd0 g     F privileged_functions	000000bc vTaskPriorityInherit
10007ff0 g       *ABS*	00000000 _vStackTop
00001a14 g     F privileged_functions	000000a8 vTaskResume
00008fb4 g     F .text	00000150 FreeRTOS_SSP_ioctl
00002a1c g     F privileged_functions	00000130 vTaskSwitchContext
00009104 g     F .text	00000118 SSP1_IRQHandler
0000a6f4 g     F .text	00000100 xIOUtilsReadCharsFromCircularBuffer
00002838 g     F privileged_functions	00000070 vTaskPlaceOnEventListRestricted
0000d008 g     F .text	00000030 Chip_I2C_IsMasterActive
0000e3e8 g     F .text	00000018 __check_heap_overflow
000080a8 g     F .text	0000002e MPU_vQueueDelete
00002338 g     F privileged_functions	000000e0 xTaskNotifyWait
0000c418 g     F .text	00000034 Chip_Clock_DisablePeriphClock
0000e900  w    F .after_vectors	00000006 USB_IRQHandler
0000368c g     F privileged_functions	00000090 xTimerGenericCommand
0000302c g     F privileged_functions	00000024 vTaskSetTaskNumber
0000b72c g     F .text	00000014 vApplicationStackOverflowHook
00001950 g     F privileged_functions	000000c4 vTaskSuspend
00001d98 g     F privileged_functions	00000014 uxTaskGetNumberOfTasks
00008ca8 g     F .text	000001b8 FreeRTOS_SSP_open
0000e900  w    F .after_vectors	00000006 BOD_IRQHandler
0000db70 g     F .text	00000018 Chip_UART_TXDisable
0000bda0 g     F .text	00000034 Board_UARTPutChar
00001000 g     F privileged_functions	00000064 xQueueTakeMutexRecursive
0000d158 g     F .text	00000038 Chip_I2C_IsStateChanged
0000db88 g     F .text	00000050 Chip_UART_Send
00004000 g       *ABS*	00000000 _Privileged_Functions_Region_Size
000020bc g     F privileged_functions	00000128 xTaskGenericNotify
0000b698 g     F .text	00000018 vMainConfigureTimerForRunTimeStats
0000bd50 g     F .text	00000038 __sys_write
00001edc g     F privileged_functions	000000fc vTaskList
0000dd18 g     F .text	00000004 memset
00003000 g     F privileged_functions	0000002a uxTaskGetTaskNumber
0000e7a8 g     F .after_vectors	00000028 MemManage_Handler
0000a2c8 g     F .text	000000d6 vIOUtilsCreateTransferControlStructure
0000b624 g     F .text	00000074 main
0000bea0 g     F .text	00000040 delay_ms
0000dc48 g     F .text	00000052 Chip_UART_Read
0000e3a4 g     F .text	00000044 _do_fflush
0000e304 g     F .text	0000004c ftell
00008040 g     F .text	00000030 MPU_xQueueCreateMutex
0000e900  w    F .after_vectors	00000006 WDT_IRQHandler
0000828c g     F .text	00000070 vListInsert
0000068c g     F privileged_functions	00000012 SVC_Handler
0000e158 g     F .text	0000006c fclose
0000362c g     F privileged_functions	00000060 xTimerCreateTimerTask
0000d8c4 g     F .text	00000090 Chip_SetupXtalClocking
00001340 g     F privileged_functions	00000018 ucQueueGetQueueType
00003600 g     F privileged_functions	0000002a pcTimerGetTimerName
000016d0 g     F privileged_functions	000000d8 vTaskDelayUntil
00000d8c g     F privileged_functions	000000be xQueueReceiveFromISR
0000e4a4 g     F .text	00000000 __sys_seek
00002b7c g     F privileged_functions	0000001c xTaskGetCurrentTaskHandle
00001154 g     F privileged_functions	0000009e xQueueGenericCreate
0000de00 g     F .text	00000044 strcmp
00000f70 g     F privileged_functions	0000005e xQueueCreateCountingSemaphore
0000baf8 g     F .text	00000024 SystemInit
0000ae1c g     F .text	0000003c delay
000021e4 g     F privileged_functions	00000154 xTaskGenericNotifyFromISR
0000e900  w    F .after_vectors	00000006 QEI_IRQHandler
0000130c g     F privileged_functions	0000001a vQueueSetQueueNumber
00002964 g     F privileged_functions	000000b8 xTaskRemoveFromUnorderedEventList
00008e60 g     F .text	000000b4 FreeRTOS_SSP_write
00001c44 g     F privileged_functions	00000118 xTaskResumeAll
0000e474 g     F .text	00000000 __sys_close
0000dbfc g     F .text	0000004a Chip_UART_SendBlocking
00000b94 g     F privileged_functions	0000003a uxQueueSpacesAvailable
0000bacc g     F .text	0000002c sprintf
00001b7c g     F privileged_functions	0000008c vTaskStartScheduler
0000c1bc g     F .text	0000001c Board_SetupMuxing
0000a3c8 g     F .text	00000026 vIOUtilsSetRxQueueTimeout
0000c010 g     F .text	000000a0 Board_LCD_Init
00000e84 g     F privileged_functions	0000003a xQueueIsQueueFullFromISR
00009930 g     F .text	000000e8 FreeRTOS_UART_ioctl
00003558 g     F privileged_functions	00000034 pvTimerGetTimerID
0000e900  w    F .after_vectors	00000006 EINT0_IRQHandler
0000e900  w    F .after_vectors	00000006 ETH_IRQHandler
0000af98 g     F .text	00000048 vMyControlTaskStart
0000dfd8 g     F .text	00000068 _Cwritebuf
0000c490 g     F .text	0000001c Chip_Clock_GetCPUClockDiv
00080000 g       *ABS*	00000000 __FLASH_segment_end__
10004c18 g       .data	00000000 _data
00002c7c g     F privileged_functions	00000018 vTaskMissedYield
10004da0 g       .data	00000000 _pvHeapStart
0000d790 g     F .text	00000040 Chip_SSP_Init
0000d25c g     F .text	00000062 Chip_IOCON_SetPinMuxing
0000cdd0 g     F .text	00000060 Chip_I2C_EventHandlerPolling
00000990 g     F privileged_functions	000001d4 xQueueGenericReceive
00000b64 g     F privileged_functions	00000030 uxQueueMessagesWaiting
000010c0 g     F privileged_functions	00000050 vQueueAddToRegistry
0000b384 g     F .text	00000048 vMyAccelerationTaskStart
000025c0 g     F privileged_functions	00000174 xTaskIncrementTick
0000b1c8 g     F .text	00000048 vMyBrakeTaskStart
0000e498 g     F .text	00000000 __sys_remove
00001250 g     F privileged_functions	000000bc xQueueGenericReset
0000358c g     F privileged_functions	00000034 vTimerSetTimerID
10004da0 g       .data	00000000 _edata
0000a4b0 g     F .text	00000074 xIOUtilsReceiveCharsFromRxQueue
0000cd84 g     F .text	0000004c Chip_I2C_EventHandler
10004c10 g     O .bss	00000004 xGlobalQueue
00007b98 g     F .text	0000004c vMyInfotainmentTaskStart
00000264 g     F privileged_functions	0000000c vPortInitialiseBlocks
000035c0 g     F privileged_functions	0000003e xTimerIsTimerActive
10004bc8 g     O .bss	00000004 __heaps
0000e468 g     F .text	00000000 __sys_appexit
0000a58c g     F .text	00000034 xIOUtilsClearRxCharQueue
00000000 g     O privileged_functions	000000cc g_pfnVectors
0000b530 g     F .text	00000050 ResetISR
0000c1fc g     F .text	00000018 SystemCoreClockUpdate
0000a0e8 g     F .text	000001e0 FreeRTOS_ioctl
10004bcc g     O .bss	00000004 __end_of_heap
0000e900  w    F .after_vectors	00000006 DMA_IRQHandler
0000bf20 g     F .text	00000040 Board_Lcd_Data_Write
00001660 g     F privileged_functions	00000070 vTaskDelay
0000e138 g     F .text	00000020 _Csys_alloc
0000db58 g     F .text	00000018 Chip_UART_TXEnable
0000a8bc g     F .text	0000005c xIOUtilsGetZeroCopyWriteMutex
0000b6b0 g     F .text	0000007c ulMainGetRunTimeCounterValue
00002c94 g     F privileged_functions	0000003c xTaskGetSchedulerState
0000a5c0 g     F .text	000000f4 xIOUtilsConfigureCircularBufferRx
10004a00 g     O .bss	00000004 xLCDTask
0000c340 g     F .text	00000048 Chip_Clock_DisablePLL
00007f54 g     F .text	00000036 MPU_xQueueGenericReset
00008070 g     F .text	00000036 MPU_xQueueCreateCountingSemaphore
0000c56c g     F .text	00000054 Chip_Clock_GetMainPLLOutClockRate
0000e898  w    F .after_vectors	00000024 BusFault_Handler
0000b428 g     F .text	00000050 vMyDisplayStart
0000de86 g     F .text	0000004a strlen
00000284 g     F privileged_functions	00000066 pxPortInitialiseStack
00009a18 g     F .text	000002e4 UART3_IRQHandler
0000e900  w    F .after_vectors	00000006 MCPWM_IRQHandler
10000000 g       privileged_functions	00000000 __privileged_data_start__
00002b98 g     F privileged_functions	0000003c vTaskSetTimeOutState
000080d8 g     F .text	00000032 MPU_pvPortMalloc
00007db8 g     F .text	0000003c vPortEnterCritical
0000c44c g     F .text	00000024 Chip_Clock_GetCPUClockSource
0000a6b4 g     F .text	0000003e vIOUtilsClearRxCircularBuffer
00000ec0 g     F privileged_functions	0000002a uxQueueMessagesWaitingFromISR
0000864c g     F .text	00000058 vFreeRTOS_lpc17xx_PopulateFunctionPointers
00000e4c g     F privileged_functions	00000036 xQueueIsQueueEmptyFromISR
000081b0 g     F .text	0000003c MPU_FreeRTOS_write
0000dd1c g     F .text	000000a4 _initio
00007e64 g     F .text	00000050 MPU_xTaskGenericCreate
0000034c g     F privileged_functions	0000017c vPortStoreTaskMPUSettings
0000d098 g     F .text	000000c0 Chip_I2C_SlaveStateHandler
10004a84 g     O .bss	00000140 __Ciob
00008888 g     F .text	000000f8 FreeRTOS_I2C_write
00002b4c g     F privileged_functions	00000030 uxTaskResetEventItemValue
0000e48c g     F .text	00000000 __sys_istty
00000eec g     F privileged_functions	00000084 xQueueCreateMutex
0000810c g     F .text	0000002e MPU_vPortFree
00000000 g       privileged_functions	00000000 __privileged_functions_start__
10004bd0 g     O .bss	0000003c buffer_data
00002418 g     F privileged_functions	000000ec vTaskNotifyGiveFromISR
00000ce4 g     F privileged_functions	000000a8 xQueueGiveFromISR
0000e108 g     F .text	00000030 free
0000c1ec g     F .text	00000010 Board_SystemInit
0000c470 g     F .text	00000020 Chip_Clock_SetCPUClockDiv
0000c600 g     F .text	00000026 Chip_Clock_GetPeripheralClockRate



Disassembly of section privileged_functions:

00000000 <__FLASH_segment_start__>:
       0:	10007ff0 	.word	0x10007ff0
       4:	0000b531 	.word	0x0000b531
       8:	0000e84d 	.word	0x0000e84d
       c:	0000e855 	.word	0x0000e855
      10:	0000e7a9 	.word	0x0000e7a9
      14:	0000e899 	.word	0x0000e899
      18:	0000e8bd 	.word	0x0000e8bd
	...
      2c:	0000068d 	.word	0x0000068d
      30:	0000e8e9 	.word	0x0000e8e9
      34:	00000000 	.word	0x00000000
      38:	0000060d 	.word	0x0000060d
      3c:	00000665 	.word	0x00000665
      40:	0000e901 	.word	0x0000e901
      44:	0000e901 	.word	0x0000e901
      48:	0000e901 	.word	0x0000e901
      4c:	0000e901 	.word	0x0000e901
      50:	0000e901 	.word	0x0000e901
      54:	00009cfd 	.word	0x00009cfd
      58:	0000e901 	.word	0x0000e901
      5c:	0000e901 	.word	0x0000e901
      60:	00009a19 	.word	0x00009a19
      64:	0000e901 	.word	0x0000e901
      68:	0000ac3d 	.word	0x0000ac3d
      6c:	0000ac2d 	.word	0x0000ac2d
      70:	0000e901 	.word	0x0000e901
      74:	0000e901 	.word	0x0000e901
      78:	0000e901 	.word	0x0000e901
      7c:	00009105 	.word	0x00009105
      80:	0000e901 	.word	0x0000e901
      84:	0000e901 	.word	0x0000e901
      88:	0000e901 	.word	0x0000e901
      8c:	0000e901 	.word	0x0000e901
      90:	0000e901 	.word	0x0000e901
      94:	0000e901 	.word	0x0000e901
      98:	0000e901 	.word	0x0000e901
      9c:	0000e901 	.word	0x0000e901
      a0:	0000e901 	.word	0x0000e901
      a4:	0000e901 	.word	0x0000e901
      a8:	0000e901 	.word	0x0000e901
      ac:	0000e901 	.word	0x0000e901
      b0:	0000e901 	.word	0x0000e901
      b4:	0000e901 	.word	0x0000e901
      b8:	0000e901 	.word	0x0000e901
      bc:	0000e901 	.word	0x0000e901
      c0:	0000e901 	.word	0x0000e901
      c4:	0000e901 	.word	0x0000e901
      c8:	0000e901 	.word	0x0000e901

000000cc <pvPortMalloc>:
      cc:	b580      	push	{r7, lr}
      ce:	b088      	sub	sp, #32
      d0:	af00      	add	r7, sp, #0
      d2:	6078      	str	r0, [r7, #4]
      d4:	2300      	movs	r3, #0
      d6:	617b      	str	r3, [r7, #20]
      d8:	f001 fda6 	bl	1c28 <vTaskSuspendAll>
      dc:	4b40      	ldr	r3, [pc, #256]	; (1e0 <_Privileged_Data_Region_Size+0xe0>)
      de:	681b      	ldr	r3, [r3, #0]
      e0:	2b00      	cmp	r3, #0
      e2:	d104      	bne.n	ee <pvPortMalloc+0x22>
      e4:	f007 fe40 	bl	7d68 <prvHeapInit>
      e8:	4b3d      	ldr	r3, [pc, #244]	; (1e0 <_Privileged_Data_Region_Size+0xe0>)
      ea:	2201      	movs	r2, #1
      ec:	601a      	str	r2, [r3, #0]
      ee:	687b      	ldr	r3, [r7, #4]
      f0:	2b00      	cmp	r3, #0
      f2:	d00e      	beq.n	112 <_Privileged_Data_Region_Size+0x12>
      f4:	2308      	movs	r3, #8
      f6:	461a      	mov	r2, r3
      f8:	687b      	ldr	r3, [r7, #4]
      fa:	4413      	add	r3, r2
      fc:	607b      	str	r3, [r7, #4]
      fe:	687b      	ldr	r3, [r7, #4]
     100:	f003 0307 	and.w	r3, r3, #7
     104:	2b00      	cmp	r3, #0
     106:	d004      	beq.n	112 <_Privileged_Data_Region_Size+0x12>
     108:	687b      	ldr	r3, [r7, #4]
     10a:	f023 0307 	bic.w	r3, r3, #7
     10e:	3308      	adds	r3, #8
     110:	607b      	str	r3, [r7, #4]
     112:	687b      	ldr	r3, [r7, #4]
     114:	2b00      	cmp	r3, #0
     116:	d057      	beq.n	1c8 <_Privileged_Data_Region_Size+0xc8>
     118:	687b      	ldr	r3, [r7, #4]
     11a:	f643 32f7 	movw	r2, #15351	; 0x3bf7
     11e:	4293      	cmp	r3, r2
     120:	d852      	bhi.n	1c8 <_Privileged_Data_Region_Size+0xc8>
     122:	4b30      	ldr	r3, [pc, #192]	; (1e4 <_Privileged_Data_Region_Size+0xe4>)
     124:	61bb      	str	r3, [r7, #24]
     126:	4b2f      	ldr	r3, [pc, #188]	; (1e4 <_Privileged_Data_Region_Size+0xe4>)
     128:	681b      	ldr	r3, [r3, #0]
     12a:	61fb      	str	r3, [r7, #28]
     12c:	e004      	b.n	138 <_Privileged_Data_Region_Size+0x38>
     12e:	69fb      	ldr	r3, [r7, #28]
     130:	61bb      	str	r3, [r7, #24]
     132:	69fb      	ldr	r3, [r7, #28]
     134:	681b      	ldr	r3, [r3, #0]
     136:	61fb      	str	r3, [r7, #28]
     138:	69fb      	ldr	r3, [r7, #28]
     13a:	685a      	ldr	r2, [r3, #4]
     13c:	687b      	ldr	r3, [r7, #4]
     13e:	429a      	cmp	r2, r3
     140:	d203      	bcs.n	14a <_Privileged_Data_Region_Size+0x4a>
     142:	69fb      	ldr	r3, [r7, #28]
     144:	681b      	ldr	r3, [r3, #0]
     146:	2b00      	cmp	r3, #0
     148:	d1f1      	bne.n	12e <_Privileged_Data_Region_Size+0x2e>
     14a:	69fb      	ldr	r3, [r7, #28]
     14c:	4a26      	ldr	r2, [pc, #152]	; (1e8 <_Privileged_Data_Region_Size+0xe8>)
     14e:	4293      	cmp	r3, r2
     150:	d03a      	beq.n	1c8 <_Privileged_Data_Region_Size+0xc8>
     152:	69bb      	ldr	r3, [r7, #24]
     154:	681b      	ldr	r3, [r3, #0]
     156:	2208      	movs	r2, #8
     158:	4413      	add	r3, r2
     15a:	617b      	str	r3, [r7, #20]
     15c:	69fb      	ldr	r3, [r7, #28]
     15e:	681a      	ldr	r2, [r3, #0]
     160:	69bb      	ldr	r3, [r7, #24]
     162:	601a      	str	r2, [r3, #0]
     164:	69fb      	ldr	r3, [r7, #28]
     166:	685a      	ldr	r2, [r3, #4]
     168:	687b      	ldr	r3, [r7, #4]
     16a:	1ad3      	subs	r3, r2, r3
     16c:	2208      	movs	r2, #8
     16e:	0052      	lsls	r2, r2, #1
     170:	4293      	cmp	r3, r2
     172:	d922      	bls.n	1ba <_Privileged_Data_Region_Size+0xba>
     174:	69fa      	ldr	r2, [r7, #28]
     176:	687b      	ldr	r3, [r7, #4]
     178:	4413      	add	r3, r2
     17a:	60fb      	str	r3, [r7, #12]
     17c:	69fb      	ldr	r3, [r7, #28]
     17e:	685a      	ldr	r2, [r3, #4]
     180:	687b      	ldr	r3, [r7, #4]
     182:	1ad2      	subs	r2, r2, r3
     184:	68fb      	ldr	r3, [r7, #12]
     186:	605a      	str	r2, [r3, #4]
     188:	69fb      	ldr	r3, [r7, #28]
     18a:	687a      	ldr	r2, [r7, #4]
     18c:	605a      	str	r2, [r3, #4]
     18e:	68fb      	ldr	r3, [r7, #12]
     190:	685b      	ldr	r3, [r3, #4]
     192:	60bb      	str	r3, [r7, #8]
     194:	4b13      	ldr	r3, [pc, #76]	; (1e4 <_Privileged_Data_Region_Size+0xe4>)
     196:	613b      	str	r3, [r7, #16]
     198:	e002      	b.n	1a0 <_Privileged_Data_Region_Size+0xa0>
     19a:	693b      	ldr	r3, [r7, #16]
     19c:	681b      	ldr	r3, [r3, #0]
     19e:	613b      	str	r3, [r7, #16]
     1a0:	693b      	ldr	r3, [r7, #16]
     1a2:	681b      	ldr	r3, [r3, #0]
     1a4:	685a      	ldr	r2, [r3, #4]
     1a6:	68bb      	ldr	r3, [r7, #8]
     1a8:	429a      	cmp	r2, r3
     1aa:	d3f6      	bcc.n	19a <_Privileged_Data_Region_Size+0x9a>
     1ac:	693b      	ldr	r3, [r7, #16]
     1ae:	681a      	ldr	r2, [r3, #0]
     1b0:	68fb      	ldr	r3, [r7, #12]
     1b2:	601a      	str	r2, [r3, #0]
     1b4:	693b      	ldr	r3, [r7, #16]
     1b6:	68fa      	ldr	r2, [r7, #12]
     1b8:	601a      	str	r2, [r3, #0]
     1ba:	4b0c      	ldr	r3, [pc, #48]	; (1ec <_Privileged_Data_Region_Size+0xec>)
     1bc:	681a      	ldr	r2, [r3, #0]
     1be:	69fb      	ldr	r3, [r7, #28]
     1c0:	685b      	ldr	r3, [r3, #4]
     1c2:	1ad3      	subs	r3, r2, r3
     1c4:	4a09      	ldr	r2, [pc, #36]	; (1ec <_Privileged_Data_Region_Size+0xec>)
     1c6:	6013      	str	r3, [r2, #0]
     1c8:	f001 fd3c 	bl	1c44 <xTaskResumeAll>
     1cc:	697b      	ldr	r3, [r7, #20]
     1ce:	2b00      	cmp	r3, #0
     1d0:	d101      	bne.n	1d6 <_Privileged_Data_Region_Size+0xd6>
     1d2:	f00b fab5 	bl	b740 <vApplicationMallocFailedHook>
     1d6:	697b      	ldr	r3, [r7, #20]
     1d8:	4618      	mov	r0, r3
     1da:	3720      	adds	r7, #32
     1dc:	46bd      	mov	sp, r7
     1de:	bd80      	pop	{r7, pc}
     1e0:	10004018 	.word	0x10004018
     1e4:	10004008 	.word	0x10004008
     1e8:	10004010 	.word	0x10004010
     1ec:	10004c54 	.word	0x10004c54

000001f0 <vPortFree>:
     1f0:	b580      	push	{r7, lr}
     1f2:	b086      	sub	sp, #24
     1f4:	af00      	add	r7, sp, #0
     1f6:	6078      	str	r0, [r7, #4]
     1f8:	687b      	ldr	r3, [r7, #4]
     1fa:	613b      	str	r3, [r7, #16]
     1fc:	687b      	ldr	r3, [r7, #4]
     1fe:	2b00      	cmp	r3, #0
     200:	d027      	beq.n	252 <vPortFree+0x62>
     202:	2308      	movs	r3, #8
     204:	425b      	negs	r3, r3
     206:	693a      	ldr	r2, [r7, #16]
     208:	4413      	add	r3, r2
     20a:	613b      	str	r3, [r7, #16]
     20c:	693b      	ldr	r3, [r7, #16]
     20e:	60fb      	str	r3, [r7, #12]
     210:	f001 fd0a 	bl	1c28 <vTaskSuspendAll>
     214:	68fb      	ldr	r3, [r7, #12]
     216:	685b      	ldr	r3, [r3, #4]
     218:	60bb      	str	r3, [r7, #8]
     21a:	4b10      	ldr	r3, [pc, #64]	; (25c <vPortFree+0x6c>)
     21c:	617b      	str	r3, [r7, #20]
     21e:	e002      	b.n	226 <vPortFree+0x36>
     220:	697b      	ldr	r3, [r7, #20]
     222:	681b      	ldr	r3, [r3, #0]
     224:	617b      	str	r3, [r7, #20]
     226:	697b      	ldr	r3, [r7, #20]
     228:	681b      	ldr	r3, [r3, #0]
     22a:	685a      	ldr	r2, [r3, #4]
     22c:	68bb      	ldr	r3, [r7, #8]
     22e:	429a      	cmp	r2, r3
     230:	d3f6      	bcc.n	220 <vPortFree+0x30>
     232:	697b      	ldr	r3, [r7, #20]
     234:	681a      	ldr	r2, [r3, #0]
     236:	68fb      	ldr	r3, [r7, #12]
     238:	601a      	str	r2, [r3, #0]
     23a:	697b      	ldr	r3, [r7, #20]
     23c:	68fa      	ldr	r2, [r7, #12]
     23e:	601a      	str	r2, [r3, #0]
     240:	68fb      	ldr	r3, [r7, #12]
     242:	685a      	ldr	r2, [r3, #4]
     244:	4b06      	ldr	r3, [pc, #24]	; (260 <vPortFree+0x70>)
     246:	681b      	ldr	r3, [r3, #0]
     248:	4413      	add	r3, r2
     24a:	4a05      	ldr	r2, [pc, #20]	; (260 <vPortFree+0x70>)
     24c:	6013      	str	r3, [r2, #0]
     24e:	f001 fcf9 	bl	1c44 <xTaskResumeAll>
     252:	bf00      	nop
     254:	3718      	adds	r7, #24
     256:	46bd      	mov	sp, r7
     258:	bd80      	pop	{r7, pc}
     25a:	bf00      	nop
     25c:	10004008 	.word	0x10004008
     260:	10004c54 	.word	0x10004c54

00000264 <vPortInitialiseBlocks>:
     264:	b480      	push	{r7}
     266:	af00      	add	r7, sp, #0
     268:	bf00      	nop
     26a:	46bd      	mov	sp, r7
     26c:	bc80      	pop	{r7}
     26e:	4770      	bx	lr

00000270 <xPortGetFreeHeapSize>:
     270:	b480      	push	{r7}
     272:	af00      	add	r7, sp, #0
     274:	4b02      	ldr	r3, [pc, #8]	; (280 <xPortGetFreeHeapSize+0x10>)
     276:	681b      	ldr	r3, [r3, #0]
     278:	4618      	mov	r0, r3
     27a:	46bd      	mov	sp, r7
     27c:	bc80      	pop	{r7}
     27e:	4770      	bx	lr
     280:	10004c54 	.word	0x10004c54

00000284 <pxPortInitialiseStack>:
     284:	b480      	push	{r7}
     286:	b085      	sub	sp, #20
     288:	af00      	add	r7, sp, #0
     28a:	60f8      	str	r0, [r7, #12]
     28c:	60b9      	str	r1, [r7, #8]
     28e:	607a      	str	r2, [r7, #4]
     290:	603b      	str	r3, [r7, #0]
     292:	68fb      	ldr	r3, [r7, #12]
     294:	3b04      	subs	r3, #4
     296:	60fb      	str	r3, [r7, #12]
     298:	68fb      	ldr	r3, [r7, #12]
     29a:	f04f 7280 	mov.w	r2, #16777216	; 0x1000000
     29e:	601a      	str	r2, [r3, #0]
     2a0:	68fb      	ldr	r3, [r7, #12]
     2a2:	3b04      	subs	r3, #4
     2a4:	60fb      	str	r3, [r7, #12]
     2a6:	68ba      	ldr	r2, [r7, #8]
     2a8:	68fb      	ldr	r3, [r7, #12]
     2aa:	601a      	str	r2, [r3, #0]
     2ac:	68fb      	ldr	r3, [r7, #12]
     2ae:	3b04      	subs	r3, #4
     2b0:	60fb      	str	r3, [r7, #12]
     2b2:	68fb      	ldr	r3, [r7, #12]
     2b4:	2200      	movs	r2, #0
     2b6:	601a      	str	r2, [r3, #0]
     2b8:	68fb      	ldr	r3, [r7, #12]
     2ba:	3b14      	subs	r3, #20
     2bc:	60fb      	str	r3, [r7, #12]
     2be:	687a      	ldr	r2, [r7, #4]
     2c0:	68fb      	ldr	r3, [r7, #12]
     2c2:	601a      	str	r2, [r3, #0]
     2c4:	68fb      	ldr	r3, [r7, #12]
     2c6:	3b24      	subs	r3, #36	; 0x24
     2c8:	60fb      	str	r3, [r7, #12]
     2ca:	683b      	ldr	r3, [r7, #0]
     2cc:	2b01      	cmp	r3, #1
     2ce:	d103      	bne.n	2d8 <pxPortInitialiseStack+0x54>
     2d0:	68fb      	ldr	r3, [r7, #12]
     2d2:	2202      	movs	r2, #2
     2d4:	601a      	str	r2, [r3, #0]
     2d6:	e002      	b.n	2de <pxPortInitialiseStack+0x5a>
     2d8:	68fb      	ldr	r3, [r7, #12]
     2da:	2203      	movs	r2, #3
     2dc:	601a      	str	r2, [r3, #0]
     2de:	68fb      	ldr	r3, [r7, #12]
     2e0:	4618      	mov	r0, r3
     2e2:	3714      	adds	r7, #20
     2e4:	46bd      	mov	sp, r7
     2e6:	bc80      	pop	{r7}
     2e8:	4770      	bx	lr
     2ea:	bf00      	nop

000002ec <xPortStartScheduler>:
     2ec:	b580      	push	{r7, lr}
     2ee:	af00      	add	r7, sp, #0
     2f0:	4a0b      	ldr	r2, [pc, #44]	; (320 <xPortStartScheduler+0x34>)
     2f2:	4b0b      	ldr	r3, [pc, #44]	; (320 <xPortStartScheduler+0x34>)
     2f4:	681b      	ldr	r3, [r3, #0]
     2f6:	f443 0378 	orr.w	r3, r3, #16252928	; 0xf80000
     2fa:	6013      	str	r3, [r2, #0]
     2fc:	4a08      	ldr	r2, [pc, #32]	; (320 <xPortStartScheduler+0x34>)
     2fe:	4b08      	ldr	r3, [pc, #32]	; (320 <xPortStartScheduler+0x34>)
     300:	681b      	ldr	r3, [r3, #0]
     302:	f043 4378 	orr.w	r3, r3, #4160749568	; 0xf8000000
     306:	6013      	str	r3, [r2, #0]
     308:	f000 f8f0 	bl	4ec <prvSetupMPU>
     30c:	f000 f8dc 	bl	4c8 <prvSetupTimerInterrupt>
     310:	4b04      	ldr	r3, [pc, #16]	; (324 <xPortStartScheduler+0x38>)
     312:	2200      	movs	r2, #0
     314:	601a      	str	r2, [r3, #0]
     316:	df00      	svc	0
     318:	2300      	movs	r3, #0
     31a:	4618      	mov	r0, r3
     31c:	bd80      	pop	{r7, pc}
     31e:	bf00      	nop
     320:	e000ed20 	.word	0xe000ed20
     324:	10004c58 	.word	0x10004c58

00000328 <vPortEndScheduler>:
     328:	b480      	push	{r7}
     32a:	af00      	add	r7, sp, #0
     32c:	4b06      	ldr	r3, [pc, #24]	; (348 <vPortEndScheduler+0x20>)
     32e:	681b      	ldr	r3, [r3, #0]
     330:	f5b3 7f7a 	cmp.w	r3, #1000	; 0x3e8
     334:	d004      	beq.n	340 <vPortEndScheduler+0x18>
     336:	f04f 0028 	mov.w	r0, #40	; 0x28
     33a:	f380 8811 	msr	BASEPRI, r0
     33e:	e7fe      	b.n	33e <vPortEndScheduler+0x16>
     340:	bf00      	nop
     342:	46bd      	mov	sp, r7
     344:	bc80      	pop	{r7}
     346:	4770      	bx	lr
     348:	10004c58 	.word	0x10004c58

0000034c <vPortStoreTaskMPUSettings>:
     34c:	b580      	push	{r7, lr}
     34e:	b086      	sub	sp, #24
     350:	af00      	add	r7, sp, #0
     352:	60f8      	str	r0, [r7, #12]
     354:	60b9      	str	r1, [r7, #8]
     356:	607a      	str	r2, [r7, #4]
     358:	807b      	strh	r3, [r7, #2]
     35a:	68bb      	ldr	r3, [r7, #8]
     35c:	2b00      	cmp	r3, #0
     35e:	d139      	bne.n	3d4 <vPortStoreTaskMPUSettings+0x88>
     360:	4b54      	ldr	r3, [pc, #336]	; (4b4 <vPortStoreTaskMPUSettings+0x168>)
     362:	f043 0215 	orr.w	r2, r3, #21
     366:	68fb      	ldr	r3, [r7, #12]
     368:	601a      	str	r2, [r3, #0]
     36a:	4a53      	ldr	r2, [pc, #332]	; (4b8 <vPortStoreTaskMPUSettings+0x16c>)
     36c:	4b51      	ldr	r3, [pc, #324]	; (4b4 <vPortStoreTaskMPUSettings+0x168>)
     36e:	1ad3      	subs	r3, r2, r3
     370:	4618      	mov	r0, r3
     372:	f000 f92b 	bl	5cc <prvGetMPURegionSizeSetting>
     376:	4602      	mov	r2, r0
     378:	4b50      	ldr	r3, [pc, #320]	; (4bc <vPortStoreTaskMPUSettings+0x170>)
     37a:	4313      	orrs	r3, r2
     37c:	68fa      	ldr	r2, [r7, #12]
     37e:	6053      	str	r3, [r2, #4]
     380:	4b4f      	ldr	r3, [pc, #316]	; (4c0 <vPortStoreTaskMPUSettings+0x174>)
     382:	f043 0217 	orr.w	r2, r3, #23
     386:	68fb      	ldr	r3, [r7, #12]
     388:	609a      	str	r2, [r3, #8]
     38a:	4a4e      	ldr	r2, [pc, #312]	; (4c4 <vPortStoreTaskMPUSettings+0x178>)
     38c:	4b4c      	ldr	r3, [pc, #304]	; (4c0 <vPortStoreTaskMPUSettings+0x174>)
     38e:	1ad3      	subs	r3, r2, r3
     390:	4618      	mov	r0, r3
     392:	f000 f91b 	bl	5cc <prvGetMPURegionSizeSetting>
     396:	4603      	mov	r3, r0
     398:	f043 7383 	orr.w	r3, r3, #17170432	; 0x1060000
     39c:	f043 1301 	orr.w	r3, r3, #65537	; 0x10001
     3a0:	68fa      	ldr	r2, [r7, #12]
     3a2:	60d3      	str	r3, [r2, #12]
     3a4:	2302      	movs	r3, #2
     3a6:	613b      	str	r3, [r7, #16]
     3a8:	e010      	b.n	3cc <vPortStoreTaskMPUSettings+0x80>
     3aa:	693b      	ldr	r3, [r7, #16]
     3ac:	3305      	adds	r3, #5
     3ae:	f043 0110 	orr.w	r1, r3, #16
     3b2:	68fb      	ldr	r3, [r7, #12]
     3b4:	693a      	ldr	r2, [r7, #16]
     3b6:	f843 1032 	str.w	r1, [r3, r2, lsl #3]
     3ba:	68fa      	ldr	r2, [r7, #12]
     3bc:	693b      	ldr	r3, [r7, #16]
     3be:	00db      	lsls	r3, r3, #3
     3c0:	4413      	add	r3, r2
     3c2:	2200      	movs	r2, #0
     3c4:	605a      	str	r2, [r3, #4]
     3c6:	693b      	ldr	r3, [r7, #16]
     3c8:	3301      	adds	r3, #1
     3ca:	613b      	str	r3, [r7, #16]
     3cc:	693b      	ldr	r3, [r7, #16]
     3ce:	2b03      	cmp	r3, #3
     3d0:	d9eb      	bls.n	3aa <vPortStoreTaskMPUSettings+0x5e>
     3d2:	e06b      	b.n	4ac <vPortStoreTaskMPUSettings+0x160>
     3d4:	887b      	ldrh	r3, [r7, #2]
     3d6:	2b00      	cmp	r3, #0
     3d8:	d00e      	beq.n	3f8 <vPortStoreTaskMPUSettings+0xac>
     3da:	687b      	ldr	r3, [r7, #4]
     3dc:	f043 0215 	orr.w	r2, r3, #21
     3e0:	68fb      	ldr	r3, [r7, #12]
     3e2:	601a      	str	r2, [r3, #0]
     3e4:	887b      	ldrh	r3, [r7, #2]
     3e6:	009b      	lsls	r3, r3, #2
     3e8:	4618      	mov	r0, r3
     3ea:	f000 f8ef 	bl	5cc <prvGetMPURegionSizeSetting>
     3ee:	4602      	mov	r2, r0
     3f0:	4b32      	ldr	r3, [pc, #200]	; (4bc <vPortStoreTaskMPUSettings+0x170>)
     3f2:	4313      	orrs	r3, r2
     3f4:	68fa      	ldr	r2, [r7, #12]
     3f6:	6053      	str	r3, [r2, #4]
     3f8:	2300      	movs	r3, #0
     3fa:	617b      	str	r3, [r7, #20]
     3fc:	2301      	movs	r3, #1
     3fe:	613b      	str	r3, [r7, #16]
     400:	e051      	b.n	4a6 <vPortStoreTaskMPUSettings+0x15a>
     402:	697a      	ldr	r2, [r7, #20]
     404:	4613      	mov	r3, r2
     406:	005b      	lsls	r3, r3, #1
     408:	4413      	add	r3, r2
     40a:	009b      	lsls	r3, r3, #2
     40c:	461a      	mov	r2, r3
     40e:	68bb      	ldr	r3, [r7, #8]
     410:	4413      	add	r3, r2
     412:	685b      	ldr	r3, [r3, #4]
     414:	2b00      	cmp	r3, #0
     416:	d032      	beq.n	47e <vPortStoreTaskMPUSettings+0x132>
     418:	697a      	ldr	r2, [r7, #20]
     41a:	4613      	mov	r3, r2
     41c:	005b      	lsls	r3, r3, #1
     41e:	4413      	add	r3, r2
     420:	009b      	lsls	r3, r3, #2
     422:	461a      	mov	r2, r3
     424:	68bb      	ldr	r3, [r7, #8]
     426:	4413      	add	r3, r2
     428:	681b      	ldr	r3, [r3, #0]
     42a:	461a      	mov	r2, r3
     42c:	693b      	ldr	r3, [r7, #16]
     42e:	f1c3 0305 	rsb	r3, r3, #5
     432:	4313      	orrs	r3, r2
     434:	f043 0110 	orr.w	r1, r3, #16
     438:	68fb      	ldr	r3, [r7, #12]
     43a:	693a      	ldr	r2, [r7, #16]
     43c:	f843 1032 	str.w	r1, [r3, r2, lsl #3]
     440:	697a      	ldr	r2, [r7, #20]
     442:	4613      	mov	r3, r2
     444:	005b      	lsls	r3, r3, #1
     446:	4413      	add	r3, r2
     448:	009b      	lsls	r3, r3, #2
     44a:	461a      	mov	r2, r3
     44c:	68bb      	ldr	r3, [r7, #8]
     44e:	4413      	add	r3, r2
     450:	685b      	ldr	r3, [r3, #4]
     452:	4618      	mov	r0, r3
     454:	f000 f8ba 	bl	5cc <prvGetMPURegionSizeSetting>
     458:	4601      	mov	r1, r0
     45a:	697a      	ldr	r2, [r7, #20]
     45c:	4613      	mov	r3, r2
     45e:	005b      	lsls	r3, r3, #1
     460:	4413      	add	r3, r2
     462:	009b      	lsls	r3, r3, #2
     464:	461a      	mov	r2, r3
     466:	68bb      	ldr	r3, [r7, #8]
     468:	4413      	add	r3, r2
     46a:	689b      	ldr	r3, [r3, #8]
     46c:	430b      	orrs	r3, r1
     46e:	f043 0201 	orr.w	r2, r3, #1
     472:	68f9      	ldr	r1, [r7, #12]
     474:	693b      	ldr	r3, [r7, #16]
     476:	00db      	lsls	r3, r3, #3
     478:	440b      	add	r3, r1
     47a:	605a      	str	r2, [r3, #4]
     47c:	e00d      	b.n	49a <vPortStoreTaskMPUSettings+0x14e>
     47e:	693b      	ldr	r3, [r7, #16]
     480:	3305      	adds	r3, #5
     482:	f043 0110 	orr.w	r1, r3, #16
     486:	68fb      	ldr	r3, [r7, #12]
     488:	693a      	ldr	r2, [r7, #16]
     48a:	f843 1032 	str.w	r1, [r3, r2, lsl #3]
     48e:	68fa      	ldr	r2, [r7, #12]
     490:	693b      	ldr	r3, [r7, #16]
     492:	00db      	lsls	r3, r3, #3
     494:	4413      	add	r3, r2
     496:	2200      	movs	r2, #0
     498:	605a      	str	r2, [r3, #4]
     49a:	697b      	ldr	r3, [r7, #20]
     49c:	3301      	adds	r3, #1
     49e:	617b      	str	r3, [r7, #20]
     4a0:	693b      	ldr	r3, [r7, #16]
     4a2:	3301      	adds	r3, #1
     4a4:	613b      	str	r3, [r7, #16]
     4a6:	693b      	ldr	r3, [r7, #16]
     4a8:	2b03      	cmp	r3, #3
     4aa:	d9aa      	bls.n	402 <vPortStoreTaskMPUSettings+0xb6>
     4ac:	bf00      	nop
     4ae:	3718      	adds	r7, #24
     4b0:	46bd      	mov	sp, r7
     4b2:	bd80      	pop	{r7, pc}
     4b4:	10000000 	.word	0x10000000
     4b8:	10008000 	.word	0x10008000
     4bc:	03070001 	.word	0x03070001
     4c0:	10000000 	.word	0x10000000
     4c4:	10000100 	.word	0x10000100

000004c8 <prvSetupTimerInterrupt>:
     4c8:	b480      	push	{r7}
     4ca:	af00      	add	r7, sp, #0
     4cc:	4b04      	ldr	r3, [pc, #16]	; (4e0 <prvSetupTimerInterrupt+0x18>)
     4ce:	4a05      	ldr	r2, [pc, #20]	; (4e4 <prvSetupTimerInterrupt+0x1c>)
     4d0:	601a      	str	r2, [r3, #0]
     4d2:	4b05      	ldr	r3, [pc, #20]	; (4e8 <prvSetupTimerInterrupt+0x20>)
     4d4:	2207      	movs	r2, #7
     4d6:	601a      	str	r2, [r3, #0]
     4d8:	bf00      	nop
     4da:	46bd      	mov	sp, r7
     4dc:	bc80      	pop	{r7}
     4de:	4770      	bx	lr
     4e0:	e000e014 	.word	0xe000e014
     4e4:	0001869f 	.word	0x0001869f
     4e8:	e000e010 	.word	0xe000e010

000004ec <prvSetupMPU>:
     4ec:	b598      	push	{r3, r4, r7, lr}
     4ee:	af00      	add	r7, sp, #0
     4f0:	4b29      	ldr	r3, [pc, #164]	; (598 <prvSetupMPU+0xac>)
     4f2:	681b      	ldr	r3, [r3, #0]
     4f4:	f5b3 6f00 	cmp.w	r3, #2048	; 0x800
     4f8:	d14b      	bne.n	592 <prvSetupMPU+0xa6>
     4fa:	4a28      	ldr	r2, [pc, #160]	; (59c <prvSetupMPU+0xb0>)
     4fc:	4b28      	ldr	r3, [pc, #160]	; (5a0 <prvSetupMPU+0xb4>)
     4fe:	f043 0310 	orr.w	r3, r3, #16
     502:	6013      	str	r3, [r2, #0]
     504:	4c27      	ldr	r4, [pc, #156]	; (5a4 <prvSetupMPU+0xb8>)
     506:	4a28      	ldr	r2, [pc, #160]	; (5a8 <prvSetupMPU+0xbc>)
     508:	4b25      	ldr	r3, [pc, #148]	; (5a0 <prvSetupMPU+0xb4>)
     50a:	1ad3      	subs	r3, r2, r3
     50c:	4618      	mov	r0, r3
     50e:	f000 f85d 	bl	5cc <prvGetMPURegionSizeSetting>
     512:	4602      	mov	r2, r0
     514:	4b25      	ldr	r3, [pc, #148]	; (5ac <prvSetupMPU+0xc0>)
     516:	4313      	orrs	r3, r2
     518:	6023      	str	r3, [r4, #0]
     51a:	4a20      	ldr	r2, [pc, #128]	; (59c <prvSetupMPU+0xb0>)
     51c:	4b20      	ldr	r3, [pc, #128]	; (5a0 <prvSetupMPU+0xb4>)
     51e:	f043 0316 	orr.w	r3, r3, #22
     522:	6013      	str	r3, [r2, #0]
     524:	4c1f      	ldr	r4, [pc, #124]	; (5a4 <prvSetupMPU+0xb8>)
     526:	4a22      	ldr	r2, [pc, #136]	; (5b0 <prvSetupMPU+0xc4>)
     528:	4b1d      	ldr	r3, [pc, #116]	; (5a0 <prvSetupMPU+0xb4>)
     52a:	1ad3      	subs	r3, r2, r3
     52c:	4618      	mov	r0, r3
     52e:	f000 f84d 	bl	5cc <prvGetMPURegionSizeSetting>
     532:	4602      	mov	r2, r0
     534:	4b1f      	ldr	r3, [pc, #124]	; (5b4 <prvSetupMPU+0xc8>)
     536:	4313      	orrs	r3, r2
     538:	6023      	str	r3, [r4, #0]
     53a:	4a18      	ldr	r2, [pc, #96]	; (59c <prvSetupMPU+0xb0>)
     53c:	4b1e      	ldr	r3, [pc, #120]	; (5b8 <prvSetupMPU+0xcc>)
     53e:	f043 0317 	orr.w	r3, r3, #23
     542:	6013      	str	r3, [r2, #0]
     544:	4c17      	ldr	r4, [pc, #92]	; (5a4 <prvSetupMPU+0xb8>)
     546:	4a1d      	ldr	r2, [pc, #116]	; (5bc <prvSetupMPU+0xd0>)
     548:	4b1b      	ldr	r3, [pc, #108]	; (5b8 <prvSetupMPU+0xcc>)
     54a:	1ad3      	subs	r3, r2, r3
     54c:	4618      	mov	r0, r3
     54e:	f000 f83d 	bl	5cc <prvGetMPURegionSizeSetting>
     552:	4603      	mov	r3, r0
     554:	f043 7383 	orr.w	r3, r3, #17170432	; 0x1060000
     558:	f043 1301 	orr.w	r3, r3, #65537	; 0x10001
     55c:	6023      	str	r3, [r4, #0]
     55e:	4b0f      	ldr	r3, [pc, #60]	; (59c <prvSetupMPU+0xb0>)
     560:	4a17      	ldr	r2, [pc, #92]	; (5c0 <prvSetupMPU+0xd4>)
     562:	601a      	str	r2, [r3, #0]
     564:	4c0f      	ldr	r4, [pc, #60]	; (5a4 <prvSetupMPU+0xb8>)
     566:	f06f 4060 	mvn.w	r0, #3758096384	; 0xe0000000
     56a:	f000 f82f 	bl	5cc <prvGetMPURegionSizeSetting>
     56e:	4603      	mov	r3, r0
     570:	f043 5398 	orr.w	r3, r3, #318767104	; 0x13000000
     574:	f043 0301 	orr.w	r3, r3, #1
     578:	6023      	str	r3, [r4, #0]
     57a:	4a12      	ldr	r2, [pc, #72]	; (5c4 <prvSetupMPU+0xd8>)
     57c:	4b11      	ldr	r3, [pc, #68]	; (5c4 <prvSetupMPU+0xd8>)
     57e:	681b      	ldr	r3, [r3, #0]
     580:	f443 3380 	orr.w	r3, r3, #65536	; 0x10000
     584:	6013      	str	r3, [r2, #0]
     586:	4a10      	ldr	r2, [pc, #64]	; (5c8 <prvSetupMPU+0xdc>)
     588:	4b0f      	ldr	r3, [pc, #60]	; (5c8 <prvSetupMPU+0xdc>)
     58a:	681b      	ldr	r3, [r3, #0]
     58c:	f043 0305 	orr.w	r3, r3, #5
     590:	6013      	str	r3, [r2, #0]
     592:	bf00      	nop
     594:	bd98      	pop	{r3, r4, r7, pc}
     596:	bf00      	nop
     598:	e000ed90 	.word	0xe000ed90
     59c:	e000ed9c 	.word	0xe000ed9c
     5a0:	00000000 	.word	0x00000000
     5a4:	e000eda0 	.word	0xe000eda0
     5a8:	00080000 	.word	0x00080000
     5ac:	06070001 	.word	0x06070001
     5b0:	00004000 	.word	0x00004000
     5b4:	05070001 	.word	0x05070001
     5b8:	10000000 	.word	0x10000000
     5bc:	10000100 	.word	0x10000100
     5c0:	40000011 	.word	0x40000011
     5c4:	e000ed24 	.word	0xe000ed24
     5c8:	e000ed94 	.word	0xe000ed94

000005cc <prvGetMPURegionSizeSetting>:
     5cc:	b480      	push	{r7}
     5ce:	b085      	sub	sp, #20
     5d0:	af00      	add	r7, sp, #0
     5d2:	6078      	str	r0, [r7, #4]
     5d4:	2304      	movs	r3, #4
     5d6:	60bb      	str	r3, [r7, #8]
     5d8:	2320      	movs	r3, #32
     5da:	60fb      	str	r3, [r7, #12]
     5dc:	e009      	b.n	5f2 <prvGetMPURegionSizeSetting+0x26>
     5de:	687a      	ldr	r2, [r7, #4]
     5e0:	68fb      	ldr	r3, [r7, #12]
     5e2:	429a      	cmp	r2, r3
     5e4:	d909      	bls.n	5fa <prvGetMPURegionSizeSetting+0x2e>
     5e6:	68bb      	ldr	r3, [r7, #8]
     5e8:	3301      	adds	r3, #1
     5ea:	60bb      	str	r3, [r7, #8]
     5ec:	68fb      	ldr	r3, [r7, #12]
     5ee:	005b      	lsls	r3, r3, #1
     5f0:	60fb      	str	r3, [r7, #12]
     5f2:	68bb      	ldr	r3, [r7, #8]
     5f4:	2b1e      	cmp	r3, #30
     5f6:	d9f2      	bls.n	5de <prvGetMPURegionSizeSetting+0x12>
     5f8:	e000      	b.n	5fc <prvGetMPURegionSizeSetting+0x30>
     5fa:	bf00      	nop
     5fc:	68bb      	ldr	r3, [r7, #8]
     5fe:	005b      	lsls	r3, r3, #1
     600:	4618      	mov	r0, r3
     602:	3714      	adds	r7, #20
     604:	46bd      	mov	sp, r7
     606:	bc80      	pop	{r7}
     608:	4770      	bx	lr
     60a:	bf00      	nop

0000060c <PendSV_Handler>:
     60c:	f3ef 8009 	mrs	r0, PSP
     610:	4b12      	ldr	r3, [pc, #72]	; (65c <pxCurrentTCBConst>)
     612:	681a      	ldr	r2, [r3, #0]
     614:	f3ef 8114 	mrs	r1, CONTROL
     618:	e920 0ff2 	stmdb	r0!, {r1, r4, r5, r6, r7, r8, r9, sl, fp}
     61c:	6010      	str	r0, [r2, #0]
     61e:	e92d 4008 	stmdb	sp!, {r3, lr}
     622:	f04f 0028 	mov.w	r0, #40	; 0x28
     626:	f380 8811 	msr	BASEPRI, r0
     62a:	f002 f9f7 	bl	2a1c <vTaskSwitchContext>
     62e:	f04f 0000 	mov.w	r0, #0
     632:	f380 8811 	msr	BASEPRI, r0
     636:	e8bd 4008 	ldmia.w	sp!, {r3, lr}
     63a:	6819      	ldr	r1, [r3, #0]
     63c:	6808      	ldr	r0, [r1, #0]
     63e:	f101 0104 	add.w	r1, r1, #4
     642:	4a41      	ldr	r2, [pc, #260]	; (748 <prvSVCHandler+0x68>)
     644:	e8b1 0ff0 	ldmia.w	r1!, {r4, r5, r6, r7, r8, r9, sl, fp}
     648:	e8a2 0ff0 	stmia.w	r2!, {r4, r5, r6, r7, r8, r9, sl, fp}
     64c:	e8b0 0ff8 	ldmia.w	r0!, {r3, r4, r5, r6, r7, r8, r9, sl, fp}
     650:	f383 8814 	msr	CONTROL, r3
     654:	f380 8809 	msr	PSP, r0
     658:	4770      	bx	lr
     65a:	bf00      	nop

0000065c <pxCurrentTCBConst>:
     65c:	10000050 	.word	0x10000050
     660:	bf00      	nop
     662:	bf00      	nop

00000664 <SysTick_Handler>:
     664:	b508      	push	{r3, lr}
     666:	f04f 0028 	mov.w	r0, #40	; 0x28
     66a:	f380 8811 	msr	BASEPRI, r0
     66e:	f001 ffa7 	bl	25c0 <xTaskIncrementTick>
     672:	b118      	cbz	r0, 67c <SysTick_Handler+0x18>
     674:	4b04      	ldr	r3, [pc, #16]	; (688 <SysTick_Handler+0x24>)
     676:	f04f 5280 	mov.w	r2, #268435456	; 0x10000000
     67a:	601a      	str	r2, [r3, #0]
     67c:	f04f 0000 	mov.w	r0, #0
     680:	f380 8811 	msr	BASEPRI, r0
     684:	bd08      	pop	{r3, pc}
     686:	bf00      	nop
     688:	e000ed04 	.word	0xe000ed04

0000068c <SVC_Handler>:
     68c:	f01e 0f04 	tst.w	lr, #4
     690:	bf0c      	ite	eq
     692:	f3ef 8008 	mrseq	r0, MSP
     696:	f3ef 8009 	mrsne	r0, PSP
     69a:	e021      	b.n	6e0 <prvSVCHandler>
     69c:	bf00      	nop
     69e:	bf00      	nop

000006a0 <prvRestoreContextOfFirstTask>:
     6a0:	482a      	ldr	r0, [pc, #168]	; (74c <prvSVCHandler+0x6c>)
     6a2:	6800      	ldr	r0, [r0, #0]
     6a4:	6800      	ldr	r0, [r0, #0]
     6a6:	f380 8808 	msr	MSP, r0
     6aa:	4b0b      	ldr	r3, [pc, #44]	; (6d8 <pxCurrentTCBConst2>)
     6ac:	6819      	ldr	r1, [r3, #0]
     6ae:	6808      	ldr	r0, [r1, #0]
     6b0:	f101 0104 	add.w	r1, r1, #4
     6b4:	4a24      	ldr	r2, [pc, #144]	; (748 <prvSVCHandler+0x68>)
     6b6:	e8b1 0ff0 	ldmia.w	r1!, {r4, r5, r6, r7, r8, r9, sl, fp}
     6ba:	e8a2 0ff0 	stmia.w	r2!, {r4, r5, r6, r7, r8, r9, sl, fp}
     6be:	e8b0 0ff8 	ldmia.w	r0!, {r3, r4, r5, r6, r7, r8, r9, sl, fp}
     6c2:	f383 8814 	msr	CONTROL, r3
     6c6:	f380 8809 	msr	PSP, r0
     6ca:	f04f 0000 	mov.w	r0, #0
     6ce:	f380 8811 	msr	BASEPRI, r0
     6d2:	f06f 0e02 	mvn.w	lr, #2
     6d6:	4770      	bx	lr

000006d8 <pxCurrentTCBConst2>:
     6d8:	10000050 	.word	0x10000050
     6dc:	bf00      	nop
     6de:	bf00      	nop

000006e0 <prvSVCHandler>:
     6e0:	b580      	push	{r7, lr}
     6e2:	b084      	sub	sp, #16
     6e4:	af00      	add	r7, sp, #0
     6e6:	6078      	str	r0, [r7, #4]
     6e8:	687b      	ldr	r3, [r7, #4]
     6ea:	3318      	adds	r3, #24
     6ec:	681b      	ldr	r3, [r3, #0]
     6ee:	3b02      	subs	r3, #2
     6f0:	781b      	ldrb	r3, [r3, #0]
     6f2:	73fb      	strb	r3, [r7, #15]
     6f4:	7bfb      	ldrb	r3, [r7, #15]
     6f6:	2b01      	cmp	r3, #1
     6f8:	d00d      	beq.n	716 <prvSVCHandler+0x36>
     6fa:	2b02      	cmp	r3, #2
     6fc:	d014      	beq.n	728 <prvSVCHandler+0x48>
     6fe:	2b00      	cmp	r3, #0
     700:	d000      	beq.n	704 <prvSVCHandler+0x24>
     702:	e018      	b.n	736 <prvSVCHandler+0x56>
     704:	4a0e      	ldr	r2, [pc, #56]	; (740 <prvSVCHandler+0x60>)
     706:	4b0e      	ldr	r3, [pc, #56]	; (740 <prvSVCHandler+0x60>)
     708:	681b      	ldr	r3, [r3, #0]
     70a:	f043 4378 	orr.w	r3, r3, #4160749568	; 0xf8000000
     70e:	6013      	str	r3, [r2, #0]
     710:	f7ff ffc6 	bl	6a0 <prvRestoreContextOfFirstTask>
     714:	e00f      	b.n	736 <prvSVCHandler+0x56>
     716:	4b0b      	ldr	r3, [pc, #44]	; (744 <prvSVCHandler+0x64>)
     718:	f04f 5280 	mov.w	r2, #268435456	; 0x10000000
     71c:	601a      	str	r2, [r3, #0]
     71e:	f3bf 8f4f 	dsb	sy
     722:	f3bf 8f6f 	isb	sy
     726:	e006      	b.n	736 <prvSVCHandler+0x56>
     728:	f3ef 8114 	mrs	r1, CONTROL
     72c:	f021 0101 	bic.w	r1, r1, #1
     730:	f381 8814 	msr	CONTROL, r1
     734:	bf00      	nop
     736:	bf00      	nop
     738:	3710      	adds	r7, #16
     73a:	46bd      	mov	sp, r7
     73c:	bd80      	pop	{r7, pc}
     73e:	bf00      	nop
     740:	e000ed1c 	.word	0xe000ed1c
     744:	e000ed04 	.word	0xe000ed04
     748:	e000ed9c 	.word	0xe000ed9c
     74c:	e000ed08 	.word	0xe000ed08

00000750 <xQueueGenericSend>:
     750:	b580      	push	{r7, lr}
     752:	b08a      	sub	sp, #40	; 0x28
     754:	af00      	add	r7, sp, #0
     756:	60f8      	str	r0, [r7, #12]
     758:	60b9      	str	r1, [r7, #8]
     75a:	607a      	str	r2, [r7, #4]
     75c:	603b      	str	r3, [r7, #0]
     75e:	2300      	movs	r3, #0
     760:	627b      	str	r3, [r7, #36]	; 0x24
     762:	68fb      	ldr	r3, [r7, #12]
     764:	623b      	str	r3, [r7, #32]
     766:	6a3b      	ldr	r3, [r7, #32]
     768:	2b00      	cmp	r3, #0
     76a:	d104      	bne.n	776 <xQueueGenericSend+0x26>
     76c:	f04f 0028 	mov.w	r0, #40	; 0x28
     770:	f380 8811 	msr	BASEPRI, r0
     774:	e7fe      	b.n	774 <xQueueGenericSend+0x24>
     776:	68bb      	ldr	r3, [r7, #8]
     778:	2b00      	cmp	r3, #0
     77a:	d103      	bne.n	784 <xQueueGenericSend+0x34>
     77c:	6a3b      	ldr	r3, [r7, #32]
     77e:	6c1b      	ldr	r3, [r3, #64]	; 0x40
     780:	2b00      	cmp	r3, #0
     782:	d101      	bne.n	788 <xQueueGenericSend+0x38>
     784:	2301      	movs	r3, #1
     786:	e000      	b.n	78a <xQueueGenericSend+0x3a>
     788:	2300      	movs	r3, #0
     78a:	2b00      	cmp	r3, #0
     78c:	d104      	bne.n	798 <xQueueGenericSend+0x48>
     78e:	f04f 0028 	mov.w	r0, #40	; 0x28
     792:	f380 8811 	msr	BASEPRI, r0
     796:	e7fe      	b.n	796 <xQueueGenericSend+0x46>
     798:	683b      	ldr	r3, [r7, #0]
     79a:	2b02      	cmp	r3, #2
     79c:	d103      	bne.n	7a6 <xQueueGenericSend+0x56>
     79e:	6a3b      	ldr	r3, [r7, #32]
     7a0:	6bdb      	ldr	r3, [r3, #60]	; 0x3c
     7a2:	2b01      	cmp	r3, #1
     7a4:	d101      	bne.n	7aa <xQueueGenericSend+0x5a>
     7a6:	2301      	movs	r3, #1
     7a8:	e000      	b.n	7ac <xQueueGenericSend+0x5c>
     7aa:	2300      	movs	r3, #0
     7ac:	2b00      	cmp	r3, #0
     7ae:	d104      	bne.n	7ba <xQueueGenericSend+0x6a>
     7b0:	f04f 0028 	mov.w	r0, #40	; 0x28
     7b4:	f380 8811 	msr	BASEPRI, r0
     7b8:	e7fe      	b.n	7b8 <xQueueGenericSend+0x68>
     7ba:	f002 fa6b 	bl	2c94 <xTaskGetSchedulerState>
     7be:	4603      	mov	r3, r0
     7c0:	2b00      	cmp	r3, #0
     7c2:	d102      	bne.n	7ca <xQueueGenericSend+0x7a>
     7c4:	687b      	ldr	r3, [r7, #4]
     7c6:	2b00      	cmp	r3, #0
     7c8:	d101      	bne.n	7ce <xQueueGenericSend+0x7e>
     7ca:	2301      	movs	r3, #1
     7cc:	e000      	b.n	7d0 <xQueueGenericSend+0x80>
     7ce:	2300      	movs	r3, #0
     7d0:	2b00      	cmp	r3, #0
     7d2:	d104      	bne.n	7de <xQueueGenericSend+0x8e>
     7d4:	f04f 0028 	mov.w	r0, #40	; 0x28
     7d8:	f380 8811 	msr	BASEPRI, r0
     7dc:	e7fe      	b.n	7dc <xQueueGenericSend+0x8c>
     7de:	f007 faeb 	bl	7db8 <vPortEnterCritical>
     7e2:	6a3b      	ldr	r3, [r7, #32]
     7e4:	6b9a      	ldr	r2, [r3, #56]	; 0x38
     7e6:	6a3b      	ldr	r3, [r7, #32]
     7e8:	6bdb      	ldr	r3, [r3, #60]	; 0x3c
     7ea:	429a      	cmp	r2, r3
     7ec:	d302      	bcc.n	7f4 <xQueueGenericSend+0xa4>
     7ee:	683b      	ldr	r3, [r7, #0]
     7f0:	2b02      	cmp	r3, #2
     7f2:	d121      	bne.n	838 <xQueueGenericSend+0xe8>
     7f4:	683a      	ldr	r2, [r7, #0]
     7f6:	68b9      	ldr	r1, [r7, #8]
     7f8:	6a38      	ldr	r0, [r7, #32]
     7fa:	f000 fe27 	bl	144c <prvCopyDataToQueue>
     7fe:	61f8      	str	r0, [r7, #28]
     800:	6a3b      	ldr	r3, [r7, #32]
     802:	6a5b      	ldr	r3, [r3, #36]	; 0x24
     804:	2b00      	cmp	r3, #0
     806:	d00c      	beq.n	822 <xQueueGenericSend+0xd2>
     808:	6a3b      	ldr	r3, [r7, #32]
     80a:	3324      	adds	r3, #36	; 0x24
     80c:	4618      	mov	r0, r3
     80e:	f002 f84b 	bl	28a8 <xTaskRemoveFromEventList>
     812:	4603      	mov	r3, r0
     814:	2b01      	cmp	r3, #1
     816:	d10b      	bne.n	830 <xQueueGenericSend+0xe0>
     818:	4b36      	ldr	r3, [pc, #216]	; (8f4 <xQueueGenericSend+0x1a4>)
     81a:	f04f 5280 	mov.w	r2, #268435456	; 0x10000000
     81e:	601a      	str	r2, [r3, #0]
     820:	e006      	b.n	830 <xQueueGenericSend+0xe0>
     822:	69fb      	ldr	r3, [r7, #28]
     824:	2b00      	cmp	r3, #0
     826:	d003      	beq.n	830 <xQueueGenericSend+0xe0>
     828:	4b32      	ldr	r3, [pc, #200]	; (8f4 <xQueueGenericSend+0x1a4>)
     82a:	f04f 5280 	mov.w	r2, #268435456	; 0x10000000
     82e:	601a      	str	r2, [r3, #0]
     830:	f007 fae0 	bl	7df4 <vPortExitCritical>
     834:	2301      	movs	r3, #1
     836:	e058      	b.n	8ea <xQueueGenericSend+0x19a>
     838:	687b      	ldr	r3, [r7, #4]
     83a:	2b00      	cmp	r3, #0
     83c:	d103      	bne.n	846 <xQueueGenericSend+0xf6>
     83e:	f007 fad9 	bl	7df4 <vPortExitCritical>
     842:	2300      	movs	r3, #0
     844:	e051      	b.n	8ea <xQueueGenericSend+0x19a>
     846:	6a7b      	ldr	r3, [r7, #36]	; 0x24
     848:	2b00      	cmp	r3, #0
     84a:	d106      	bne.n	85a <xQueueGenericSend+0x10a>
     84c:	f107 0314 	add.w	r3, r7, #20
     850:	4618      	mov	r0, r3
     852:	f002 f9a1 	bl	2b98 <vTaskSetTimeOutState>
     856:	2301      	movs	r3, #1
     858:	627b      	str	r3, [r7, #36]	; 0x24
     85a:	f007 facb 	bl	7df4 <vPortExitCritical>
     85e:	f001 f9e3 	bl	1c28 <vTaskSuspendAll>
     862:	f007 faa9 	bl	7db8 <vPortEnterCritical>
     866:	6a3b      	ldr	r3, [r7, #32]
     868:	6c5b      	ldr	r3, [r3, #68]	; 0x44
     86a:	f1b3 3fff 	cmp.w	r3, #4294967295
     86e:	d102      	bne.n	876 <xQueueGenericSend+0x126>
     870:	6a3b      	ldr	r3, [r7, #32]
     872:	2200      	movs	r2, #0
     874:	645a      	str	r2, [r3, #68]	; 0x44
     876:	6a3b      	ldr	r3, [r7, #32]
     878:	6c9b      	ldr	r3, [r3, #72]	; 0x48
     87a:	f1b3 3fff 	cmp.w	r3, #4294967295
     87e:	d102      	bne.n	886 <xQueueGenericSend+0x136>
     880:	6a3b      	ldr	r3, [r7, #32]
     882:	2200      	movs	r2, #0
     884:	649a      	str	r2, [r3, #72]	; 0x48
     886:	f007 fab5 	bl	7df4 <vPortExitCritical>
     88a:	1d3a      	adds	r2, r7, #4
     88c:	f107 0314 	add.w	r3, r7, #20
     890:	4611      	mov	r1, r2
     892:	4618      	mov	r0, r3
     894:	f002 f99e 	bl	2bd4 <xTaskCheckForTimeOut>
     898:	4603      	mov	r3, r0
     89a:	2b00      	cmp	r3, #0
     89c:	d11f      	bne.n	8de <xQueueGenericSend+0x18e>
     89e:	6a38      	ldr	r0, [r7, #32]
     8a0:	f000 fdbc 	bl	141c <prvIsQueueFull>
     8a4:	4603      	mov	r3, r0
     8a6:	2b00      	cmp	r3, #0
     8a8:	d013      	beq.n	8d2 <xQueueGenericSend+0x182>
     8aa:	6a3b      	ldr	r3, [r7, #32]
     8ac:	3310      	adds	r3, #16
     8ae:	687a      	ldr	r2, [r7, #4]
     8b0:	4611      	mov	r1, r2
     8b2:	4618      	mov	r0, r3
     8b4:	f001 ff3e 	bl	2734 <vTaskPlaceOnEventList>
     8b8:	6a38      	ldr	r0, [r7, #32]
     8ba:	f000 fd4d 	bl	1358 <prvUnlockQueue>
     8be:	f001 f9c1 	bl	1c44 <xTaskResumeAll>
     8c2:	4603      	mov	r3, r0
     8c4:	2b00      	cmp	r3, #0
     8c6:	d18a      	bne.n	7de <xQueueGenericSend+0x8e>
     8c8:	4b0a      	ldr	r3, [pc, #40]	; (8f4 <xQueueGenericSend+0x1a4>)
     8ca:	f04f 5280 	mov.w	r2, #268435456	; 0x10000000
     8ce:	601a      	str	r2, [r3, #0]
     8d0:	e785      	b.n	7de <xQueueGenericSend+0x8e>
     8d2:	6a38      	ldr	r0, [r7, #32]
     8d4:	f000 fd40 	bl	1358 <prvUnlockQueue>
     8d8:	f001 f9b4 	bl	1c44 <xTaskResumeAll>
     8dc:	e77f      	b.n	7de <xQueueGenericSend+0x8e>
     8de:	6a38      	ldr	r0, [r7, #32]
     8e0:	f000 fd3a 	bl	1358 <prvUnlockQueue>
     8e4:	f001 f9ae 	bl	1c44 <xTaskResumeAll>
     8e8:	2300      	movs	r3, #0
     8ea:	4618      	mov	r0, r3
     8ec:	3728      	adds	r7, #40	; 0x28
     8ee:	46bd      	mov	sp, r7
     8f0:	bd80      	pop	{r7, pc}
     8f2:	bf00      	nop
     8f4:	e000ed04 	.word	0xe000ed04

000008f8 <xQueuePeekFromISR>:
     8f8:	b580      	push	{r7, lr}
     8fa:	b086      	sub	sp, #24
     8fc:	af00      	add	r7, sp, #0
     8fe:	6078      	str	r0, [r7, #4]
     900:	6039      	str	r1, [r7, #0]
     902:	687b      	ldr	r3, [r7, #4]
     904:	613b      	str	r3, [r7, #16]
     906:	693b      	ldr	r3, [r7, #16]
     908:	2b00      	cmp	r3, #0
     90a:	d104      	bne.n	916 <xQueuePeekFromISR+0x1e>
     90c:	f04f 0028 	mov.w	r0, #40	; 0x28
     910:	f380 8811 	msr	BASEPRI, r0
     914:	e7fe      	b.n	914 <xQueuePeekFromISR+0x1c>
     916:	683b      	ldr	r3, [r7, #0]
     918:	2b00      	cmp	r3, #0
     91a:	d103      	bne.n	924 <xQueuePeekFromISR+0x2c>
     91c:	693b      	ldr	r3, [r7, #16]
     91e:	6c1b      	ldr	r3, [r3, #64]	; 0x40
     920:	2b00      	cmp	r3, #0
     922:	d101      	bne.n	928 <xQueuePeekFromISR+0x30>
     924:	2301      	movs	r3, #1
     926:	e000      	b.n	92a <xQueuePeekFromISR+0x32>
     928:	2300      	movs	r3, #0
     92a:	2b00      	cmp	r3, #0
     92c:	d104      	bne.n	938 <xQueuePeekFromISR+0x40>
     92e:	f04f 0028 	mov.w	r0, #40	; 0x28
     932:	f380 8811 	msr	BASEPRI, r0
     936:	e7fe      	b.n	936 <xQueuePeekFromISR+0x3e>
     938:	693b      	ldr	r3, [r7, #16]
     93a:	6c1b      	ldr	r3, [r3, #64]	; 0x40
     93c:	2b00      	cmp	r3, #0
     93e:	d104      	bne.n	94a <xQueuePeekFromISR+0x52>
     940:	f04f 0028 	mov.w	r0, #40	; 0x28
     944:	f380 8811 	msr	BASEPRI, r0
     948:	e7fe      	b.n	948 <xQueuePeekFromISR+0x50>
     94a:	2300      	movs	r3, #0
     94c:	60fb      	str	r3, [r7, #12]
     94e:	f04f 0028 	mov.w	r0, #40	; 0x28
     952:	f380 8811 	msr	BASEPRI, r0
     956:	693b      	ldr	r3, [r7, #16]
     958:	6b9b      	ldr	r3, [r3, #56]	; 0x38
     95a:	2b00      	cmp	r3, #0
     95c:	d00c      	beq.n	978 <xQueuePeekFromISR+0x80>
     95e:	693b      	ldr	r3, [r7, #16]
     960:	68db      	ldr	r3, [r3, #12]
     962:	60bb      	str	r3, [r7, #8]
     964:	6839      	ldr	r1, [r7, #0]
     966:	6938      	ldr	r0, [r7, #16]
     968:	f000 fddc 	bl	1524 <prvCopyDataFromQueue>
     96c:	693b      	ldr	r3, [r7, #16]
     96e:	68ba      	ldr	r2, [r7, #8]
     970:	60da      	str	r2, [r3, #12]
     972:	2301      	movs	r3, #1
     974:	617b      	str	r3, [r7, #20]
     976:	e001      	b.n	97c <xQueuePeekFromISR+0x84>
     978:	2300      	movs	r3, #0
     97a:	617b      	str	r3, [r7, #20]
     97c:	f04f 0000 	mov.w	r0, #0
     980:	f380 8811 	msr	BASEPRI, r0
     984:	697b      	ldr	r3, [r7, #20]
     986:	4618      	mov	r0, r3
     988:	3718      	adds	r7, #24
     98a:	46bd      	mov	sp, r7
     98c:	bd80      	pop	{r7, pc}
     98e:	bf00      	nop

00000990 <xQueueGenericReceive>:
     990:	b580      	push	{r7, lr}
     992:	b08a      	sub	sp, #40	; 0x28
     994:	af00      	add	r7, sp, #0
     996:	60f8      	str	r0, [r7, #12]
     998:	60b9      	str	r1, [r7, #8]
     99a:	607a      	str	r2, [r7, #4]
     99c:	603b      	str	r3, [r7, #0]
     99e:	2300      	movs	r3, #0
     9a0:	627b      	str	r3, [r7, #36]	; 0x24
     9a2:	68fb      	ldr	r3, [r7, #12]
     9a4:	623b      	str	r3, [r7, #32]
     9a6:	6a3b      	ldr	r3, [r7, #32]
     9a8:	2b00      	cmp	r3, #0
     9aa:	d104      	bne.n	9b6 <xQueueGenericReceive+0x26>
     9ac:	f04f 0028 	mov.w	r0, #40	; 0x28
     9b0:	f380 8811 	msr	BASEPRI, r0
     9b4:	e7fe      	b.n	9b4 <xQueueGenericReceive+0x24>
     9b6:	68bb      	ldr	r3, [r7, #8]
     9b8:	2b00      	cmp	r3, #0
     9ba:	d103      	bne.n	9c4 <xQueueGenericReceive+0x34>
     9bc:	6a3b      	ldr	r3, [r7, #32]
     9be:	6c1b      	ldr	r3, [r3, #64]	; 0x40
     9c0:	2b00      	cmp	r3, #0
     9c2:	d101      	bne.n	9c8 <xQueueGenericReceive+0x38>
     9c4:	2301      	movs	r3, #1
     9c6:	e000      	b.n	9ca <xQueueGenericReceive+0x3a>
     9c8:	2300      	movs	r3, #0
     9ca:	2b00      	cmp	r3, #0
     9cc:	d104      	bne.n	9d8 <xQueueGenericReceive+0x48>
     9ce:	f04f 0028 	mov.w	r0, #40	; 0x28
     9d2:	f380 8811 	msr	BASEPRI, r0
     9d6:	e7fe      	b.n	9d6 <xQueueGenericReceive+0x46>
     9d8:	f002 f95c 	bl	2c94 <xTaskGetSchedulerState>
     9dc:	4603      	mov	r3, r0
     9de:	2b00      	cmp	r3, #0
     9e0:	d102      	bne.n	9e8 <xQueueGenericReceive+0x58>
     9e2:	687b      	ldr	r3, [r7, #4]
     9e4:	2b00      	cmp	r3, #0
     9e6:	d101      	bne.n	9ec <xQueueGenericReceive+0x5c>
     9e8:	2301      	movs	r3, #1
     9ea:	e000      	b.n	9ee <xQueueGenericReceive+0x5e>
     9ec:	2300      	movs	r3, #0
     9ee:	2b00      	cmp	r3, #0
     9f0:	d104      	bne.n	9fc <xQueueGenericReceive+0x6c>
     9f2:	f04f 0028 	mov.w	r0, #40	; 0x28
     9f6:	f380 8811 	msr	BASEPRI, r0
     9fa:	e7fe      	b.n	9fa <xQueueGenericReceive+0x6a>
     9fc:	f007 f9dc 	bl	7db8 <vPortEnterCritical>
     a00:	6a3b      	ldr	r3, [r7, #32]
     a02:	6b9b      	ldr	r3, [r3, #56]	; 0x38
     a04:	2b00      	cmp	r3, #0
     a06:	d03f      	beq.n	a88 <xQueueGenericReceive+0xf8>
     a08:	6a3b      	ldr	r3, [r7, #32]
     a0a:	68db      	ldr	r3, [r3, #12]
     a0c:	61fb      	str	r3, [r7, #28]
     a0e:	68b9      	ldr	r1, [r7, #8]
     a10:	6a38      	ldr	r0, [r7, #32]
     a12:	f000 fd87 	bl	1524 <prvCopyDataFromQueue>
     a16:	683b      	ldr	r3, [r7, #0]
     a18:	2b00      	cmp	r3, #0
     a1a:	d11e      	bne.n	a5a <xQueueGenericReceive+0xca>
     a1c:	6a3b      	ldr	r3, [r7, #32]
     a1e:	6b9b      	ldr	r3, [r3, #56]	; 0x38
     a20:	1e5a      	subs	r2, r3, #1
     a22:	6a3b      	ldr	r3, [r7, #32]
     a24:	639a      	str	r2, [r3, #56]	; 0x38
     a26:	6a3b      	ldr	r3, [r7, #32]
     a28:	681b      	ldr	r3, [r3, #0]
     a2a:	2b00      	cmp	r3, #0
     a2c:	d104      	bne.n	a38 <xQueueGenericReceive+0xa8>
     a2e:	f002 fb0f 	bl	3050 <pvTaskIncrementMutexHeldCount>
     a32:	4602      	mov	r2, r0
     a34:	6a3b      	ldr	r3, [r7, #32]
     a36:	605a      	str	r2, [r3, #4]
     a38:	6a3b      	ldr	r3, [r7, #32]
     a3a:	691b      	ldr	r3, [r3, #16]
     a3c:	2b00      	cmp	r3, #0
     a3e:	d01f      	beq.n	a80 <xQueueGenericReceive+0xf0>
     a40:	6a3b      	ldr	r3, [r7, #32]
     a42:	3310      	adds	r3, #16
     a44:	4618      	mov	r0, r3
     a46:	f001 ff2f 	bl	28a8 <xTaskRemoveFromEventList>
     a4a:	4603      	mov	r3, r0
     a4c:	2b01      	cmp	r3, #1
     a4e:	d117      	bne.n	a80 <xQueueGenericReceive+0xf0>
     a50:	4b43      	ldr	r3, [pc, #268]	; (b60 <xQueueGenericReceive+0x1d0>)
     a52:	f04f 5280 	mov.w	r2, #268435456	; 0x10000000
     a56:	601a      	str	r2, [r3, #0]
     a58:	e012      	b.n	a80 <xQueueGenericReceive+0xf0>
     a5a:	6a3b      	ldr	r3, [r7, #32]
     a5c:	69fa      	ldr	r2, [r7, #28]
     a5e:	60da      	str	r2, [r3, #12]
     a60:	6a3b      	ldr	r3, [r7, #32]
     a62:	6a5b      	ldr	r3, [r3, #36]	; 0x24
     a64:	2b00      	cmp	r3, #0
     a66:	d00b      	beq.n	a80 <xQueueGenericReceive+0xf0>
     a68:	6a3b      	ldr	r3, [r7, #32]
     a6a:	3324      	adds	r3, #36	; 0x24
     a6c:	4618      	mov	r0, r3
     a6e:	f001 ff1b 	bl	28a8 <xTaskRemoveFromEventList>
     a72:	4603      	mov	r3, r0
     a74:	2b00      	cmp	r3, #0
     a76:	d003      	beq.n	a80 <xQueueGenericReceive+0xf0>
     a78:	4b39      	ldr	r3, [pc, #228]	; (b60 <xQueueGenericReceive+0x1d0>)
     a7a:	f04f 5280 	mov.w	r2, #268435456	; 0x10000000
     a7e:	601a      	str	r2, [r3, #0]
     a80:	f007 f9b8 	bl	7df4 <vPortExitCritical>
     a84:	2301      	movs	r3, #1
     a86:	e066      	b.n	b56 <xQueueGenericReceive+0x1c6>
     a88:	687b      	ldr	r3, [r7, #4]
     a8a:	2b00      	cmp	r3, #0
     a8c:	d103      	bne.n	a96 <xQueueGenericReceive+0x106>
     a8e:	f007 f9b1 	bl	7df4 <vPortExitCritical>
     a92:	2300      	movs	r3, #0
     a94:	e05f      	b.n	b56 <xQueueGenericReceive+0x1c6>
     a96:	6a7b      	ldr	r3, [r7, #36]	; 0x24
     a98:	2b00      	cmp	r3, #0
     a9a:	d106      	bne.n	aaa <xQueueGenericReceive+0x11a>
     a9c:	f107 0314 	add.w	r3, r7, #20
     aa0:	4618      	mov	r0, r3
     aa2:	f002 f879 	bl	2b98 <vTaskSetTimeOutState>
     aa6:	2301      	movs	r3, #1
     aa8:	627b      	str	r3, [r7, #36]	; 0x24
     aaa:	f007 f9a3 	bl	7df4 <vPortExitCritical>
     aae:	f001 f8bb 	bl	1c28 <vTaskSuspendAll>
     ab2:	f007 f981 	bl	7db8 <vPortEnterCritical>
     ab6:	6a3b      	ldr	r3, [r7, #32]
     ab8:	6c5b      	ldr	r3, [r3, #68]	; 0x44
     aba:	f1b3 3fff 	cmp.w	r3, #4294967295
     abe:	d102      	bne.n	ac6 <xQueueGenericReceive+0x136>
     ac0:	6a3b      	ldr	r3, [r7, #32]
     ac2:	2200      	movs	r2, #0
     ac4:	645a      	str	r2, [r3, #68]	; 0x44
     ac6:	6a3b      	ldr	r3, [r7, #32]
     ac8:	6c9b      	ldr	r3, [r3, #72]	; 0x48
     aca:	f1b3 3fff 	cmp.w	r3, #4294967295
     ace:	d102      	bne.n	ad6 <xQueueGenericReceive+0x146>
     ad0:	6a3b      	ldr	r3, [r7, #32]
     ad2:	2200      	movs	r2, #0
     ad4:	649a      	str	r2, [r3, #72]	; 0x48
     ad6:	f007 f98d 	bl	7df4 <vPortExitCritical>
     ada:	1d3a      	adds	r2, r7, #4
     adc:	f107 0314 	add.w	r3, r7, #20
     ae0:	4611      	mov	r1, r2
     ae2:	4618      	mov	r0, r3
     ae4:	f002 f876 	bl	2bd4 <xTaskCheckForTimeOut>
     ae8:	4603      	mov	r3, r0
     aea:	2b00      	cmp	r3, #0
     aec:	d12d      	bne.n	b4a <xQueueGenericReceive+0x1ba>
     aee:	6a38      	ldr	r0, [r7, #32]
     af0:	f000 fc7e 	bl	13f0 <prvIsQueueEmpty>
     af4:	4603      	mov	r3, r0
     af6:	2b00      	cmp	r3, #0
     af8:	d021      	beq.n	b3e <xQueueGenericReceive+0x1ae>
     afa:	6a3b      	ldr	r3, [r7, #32]
     afc:	681b      	ldr	r3, [r3, #0]
     afe:	2b00      	cmp	r3, #0
     b00:	d108      	bne.n	b14 <xQueueGenericReceive+0x184>
     b02:	f007 f959 	bl	7db8 <vPortEnterCritical>
     b06:	6a3b      	ldr	r3, [r7, #32]
     b08:	685b      	ldr	r3, [r3, #4]
     b0a:	4618      	mov	r0, r3
     b0c:	f002 f8e0 	bl	2cd0 <vTaskPriorityInherit>
     b10:	f007 f970 	bl	7df4 <vPortExitCritical>
     b14:	6a3b      	ldr	r3, [r7, #32]
     b16:	3324      	adds	r3, #36	; 0x24
     b18:	687a      	ldr	r2, [r7, #4]
     b1a:	4611      	mov	r1, r2
     b1c:	4618      	mov	r0, r3
     b1e:	f001 fe09 	bl	2734 <vTaskPlaceOnEventList>
     b22:	6a38      	ldr	r0, [r7, #32]
     b24:	f000 fc18 	bl	1358 <prvUnlockQueue>
     b28:	f001 f88c 	bl	1c44 <xTaskResumeAll>
     b2c:	4603      	mov	r3, r0
     b2e:	2b00      	cmp	r3, #0
     b30:	f47f af64 	bne.w	9fc <xQueueGenericReceive+0x6c>
     b34:	4b0a      	ldr	r3, [pc, #40]	; (b60 <xQueueGenericReceive+0x1d0>)
     b36:	f04f 5280 	mov.w	r2, #268435456	; 0x10000000
     b3a:	601a      	str	r2, [r3, #0]
     b3c:	e75e      	b.n	9fc <xQueueGenericReceive+0x6c>
     b3e:	6a38      	ldr	r0, [r7, #32]
     b40:	f000 fc0a 	bl	1358 <prvUnlockQueue>
     b44:	f001 f87e 	bl	1c44 <xTaskResumeAll>
     b48:	e758      	b.n	9fc <xQueueGenericReceive+0x6c>
     b4a:	6a38      	ldr	r0, [r7, #32]
     b4c:	f000 fc04 	bl	1358 <prvUnlockQueue>
     b50:	f001 f878 	bl	1c44 <xTaskResumeAll>
     b54:	2300      	movs	r3, #0
     b56:	4618      	mov	r0, r3
     b58:	3728      	adds	r7, #40	; 0x28
     b5a:	46bd      	mov	sp, r7
     b5c:	bd80      	pop	{r7, pc}
     b5e:	bf00      	nop
     b60:	e000ed04 	.word	0xe000ed04

00000b64 <uxQueueMessagesWaiting>:
     b64:	b580      	push	{r7, lr}
     b66:	b084      	sub	sp, #16
     b68:	af00      	add	r7, sp, #0
     b6a:	6078      	str	r0, [r7, #4]
     b6c:	687b      	ldr	r3, [r7, #4]
     b6e:	2b00      	cmp	r3, #0
     b70:	d104      	bne.n	b7c <uxQueueMessagesWaiting+0x18>
     b72:	f04f 0028 	mov.w	r0, #40	; 0x28
     b76:	f380 8811 	msr	BASEPRI, r0
     b7a:	e7fe      	b.n	b7a <uxQueueMessagesWaiting+0x16>
     b7c:	f007 f91c 	bl	7db8 <vPortEnterCritical>
     b80:	687b      	ldr	r3, [r7, #4]
     b82:	6b9b      	ldr	r3, [r3, #56]	; 0x38
     b84:	60fb      	str	r3, [r7, #12]
     b86:	f007 f935 	bl	7df4 <vPortExitCritical>
     b8a:	68fb      	ldr	r3, [r7, #12]
     b8c:	4618      	mov	r0, r3
     b8e:	3710      	adds	r7, #16
     b90:	46bd      	mov	sp, r7
     b92:	bd80      	pop	{r7, pc}

00000b94 <uxQueueSpacesAvailable>:
     b94:	b580      	push	{r7, lr}
     b96:	b084      	sub	sp, #16
     b98:	af00      	add	r7, sp, #0
     b9a:	6078      	str	r0, [r7, #4]
     b9c:	687b      	ldr	r3, [r7, #4]
     b9e:	60fb      	str	r3, [r7, #12]
     ba0:	68fb      	ldr	r3, [r7, #12]
     ba2:	2b00      	cmp	r3, #0
     ba4:	d104      	bne.n	bb0 <uxQueueSpacesAvailable+0x1c>
     ba6:	f04f 0028 	mov.w	r0, #40	; 0x28
     baa:	f380 8811 	msr	BASEPRI, r0
     bae:	e7fe      	b.n	bae <uxQueueSpacesAvailable+0x1a>
     bb0:	f007 f902 	bl	7db8 <vPortEnterCritical>
     bb4:	68fb      	ldr	r3, [r7, #12]
     bb6:	6bda      	ldr	r2, [r3, #60]	; 0x3c
     bb8:	68fb      	ldr	r3, [r7, #12]
     bba:	6b9b      	ldr	r3, [r3, #56]	; 0x38
     bbc:	1ad3      	subs	r3, r2, r3
     bbe:	60bb      	str	r3, [r7, #8]
     bc0:	f007 f918 	bl	7df4 <vPortExitCritical>
     bc4:	68bb      	ldr	r3, [r7, #8]
     bc6:	4618      	mov	r0, r3
     bc8:	3710      	adds	r7, #16
     bca:	46bd      	mov	sp, r7
     bcc:	bd80      	pop	{r7, pc}
     bce:	bf00      	nop

00000bd0 <vQueueDelete>:
     bd0:	b580      	push	{r7, lr}
     bd2:	b084      	sub	sp, #16
     bd4:	af00      	add	r7, sp, #0
     bd6:	6078      	str	r0, [r7, #4]
     bd8:	687b      	ldr	r3, [r7, #4]
     bda:	60fb      	str	r3, [r7, #12]
     bdc:	68fb      	ldr	r3, [r7, #12]
     bde:	2b00      	cmp	r3, #0
     be0:	d104      	bne.n	bec <vQueueDelete+0x1c>
     be2:	f04f 0028 	mov.w	r0, #40	; 0x28
     be6:	f380 8811 	msr	BASEPRI, r0
     bea:	e7fe      	b.n	bea <vQueueDelete+0x1a>
     bec:	68f8      	ldr	r0, [r7, #12]
     bee:	f000 fa8f 	bl	1110 <vQueueUnregisterQueue>
     bf2:	68f8      	ldr	r0, [r7, #12]
     bf4:	f7ff fafc 	bl	1f0 <vPortFree>
     bf8:	bf00      	nop
     bfa:	3710      	adds	r7, #16
     bfc:	46bd      	mov	sp, r7
     bfe:	bd80      	pop	{r7, pc}

00000c00 <xQueueGenericSendFromISR>:
     c00:	b580      	push	{r7, lr}
     c02:	b088      	sub	sp, #32
     c04:	af00      	add	r7, sp, #0
     c06:	60f8      	str	r0, [r7, #12]
     c08:	60b9      	str	r1, [r7, #8]
     c0a:	607a      	str	r2, [r7, #4]
     c0c:	603b      	str	r3, [r7, #0]
     c0e:	68fb      	ldr	r3, [r7, #12]
     c10:	61bb      	str	r3, [r7, #24]
     c12:	69bb      	ldr	r3, [r7, #24]
     c14:	2b00      	cmp	r3, #0
     c16:	d104      	bne.n	c22 <xQueueGenericSendFromISR+0x22>
     c18:	f04f 0028 	mov.w	r0, #40	; 0x28
     c1c:	f380 8811 	msr	BASEPRI, r0
     c20:	e7fe      	b.n	c20 <xQueueGenericSendFromISR+0x20>
     c22:	68bb      	ldr	r3, [r7, #8]
     c24:	2b00      	cmp	r3, #0
     c26:	d103      	bne.n	c30 <xQueueGenericSendFromISR+0x30>
     c28:	69bb      	ldr	r3, [r7, #24]
     c2a:	6c1b      	ldr	r3, [r3, #64]	; 0x40
     c2c:	2b00      	cmp	r3, #0
     c2e:	d101      	bne.n	c34 <xQueueGenericSendFromISR+0x34>
     c30:	2301      	movs	r3, #1
     c32:	e000      	b.n	c36 <xQueueGenericSendFromISR+0x36>
     c34:	2300      	movs	r3, #0
     c36:	2b00      	cmp	r3, #0
     c38:	d104      	bne.n	c44 <xQueueGenericSendFromISR+0x44>
     c3a:	f04f 0028 	mov.w	r0, #40	; 0x28
     c3e:	f380 8811 	msr	BASEPRI, r0
     c42:	e7fe      	b.n	c42 <xQueueGenericSendFromISR+0x42>
     c44:	683b      	ldr	r3, [r7, #0]
     c46:	2b02      	cmp	r3, #2
     c48:	d103      	bne.n	c52 <xQueueGenericSendFromISR+0x52>
     c4a:	69bb      	ldr	r3, [r7, #24]
     c4c:	6bdb      	ldr	r3, [r3, #60]	; 0x3c
     c4e:	2b01      	cmp	r3, #1
     c50:	d101      	bne.n	c56 <xQueueGenericSendFromISR+0x56>
     c52:	2301      	movs	r3, #1
     c54:	e000      	b.n	c58 <xQueueGenericSendFromISR+0x58>
     c56:	2300      	movs	r3, #0
     c58:	2b00      	cmp	r3, #0
     c5a:	d104      	bne.n	c66 <xQueueGenericSendFromISR+0x66>
     c5c:	f04f 0028 	mov.w	r0, #40	; 0x28
     c60:	f380 8811 	msr	BASEPRI, r0
     c64:	e7fe      	b.n	c64 <xQueueGenericSendFromISR+0x64>
     c66:	2300      	movs	r3, #0
     c68:	617b      	str	r3, [r7, #20]
     c6a:	f04f 0028 	mov.w	r0, #40	; 0x28
     c6e:	f380 8811 	msr	BASEPRI, r0
     c72:	69bb      	ldr	r3, [r7, #24]
     c74:	6b9a      	ldr	r2, [r3, #56]	; 0x38
     c76:	69bb      	ldr	r3, [r7, #24]
     c78:	6bdb      	ldr	r3, [r3, #60]	; 0x3c
     c7a:	429a      	cmp	r2, r3
     c7c:	d302      	bcc.n	c84 <xQueueGenericSendFromISR+0x84>
     c7e:	683b      	ldr	r3, [r7, #0]
     c80:	2b02      	cmp	r3, #2
     c82:	d124      	bne.n	cce <xQueueGenericSendFromISR+0xce>
     c84:	683a      	ldr	r2, [r7, #0]
     c86:	68b9      	ldr	r1, [r7, #8]
     c88:	69b8      	ldr	r0, [r7, #24]
     c8a:	f000 fbdf 	bl	144c <prvCopyDataToQueue>
     c8e:	69bb      	ldr	r3, [r7, #24]
     c90:	6c9b      	ldr	r3, [r3, #72]	; 0x48
     c92:	f1b3 3fff 	cmp.w	r3, #4294967295
     c96:	d112      	bne.n	cbe <xQueueGenericSendFromISR+0xbe>
     c98:	69bb      	ldr	r3, [r7, #24]
     c9a:	6a5b      	ldr	r3, [r3, #36]	; 0x24
     c9c:	2b00      	cmp	r3, #0
     c9e:	d013      	beq.n	cc8 <xQueueGenericSendFromISR+0xc8>
     ca0:	69bb      	ldr	r3, [r7, #24]
     ca2:	3324      	adds	r3, #36	; 0x24
     ca4:	4618      	mov	r0, r3
     ca6:	f001 fdff 	bl	28a8 <xTaskRemoveFromEventList>
     caa:	4603      	mov	r3, r0
     cac:	2b00      	cmp	r3, #0
     cae:	d00b      	beq.n	cc8 <xQueueGenericSendFromISR+0xc8>
     cb0:	687b      	ldr	r3, [r7, #4]
     cb2:	2b00      	cmp	r3, #0
     cb4:	d008      	beq.n	cc8 <xQueueGenericSendFromISR+0xc8>
     cb6:	687b      	ldr	r3, [r7, #4]
     cb8:	2201      	movs	r2, #1
     cba:	601a      	str	r2, [r3, #0]
     cbc:	e004      	b.n	cc8 <xQueueGenericSendFromISR+0xc8>
     cbe:	69bb      	ldr	r3, [r7, #24]
     cc0:	6c9b      	ldr	r3, [r3, #72]	; 0x48
     cc2:	1c5a      	adds	r2, r3, #1
     cc4:	69bb      	ldr	r3, [r7, #24]
     cc6:	649a      	str	r2, [r3, #72]	; 0x48
     cc8:	2301      	movs	r3, #1
     cca:	61fb      	str	r3, [r7, #28]
     ccc:	e001      	b.n	cd2 <xQueueGenericSendFromISR+0xd2>
     cce:	2300      	movs	r3, #0
     cd0:	61fb      	str	r3, [r7, #28]
     cd2:	f04f 0000 	mov.w	r0, #0
     cd6:	f380 8811 	msr	BASEPRI, r0
     cda:	69fb      	ldr	r3, [r7, #28]
     cdc:	4618      	mov	r0, r3
     cde:	3720      	adds	r7, #32
     ce0:	46bd      	mov	sp, r7
     ce2:	bd80      	pop	{r7, pc}

00000ce4 <xQueueGiveFromISR>:
     ce4:	b580      	push	{r7, lr}
     ce6:	b086      	sub	sp, #24
     ce8:	af00      	add	r7, sp, #0
     cea:	6078      	str	r0, [r7, #4]
     cec:	6039      	str	r1, [r7, #0]
     cee:	687b      	ldr	r3, [r7, #4]
     cf0:	613b      	str	r3, [r7, #16]
     cf2:	693b      	ldr	r3, [r7, #16]
     cf4:	2b00      	cmp	r3, #0
     cf6:	d104      	bne.n	d02 <xQueueGiveFromISR+0x1e>
     cf8:	f04f 0028 	mov.w	r0, #40	; 0x28
     cfc:	f380 8811 	msr	BASEPRI, r0
     d00:	e7fe      	b.n	d00 <xQueueGiveFromISR+0x1c>
     d02:	693b      	ldr	r3, [r7, #16]
     d04:	6c1b      	ldr	r3, [r3, #64]	; 0x40
     d06:	2b00      	cmp	r3, #0
     d08:	d004      	beq.n	d14 <xQueueGiveFromISR+0x30>
     d0a:	f04f 0028 	mov.w	r0, #40	; 0x28
     d0e:	f380 8811 	msr	BASEPRI, r0
     d12:	e7fe      	b.n	d12 <xQueueGiveFromISR+0x2e>
     d14:	2300      	movs	r3, #0
     d16:	60fb      	str	r3, [r7, #12]
     d18:	f04f 0028 	mov.w	r0, #40	; 0x28
     d1c:	f380 8811 	msr	BASEPRI, r0
     d20:	693b      	ldr	r3, [r7, #16]
     d22:	6b9a      	ldr	r2, [r3, #56]	; 0x38
     d24:	693b      	ldr	r3, [r7, #16]
     d26:	6bdb      	ldr	r3, [r3, #60]	; 0x3c
     d28:	429a      	cmp	r2, r3
     d2a:	d224      	bcs.n	d76 <xQueueGiveFromISR+0x92>
     d2c:	693b      	ldr	r3, [r7, #16]
     d2e:	6b9b      	ldr	r3, [r3, #56]	; 0x38
     d30:	1c5a      	adds	r2, r3, #1
     d32:	693b      	ldr	r3, [r7, #16]
     d34:	639a      	str	r2, [r3, #56]	; 0x38
     d36:	693b      	ldr	r3, [r7, #16]
     d38:	6c9b      	ldr	r3, [r3, #72]	; 0x48
     d3a:	f1b3 3fff 	cmp.w	r3, #4294967295
     d3e:	d112      	bne.n	d66 <xQueueGiveFromISR+0x82>
     d40:	693b      	ldr	r3, [r7, #16]
     d42:	6a5b      	ldr	r3, [r3, #36]	; 0x24
     d44:	2b00      	cmp	r3, #0
     d46:	d013      	beq.n	d70 <xQueueGiveFromISR+0x8c>
     d48:	693b      	ldr	r3, [r7, #16]
     d4a:	3324      	adds	r3, #36	; 0x24
     d4c:	4618      	mov	r0, r3
     d4e:	f001 fdab 	bl	28a8 <xTaskRemoveFromEventList>
     d52:	4603      	mov	r3, r0
     d54:	2b00      	cmp	r3, #0
     d56:	d00b      	beq.n	d70 <xQueueGiveFromISR+0x8c>
     d58:	683b      	ldr	r3, [r7, #0]
     d5a:	2b00      	cmp	r3, #0
     d5c:	d008      	beq.n	d70 <xQueueGiveFromISR+0x8c>
     d5e:	683b      	ldr	r3, [r7, #0]
     d60:	2201      	movs	r2, #1
     d62:	601a      	str	r2, [r3, #0]
     d64:	e004      	b.n	d70 <xQueueGiveFromISR+0x8c>
     d66:	693b      	ldr	r3, [r7, #16]
     d68:	6c9b      	ldr	r3, [r3, #72]	; 0x48
     d6a:	1c5a      	adds	r2, r3, #1
     d6c:	693b      	ldr	r3, [r7, #16]
     d6e:	649a      	str	r2, [r3, #72]	; 0x48
     d70:	2301      	movs	r3, #1
     d72:	617b      	str	r3, [r7, #20]
     d74:	e001      	b.n	d7a <xQueueGiveFromISR+0x96>
     d76:	2300      	movs	r3, #0
     d78:	617b      	str	r3, [r7, #20]
     d7a:	f04f 0000 	mov.w	r0, #0
     d7e:	f380 8811 	msr	BASEPRI, r0
     d82:	697b      	ldr	r3, [r7, #20]
     d84:	4618      	mov	r0, r3
     d86:	3718      	adds	r7, #24
     d88:	46bd      	mov	sp, r7
     d8a:	bd80      	pop	{r7, pc}

00000d8c <xQueueReceiveFromISR>:
     d8c:	b580      	push	{r7, lr}
     d8e:	b088      	sub	sp, #32
     d90:	af00      	add	r7, sp, #0
     d92:	60f8      	str	r0, [r7, #12]
     d94:	60b9      	str	r1, [r7, #8]
     d96:	607a      	str	r2, [r7, #4]
     d98:	68fb      	ldr	r3, [r7, #12]
     d9a:	61bb      	str	r3, [r7, #24]
     d9c:	69bb      	ldr	r3, [r7, #24]
     d9e:	2b00      	cmp	r3, #0
     da0:	d104      	bne.n	dac <xQueueReceiveFromISR+0x20>
     da2:	f04f 0028 	mov.w	r0, #40	; 0x28
     da6:	f380 8811 	msr	BASEPRI, r0
     daa:	e7fe      	b.n	daa <xQueueReceiveFromISR+0x1e>
     dac:	68bb      	ldr	r3, [r7, #8]
     dae:	2b00      	cmp	r3, #0
     db0:	d103      	bne.n	dba <xQueueReceiveFromISR+0x2e>
     db2:	69bb      	ldr	r3, [r7, #24]
     db4:	6c1b      	ldr	r3, [r3, #64]	; 0x40
     db6:	2b00      	cmp	r3, #0
     db8:	d101      	bne.n	dbe <xQueueReceiveFromISR+0x32>
     dba:	2301      	movs	r3, #1
     dbc:	e000      	b.n	dc0 <xQueueReceiveFromISR+0x34>
     dbe:	2300      	movs	r3, #0
     dc0:	2b00      	cmp	r3, #0
     dc2:	d104      	bne.n	dce <xQueueReceiveFromISR+0x42>
     dc4:	f04f 0028 	mov.w	r0, #40	; 0x28
     dc8:	f380 8811 	msr	BASEPRI, r0
     dcc:	e7fe      	b.n	dcc <xQueueReceiveFromISR+0x40>
     dce:	2300      	movs	r3, #0
     dd0:	617b      	str	r3, [r7, #20]
     dd2:	f04f 0028 	mov.w	r0, #40	; 0x28
     dd6:	f380 8811 	msr	BASEPRI, r0
     dda:	69bb      	ldr	r3, [r7, #24]
     ddc:	6b9b      	ldr	r3, [r3, #56]	; 0x38
     dde:	2b00      	cmp	r3, #0
     de0:	d028      	beq.n	e34 <xQueueReceiveFromISR+0xa8>
     de2:	68b9      	ldr	r1, [r7, #8]
     de4:	69b8      	ldr	r0, [r7, #24]
     de6:	f000 fb9d 	bl	1524 <prvCopyDataFromQueue>
     dea:	69bb      	ldr	r3, [r7, #24]
     dec:	6b9b      	ldr	r3, [r3, #56]	; 0x38
     dee:	1e5a      	subs	r2, r3, #1
     df0:	69bb      	ldr	r3, [r7, #24]
     df2:	639a      	str	r2, [r3, #56]	; 0x38
     df4:	69bb      	ldr	r3, [r7, #24]
     df6:	6c5b      	ldr	r3, [r3, #68]	; 0x44
     df8:	f1b3 3fff 	cmp.w	r3, #4294967295
     dfc:	d112      	bne.n	e24 <xQueueReceiveFromISR+0x98>
     dfe:	69bb      	ldr	r3, [r7, #24]
     e00:	691b      	ldr	r3, [r3, #16]
     e02:	2b00      	cmp	r3, #0
     e04:	d013      	beq.n	e2e <xQueueReceiveFromISR+0xa2>
     e06:	69bb      	ldr	r3, [r7, #24]
     e08:	3310      	adds	r3, #16
     e0a:	4618      	mov	r0, r3
     e0c:	f001 fd4c 	bl	28a8 <xTaskRemoveFromEventList>
     e10:	4603      	mov	r3, r0
     e12:	2b00      	cmp	r3, #0
     e14:	d00b      	beq.n	e2e <xQueueReceiveFromISR+0xa2>
     e16:	687b      	ldr	r3, [r7, #4]
     e18:	2b00      	cmp	r3, #0
     e1a:	d008      	beq.n	e2e <xQueueReceiveFromISR+0xa2>
     e1c:	687b      	ldr	r3, [r7, #4]
     e1e:	2201      	movs	r2, #1
     e20:	601a      	str	r2, [r3, #0]
     e22:	e004      	b.n	e2e <xQueueReceiveFromISR+0xa2>
     e24:	69bb      	ldr	r3, [r7, #24]
     e26:	6c5b      	ldr	r3, [r3, #68]	; 0x44
     e28:	1c5a      	adds	r2, r3, #1
     e2a:	69bb      	ldr	r3, [r7, #24]
     e2c:	645a      	str	r2, [r3, #68]	; 0x44
     e2e:	2301      	movs	r3, #1
     e30:	61fb      	str	r3, [r7, #28]
     e32:	e001      	b.n	e38 <xQueueReceiveFromISR+0xac>
     e34:	2300      	movs	r3, #0
     e36:	61fb      	str	r3, [r7, #28]
     e38:	f04f 0000 	mov.w	r0, #0
     e3c:	f380 8811 	msr	BASEPRI, r0
     e40:	69fb      	ldr	r3, [r7, #28]
     e42:	4618      	mov	r0, r3
     e44:	3720      	adds	r7, #32
     e46:	46bd      	mov	sp, r7
     e48:	bd80      	pop	{r7, pc}
     e4a:	bf00      	nop

00000e4c <xQueueIsQueueEmptyFromISR>:
     e4c:	b480      	push	{r7}
     e4e:	b085      	sub	sp, #20
     e50:	af00      	add	r7, sp, #0
     e52:	6078      	str	r0, [r7, #4]
     e54:	687b      	ldr	r3, [r7, #4]
     e56:	2b00      	cmp	r3, #0
     e58:	d104      	bne.n	e64 <xQueueIsQueueEmptyFromISR+0x18>
     e5a:	f04f 0028 	mov.w	r0, #40	; 0x28
     e5e:	f380 8811 	msr	BASEPRI, r0
     e62:	e7fe      	b.n	e62 <xQueueIsQueueEmptyFromISR+0x16>
     e64:	687b      	ldr	r3, [r7, #4]
     e66:	6b9b      	ldr	r3, [r3, #56]	; 0x38
     e68:	2b00      	cmp	r3, #0
     e6a:	d102      	bne.n	e72 <xQueueIsQueueEmptyFromISR+0x26>
     e6c:	2301      	movs	r3, #1
     e6e:	60fb      	str	r3, [r7, #12]
     e70:	e001      	b.n	e76 <xQueueIsQueueEmptyFromISR+0x2a>
     e72:	2300      	movs	r3, #0
     e74:	60fb      	str	r3, [r7, #12]
     e76:	68fb      	ldr	r3, [r7, #12]
     e78:	4618      	mov	r0, r3
     e7a:	3714      	adds	r7, #20
     e7c:	46bd      	mov	sp, r7
     e7e:	bc80      	pop	{r7}
     e80:	4770      	bx	lr
     e82:	bf00      	nop

00000e84 <xQueueIsQueueFullFromISR>:
     e84:	b480      	push	{r7}
     e86:	b085      	sub	sp, #20
     e88:	af00      	add	r7, sp, #0
     e8a:	6078      	str	r0, [r7, #4]
     e8c:	687b      	ldr	r3, [r7, #4]
     e8e:	2b00      	cmp	r3, #0
     e90:	d104      	bne.n	e9c <xQueueIsQueueFullFromISR+0x18>
     e92:	f04f 0028 	mov.w	r0, #40	; 0x28
     e96:	f380 8811 	msr	BASEPRI, r0
     e9a:	e7fe      	b.n	e9a <xQueueIsQueueFullFromISR+0x16>
     e9c:	687b      	ldr	r3, [r7, #4]
     e9e:	6b9a      	ldr	r2, [r3, #56]	; 0x38
     ea0:	687b      	ldr	r3, [r7, #4]
     ea2:	6bdb      	ldr	r3, [r3, #60]	; 0x3c
     ea4:	429a      	cmp	r2, r3
     ea6:	d102      	bne.n	eae <xQueueIsQueueFullFromISR+0x2a>
     ea8:	2301      	movs	r3, #1
     eaa:	60fb      	str	r3, [r7, #12]
     eac:	e001      	b.n	eb2 <xQueueIsQueueFullFromISR+0x2e>
     eae:	2300      	movs	r3, #0
     eb0:	60fb      	str	r3, [r7, #12]
     eb2:	68fb      	ldr	r3, [r7, #12]
     eb4:	4618      	mov	r0, r3
     eb6:	3714      	adds	r7, #20
     eb8:	46bd      	mov	sp, r7
     eba:	bc80      	pop	{r7}
     ebc:	4770      	bx	lr
     ebe:	bf00      	nop

00000ec0 <uxQueueMessagesWaitingFromISR>:
     ec0:	b480      	push	{r7}
     ec2:	b085      	sub	sp, #20
     ec4:	af00      	add	r7, sp, #0
     ec6:	6078      	str	r0, [r7, #4]
     ec8:	687b      	ldr	r3, [r7, #4]
     eca:	2b00      	cmp	r3, #0
     ecc:	d104      	bne.n	ed8 <uxQueueMessagesWaitingFromISR+0x18>
     ece:	f04f 0028 	mov.w	r0, #40	; 0x28
     ed2:	f380 8811 	msr	BASEPRI, r0
     ed6:	e7fe      	b.n	ed6 <uxQueueMessagesWaitingFromISR+0x16>
     ed8:	687b      	ldr	r3, [r7, #4]
     eda:	6b9b      	ldr	r3, [r3, #56]	; 0x38
     edc:	60fb      	str	r3, [r7, #12]
     ede:	68fb      	ldr	r3, [r7, #12]
     ee0:	4618      	mov	r0, r3
     ee2:	3714      	adds	r7, #20
     ee4:	46bd      	mov	sp, r7
     ee6:	bc80      	pop	{r7}
     ee8:	4770      	bx	lr
     eea:	bf00      	nop

00000eec <xQueueCreateMutex>:
     eec:	b580      	push	{r7, lr}
     eee:	b084      	sub	sp, #16
     ef0:	af00      	add	r7, sp, #0
     ef2:	4603      	mov	r3, r0
     ef4:	71fb      	strb	r3, [r7, #7]
     ef6:	2054      	movs	r0, #84	; 0x54
     ef8:	f7ff f8e8 	bl	cc <pvPortMalloc>
     efc:	60f8      	str	r0, [r7, #12]
     efe:	68fb      	ldr	r3, [r7, #12]
     f00:	2b00      	cmp	r3, #0
     f02:	d030      	beq.n	f66 <xQueueCreateMutex+0x7a>
     f04:	68fb      	ldr	r3, [r7, #12]
     f06:	2200      	movs	r2, #0
     f08:	605a      	str	r2, [r3, #4]
     f0a:	68fb      	ldr	r3, [r7, #12]
     f0c:	2200      	movs	r2, #0
     f0e:	601a      	str	r2, [r3, #0]
     f10:	68fb      	ldr	r3, [r7, #12]
     f12:	2200      	movs	r2, #0
     f14:	609a      	str	r2, [r3, #8]
     f16:	68fb      	ldr	r3, [r7, #12]
     f18:	2200      	movs	r2, #0
     f1a:	60da      	str	r2, [r3, #12]
     f1c:	68fb      	ldr	r3, [r7, #12]
     f1e:	2200      	movs	r2, #0
     f20:	639a      	str	r2, [r3, #56]	; 0x38
     f22:	68fb      	ldr	r3, [r7, #12]
     f24:	2201      	movs	r2, #1
     f26:	63da      	str	r2, [r3, #60]	; 0x3c
     f28:	68fb      	ldr	r3, [r7, #12]
     f2a:	2200      	movs	r2, #0
     f2c:	641a      	str	r2, [r3, #64]	; 0x40
     f2e:	68fb      	ldr	r3, [r7, #12]
     f30:	f04f 32ff 	mov.w	r2, #4294967295
     f34:	645a      	str	r2, [r3, #68]	; 0x44
     f36:	68fb      	ldr	r3, [r7, #12]
     f38:	f04f 32ff 	mov.w	r2, #4294967295
     f3c:	649a      	str	r2, [r3, #72]	; 0x48
     f3e:	68fb      	ldr	r3, [r7, #12]
     f40:	79fa      	ldrb	r2, [r7, #7]
     f42:	f883 2050 	strb.w	r2, [r3, #80]	; 0x50
     f46:	68fb      	ldr	r3, [r7, #12]
     f48:	3310      	adds	r3, #16
     f4a:	4618      	mov	r0, r3
     f4c:	f007 f94e 	bl	81ec <vListInitialise>
     f50:	68fb      	ldr	r3, [r7, #12]
     f52:	3324      	adds	r3, #36	; 0x24
     f54:	4618      	mov	r0, r3
     f56:	f007 f949 	bl	81ec <vListInitialise>
     f5a:	2300      	movs	r3, #0
     f5c:	2200      	movs	r2, #0
     f5e:	2100      	movs	r1, #0
     f60:	68f8      	ldr	r0, [r7, #12]
     f62:	f7ff fbf5 	bl	750 <xQueueGenericSend>
     f66:	68fb      	ldr	r3, [r7, #12]
     f68:	4618      	mov	r0, r3
     f6a:	3710      	adds	r7, #16
     f6c:	46bd      	mov	sp, r7
     f6e:	bd80      	pop	{r7, pc}

00000f70 <xQueueCreateCountingSemaphore>:
     f70:	b580      	push	{r7, lr}
     f72:	b084      	sub	sp, #16
     f74:	af00      	add	r7, sp, #0
     f76:	6078      	str	r0, [r7, #4]
     f78:	6039      	str	r1, [r7, #0]
     f7a:	687b      	ldr	r3, [r7, #4]
     f7c:	2b00      	cmp	r3, #0
     f7e:	d104      	bne.n	f8a <xQueueCreateCountingSemaphore+0x1a>
     f80:	f04f 0028 	mov.w	r0, #40	; 0x28
     f84:	f380 8811 	msr	BASEPRI, r0
     f88:	e7fe      	b.n	f88 <xQueueCreateCountingSemaphore+0x18>
     f8a:	683a      	ldr	r2, [r7, #0]
     f8c:	687b      	ldr	r3, [r7, #4]
     f8e:	429a      	cmp	r2, r3
     f90:	d904      	bls.n	f9c <xQueueCreateCountingSemaphore+0x2c>
     f92:	f04f 0028 	mov.w	r0, #40	; 0x28
     f96:	f380 8811 	msr	BASEPRI, r0
     f9a:	e7fe      	b.n	f9a <xQueueCreateCountingSemaphore+0x2a>
     f9c:	2202      	movs	r2, #2
     f9e:	2100      	movs	r1, #0
     fa0:	6878      	ldr	r0, [r7, #4]
     fa2:	f000 f8d7 	bl	1154 <xQueueGenericCreate>
     fa6:	60f8      	str	r0, [r7, #12]
     fa8:	68fb      	ldr	r3, [r7, #12]
     faa:	2b00      	cmp	r3, #0
     fac:	d002      	beq.n	fb4 <xQueueCreateCountingSemaphore+0x44>
     fae:	68fb      	ldr	r3, [r7, #12]
     fb0:	683a      	ldr	r2, [r7, #0]
     fb2:	639a      	str	r2, [r3, #56]	; 0x38
     fb4:	68fb      	ldr	r3, [r7, #12]
     fb6:	2b00      	cmp	r3, #0
     fb8:	d104      	bne.n	fc4 <xQueueCreateCountingSemaphore+0x54>
     fba:	f04f 0028 	mov.w	r0, #40	; 0x28
     fbe:	f380 8811 	msr	BASEPRI, r0
     fc2:	e7fe      	b.n	fc2 <xQueueCreateCountingSemaphore+0x52>
     fc4:	68fb      	ldr	r3, [r7, #12]
     fc6:	4618      	mov	r0, r3
     fc8:	3710      	adds	r7, #16
     fca:	46bd      	mov	sp, r7
     fcc:	bd80      	pop	{r7, pc}
     fce:	bf00      	nop

00000fd0 <xQueueGetMutexHolder>:
     fd0:	b580      	push	{r7, lr}
     fd2:	b084      	sub	sp, #16
     fd4:	af00      	add	r7, sp, #0
     fd6:	6078      	str	r0, [r7, #4]
     fd8:	f006 feee 	bl	7db8 <vPortEnterCritical>
     fdc:	687b      	ldr	r3, [r7, #4]
     fde:	681b      	ldr	r3, [r3, #0]
     fe0:	2b00      	cmp	r3, #0
     fe2:	d103      	bne.n	fec <xQueueGetMutexHolder+0x1c>
     fe4:	687b      	ldr	r3, [r7, #4]
     fe6:	685b      	ldr	r3, [r3, #4]
     fe8:	60fb      	str	r3, [r7, #12]
     fea:	e001      	b.n	ff0 <xQueueGetMutexHolder+0x20>
     fec:	2300      	movs	r3, #0
     fee:	60fb      	str	r3, [r7, #12]
     ff0:	f006 ff00 	bl	7df4 <vPortExitCritical>
     ff4:	68fb      	ldr	r3, [r7, #12]
     ff6:	4618      	mov	r0, r3
     ff8:	3710      	adds	r7, #16
     ffa:	46bd      	mov	sp, r7
     ffc:	bd80      	pop	{r7, pc}
     ffe:	bf00      	nop

00001000 <xQueueTakeMutexRecursive>:
    1000:	b590      	push	{r4, r7, lr}
    1002:	b085      	sub	sp, #20
    1004:	af00      	add	r7, sp, #0
    1006:	6078      	str	r0, [r7, #4]
    1008:	6039      	str	r1, [r7, #0]
    100a:	687b      	ldr	r3, [r7, #4]
    100c:	60bb      	str	r3, [r7, #8]
    100e:	68bb      	ldr	r3, [r7, #8]
    1010:	2b00      	cmp	r3, #0
    1012:	d104      	bne.n	101e <xQueueTakeMutexRecursive+0x1e>
    1014:	f04f 0028 	mov.w	r0, #40	; 0x28
    1018:	f380 8811 	msr	BASEPRI, r0
    101c:	e7fe      	b.n	101c <xQueueTakeMutexRecursive+0x1c>
    101e:	68bb      	ldr	r3, [r7, #8]
    1020:	685c      	ldr	r4, [r3, #4]
    1022:	f001 fdab 	bl	2b7c <xTaskGetCurrentTaskHandle>
    1026:	4603      	mov	r3, r0
    1028:	429c      	cmp	r4, r3
    102a:	d107      	bne.n	103c <xQueueTakeMutexRecursive+0x3c>
    102c:	68bb      	ldr	r3, [r7, #8]
    102e:	68db      	ldr	r3, [r3, #12]
    1030:	1c5a      	adds	r2, r3, #1
    1032:	68bb      	ldr	r3, [r7, #8]
    1034:	60da      	str	r2, [r3, #12]
    1036:	2301      	movs	r3, #1
    1038:	60fb      	str	r3, [r7, #12]
    103a:	e00e      	b.n	105a <xQueueTakeMutexRecursive+0x5a>
    103c:	2300      	movs	r3, #0
    103e:	683a      	ldr	r2, [r7, #0]
    1040:	2100      	movs	r1, #0
    1042:	68b8      	ldr	r0, [r7, #8]
    1044:	f7ff fca4 	bl	990 <xQueueGenericReceive>
    1048:	60f8      	str	r0, [r7, #12]
    104a:	68fb      	ldr	r3, [r7, #12]
    104c:	2b01      	cmp	r3, #1
    104e:	d104      	bne.n	105a <xQueueTakeMutexRecursive+0x5a>
    1050:	68bb      	ldr	r3, [r7, #8]
    1052:	68db      	ldr	r3, [r3, #12]
    1054:	1c5a      	adds	r2, r3, #1
    1056:	68bb      	ldr	r3, [r7, #8]
    1058:	60da      	str	r2, [r3, #12]
    105a:	68fb      	ldr	r3, [r7, #12]
    105c:	4618      	mov	r0, r3
    105e:	3714      	adds	r7, #20
    1060:	46bd      	mov	sp, r7
    1062:	bd90      	pop	{r4, r7, pc}

00001064 <xQueueGiveMutexRecursive>:
    1064:	b590      	push	{r4, r7, lr}
    1066:	b085      	sub	sp, #20
    1068:	af00      	add	r7, sp, #0
    106a:	6078      	str	r0, [r7, #4]
    106c:	687b      	ldr	r3, [r7, #4]
    106e:	60bb      	str	r3, [r7, #8]
    1070:	68bb      	ldr	r3, [r7, #8]
    1072:	2b00      	cmp	r3, #0
    1074:	d104      	bne.n	1080 <xQueueGiveMutexRecursive+0x1c>
    1076:	f04f 0028 	mov.w	r0, #40	; 0x28
    107a:	f380 8811 	msr	BASEPRI, r0
    107e:	e7fe      	b.n	107e <xQueueGiveMutexRecursive+0x1a>
    1080:	68bb      	ldr	r3, [r7, #8]
    1082:	685c      	ldr	r4, [r3, #4]
    1084:	f001 fd7a 	bl	2b7c <xTaskGetCurrentTaskHandle>
    1088:	4603      	mov	r3, r0
    108a:	429c      	cmp	r4, r3
    108c:	d111      	bne.n	10b2 <xQueueGiveMutexRecursive+0x4e>
    108e:	68bb      	ldr	r3, [r7, #8]
    1090:	68db      	ldr	r3, [r3, #12]
    1092:	1e5a      	subs	r2, r3, #1
    1094:	68bb      	ldr	r3, [r7, #8]
    1096:	60da      	str	r2, [r3, #12]
    1098:	68bb      	ldr	r3, [r7, #8]
    109a:	68db      	ldr	r3, [r3, #12]
    109c:	2b00      	cmp	r3, #0
    109e:	d105      	bne.n	10ac <xQueueGiveMutexRecursive+0x48>
    10a0:	2300      	movs	r3, #0
    10a2:	2200      	movs	r2, #0
    10a4:	2100      	movs	r1, #0
    10a6:	68b8      	ldr	r0, [r7, #8]
    10a8:	f7ff fb52 	bl	750 <xQueueGenericSend>
    10ac:	2301      	movs	r3, #1
    10ae:	60fb      	str	r3, [r7, #12]
    10b0:	e001      	b.n	10b6 <xQueueGiveMutexRecursive+0x52>
    10b2:	2300      	movs	r3, #0
    10b4:	60fb      	str	r3, [r7, #12]
    10b6:	68fb      	ldr	r3, [r7, #12]
    10b8:	4618      	mov	r0, r3
    10ba:	3714      	adds	r7, #20
    10bc:	46bd      	mov	sp, r7
    10be:	bd90      	pop	{r4, r7, pc}

000010c0 <vQueueAddToRegistry>:
    10c0:	b480      	push	{r7}
    10c2:	b085      	sub	sp, #20
    10c4:	af00      	add	r7, sp, #0
    10c6:	6078      	str	r0, [r7, #4]
    10c8:	6039      	str	r1, [r7, #0]
    10ca:	2300      	movs	r3, #0
    10cc:	60fb      	str	r3, [r7, #12]
    10ce:	e014      	b.n	10fa <vQueueAddToRegistry+0x3a>
    10d0:	4a0e      	ldr	r2, [pc, #56]	; (110c <vQueueAddToRegistry+0x4c>)
    10d2:	68fb      	ldr	r3, [r7, #12]
    10d4:	f852 3033 	ldr.w	r3, [r2, r3, lsl #3]
    10d8:	2b00      	cmp	r3, #0
    10da:	d10b      	bne.n	10f4 <vQueueAddToRegistry+0x34>
    10dc:	490b      	ldr	r1, [pc, #44]	; (110c <vQueueAddToRegistry+0x4c>)
    10de:	68fb      	ldr	r3, [r7, #12]
    10e0:	683a      	ldr	r2, [r7, #0]
    10e2:	f841 2033 	str.w	r2, [r1, r3, lsl #3]
    10e6:	4a09      	ldr	r2, [pc, #36]	; (110c <vQueueAddToRegistry+0x4c>)
    10e8:	68fb      	ldr	r3, [r7, #12]
    10ea:	00db      	lsls	r3, r3, #3
    10ec:	4413      	add	r3, r2
    10ee:	687a      	ldr	r2, [r7, #4]
    10f0:	605a      	str	r2, [r3, #4]
    10f2:	e005      	b.n	1100 <vQueueAddToRegistry+0x40>
    10f4:	68fb      	ldr	r3, [r7, #12]
    10f6:	3301      	adds	r3, #1
    10f8:	60fb      	str	r3, [r7, #12]
    10fa:	68fb      	ldr	r3, [r7, #12]
    10fc:	2b09      	cmp	r3, #9
    10fe:	d9e7      	bls.n	10d0 <vQueueAddToRegistry+0x10>
    1100:	bf00      	nop
    1102:	3714      	adds	r7, #20
    1104:	46bd      	mov	sp, r7
    1106:	bc80      	pop	{r7}
    1108:	4770      	bx	lr
    110a:	bf00      	nop
    110c:	10000000 	.word	0x10000000

00001110 <vQueueUnregisterQueue>:
    1110:	b480      	push	{r7}
    1112:	b085      	sub	sp, #20
    1114:	af00      	add	r7, sp, #0
    1116:	6078      	str	r0, [r7, #4]
    1118:	2300      	movs	r3, #0
    111a:	60fb      	str	r3, [r7, #12]
    111c:	e010      	b.n	1140 <vQueueUnregisterQueue+0x30>
    111e:	4a0c      	ldr	r2, [pc, #48]	; (1150 <vQueueUnregisterQueue+0x40>)
    1120:	68fb      	ldr	r3, [r7, #12]
    1122:	00db      	lsls	r3, r3, #3
    1124:	4413      	add	r3, r2
    1126:	685a      	ldr	r2, [r3, #4]
    1128:	687b      	ldr	r3, [r7, #4]
    112a:	429a      	cmp	r2, r3
    112c:	d105      	bne.n	113a <vQueueUnregisterQueue+0x2a>
    112e:	4a08      	ldr	r2, [pc, #32]	; (1150 <vQueueUnregisterQueue+0x40>)
    1130:	68fb      	ldr	r3, [r7, #12]
    1132:	2100      	movs	r1, #0
    1134:	f842 1033 	str.w	r1, [r2, r3, lsl #3]
    1138:	e005      	b.n	1146 <vQueueUnregisterQueue+0x36>
    113a:	68fb      	ldr	r3, [r7, #12]
    113c:	3301      	adds	r3, #1
    113e:	60fb      	str	r3, [r7, #12]
    1140:	68fb      	ldr	r3, [r7, #12]
    1142:	2b09      	cmp	r3, #9
    1144:	d9eb      	bls.n	111e <vQueueUnregisterQueue+0xe>
    1146:	bf00      	nop
    1148:	3714      	adds	r7, #20
    114a:	46bd      	mov	sp, r7
    114c:	bc80      	pop	{r7}
    114e:	4770      	bx	lr
    1150:	10000000 	.word	0x10000000

00001154 <xQueueGenericCreate>:
    1154:	b580      	push	{r7, lr}
    1156:	b088      	sub	sp, #32
    1158:	af00      	add	r7, sp, #0
    115a:	60f8      	str	r0, [r7, #12]
    115c:	60b9      	str	r1, [r7, #8]
    115e:	4613      	mov	r3, r2
    1160:	71fb      	strb	r3, [r7, #7]
    1162:	2300      	movs	r3, #0
    1164:	61bb      	str	r3, [r7, #24]
    1166:	68fb      	ldr	r3, [r7, #12]
    1168:	2b00      	cmp	r3, #0
    116a:	d104      	bne.n	1176 <xQueueGenericCreate+0x22>
    116c:	f04f 0028 	mov.w	r0, #40	; 0x28
    1170:	f380 8811 	msr	BASEPRI, r0
    1174:	e7fe      	b.n	1174 <xQueueGenericCreate+0x20>
    1176:	68bb      	ldr	r3, [r7, #8]
    1178:	2b00      	cmp	r3, #0
    117a:	d102      	bne.n	1182 <xQueueGenericCreate+0x2e>
    117c:	2300      	movs	r3, #0
    117e:	61fb      	str	r3, [r7, #28]
    1180:	e005      	b.n	118e <xQueueGenericCreate+0x3a>
    1182:	68fb      	ldr	r3, [r7, #12]
    1184:	68ba      	ldr	r2, [r7, #8]
    1186:	fb02 f303 	mul.w	r3, r2, r3
    118a:	3301      	adds	r3, #1
    118c:	61fb      	str	r3, [r7, #28]
    118e:	69fb      	ldr	r3, [r7, #28]
    1190:	3354      	adds	r3, #84	; 0x54
    1192:	4618      	mov	r0, r3
    1194:	f7fe ff9a 	bl	cc <pvPortMalloc>
    1198:	6178      	str	r0, [r7, #20]
    119a:	697b      	ldr	r3, [r7, #20]
    119c:	2b00      	cmp	r3, #0
    119e:	d01b      	beq.n	11d8 <xQueueGenericCreate+0x84>
    11a0:	68bb      	ldr	r3, [r7, #8]
    11a2:	2b00      	cmp	r3, #0
    11a4:	d103      	bne.n	11ae <xQueueGenericCreate+0x5a>
    11a6:	697b      	ldr	r3, [r7, #20]
    11a8:	697a      	ldr	r2, [r7, #20]
    11aa:	601a      	str	r2, [r3, #0]
    11ac:	e004      	b.n	11b8 <xQueueGenericCreate+0x64>
    11ae:	697b      	ldr	r3, [r7, #20]
    11b0:	f103 0254 	add.w	r2, r3, #84	; 0x54
    11b4:	697b      	ldr	r3, [r7, #20]
    11b6:	601a      	str	r2, [r3, #0]
    11b8:	697b      	ldr	r3, [r7, #20]
    11ba:	68fa      	ldr	r2, [r7, #12]
    11bc:	63da      	str	r2, [r3, #60]	; 0x3c
    11be:	697b      	ldr	r3, [r7, #20]
    11c0:	68ba      	ldr	r2, [r7, #8]
    11c2:	641a      	str	r2, [r3, #64]	; 0x40
    11c4:	2101      	movs	r1, #1
    11c6:	6978      	ldr	r0, [r7, #20]
    11c8:	f000 f842 	bl	1250 <xQueueGenericReset>
    11cc:	697b      	ldr	r3, [r7, #20]
    11ce:	79fa      	ldrb	r2, [r7, #7]
    11d0:	f883 2050 	strb.w	r2, [r3, #80]	; 0x50
    11d4:	697b      	ldr	r3, [r7, #20]
    11d6:	61bb      	str	r3, [r7, #24]
    11d8:	69bb      	ldr	r3, [r7, #24]
    11da:	2b00      	cmp	r3, #0
    11dc:	d104      	bne.n	11e8 <xQueueGenericCreate+0x94>
    11de:	f04f 0028 	mov.w	r0, #40	; 0x28
    11e2:	f380 8811 	msr	BASEPRI, r0
    11e6:	e7fe      	b.n	11e6 <xQueueGenericCreate+0x92>
    11e8:	69bb      	ldr	r3, [r7, #24]
    11ea:	4618      	mov	r0, r3
    11ec:	3720      	adds	r7, #32
    11ee:	46bd      	mov	sp, r7
    11f0:	bd80      	pop	{r7, pc}
    11f2:	bf00      	nop

000011f4 <vQueueWaitForMessageRestricted>:
    11f4:	b580      	push	{r7, lr}
    11f6:	b086      	sub	sp, #24
    11f8:	af00      	add	r7, sp, #0
    11fa:	60f8      	str	r0, [r7, #12]
    11fc:	60b9      	str	r1, [r7, #8]
    11fe:	607a      	str	r2, [r7, #4]
    1200:	68fb      	ldr	r3, [r7, #12]
    1202:	617b      	str	r3, [r7, #20]
    1204:	f006 fdd8 	bl	7db8 <vPortEnterCritical>
    1208:	697b      	ldr	r3, [r7, #20]
    120a:	6c5b      	ldr	r3, [r3, #68]	; 0x44
    120c:	f1b3 3fff 	cmp.w	r3, #4294967295
    1210:	d102      	bne.n	1218 <vQueueWaitForMessageRestricted+0x24>
    1212:	697b      	ldr	r3, [r7, #20]
    1214:	2200      	movs	r2, #0
    1216:	645a      	str	r2, [r3, #68]	; 0x44
    1218:	697b      	ldr	r3, [r7, #20]
    121a:	6c9b      	ldr	r3, [r3, #72]	; 0x48
    121c:	f1b3 3fff 	cmp.w	r3, #4294967295
    1220:	d102      	bne.n	1228 <vQueueWaitForMessageRestricted+0x34>
    1222:	697b      	ldr	r3, [r7, #20]
    1224:	2200      	movs	r2, #0
    1226:	649a      	str	r2, [r3, #72]	; 0x48
    1228:	f006 fde4 	bl	7df4 <vPortExitCritical>
    122c:	697b      	ldr	r3, [r7, #20]
    122e:	6b9b      	ldr	r3, [r3, #56]	; 0x38
    1230:	2b00      	cmp	r3, #0
    1232:	d106      	bne.n	1242 <vQueueWaitForMessageRestricted+0x4e>
    1234:	697b      	ldr	r3, [r7, #20]
    1236:	3324      	adds	r3, #36	; 0x24
    1238:	687a      	ldr	r2, [r7, #4]
    123a:	68b9      	ldr	r1, [r7, #8]
    123c:	4618      	mov	r0, r3
    123e:	f001 fafb 	bl	2838 <vTaskPlaceOnEventListRestricted>
    1242:	6978      	ldr	r0, [r7, #20]
    1244:	f000 f888 	bl	1358 <prvUnlockQueue>
    1248:	bf00      	nop
    124a:	3718      	adds	r7, #24
    124c:	46bd      	mov	sp, r7
    124e:	bd80      	pop	{r7, pc}

00001250 <xQueueGenericReset>:
    1250:	b580      	push	{r7, lr}
    1252:	b084      	sub	sp, #16
    1254:	af00      	add	r7, sp, #0
    1256:	6078      	str	r0, [r7, #4]
    1258:	6039      	str	r1, [r7, #0]
    125a:	687b      	ldr	r3, [r7, #4]
    125c:	60fb      	str	r3, [r7, #12]
    125e:	68fb      	ldr	r3, [r7, #12]
    1260:	2b00      	cmp	r3, #0
    1262:	d104      	bne.n	126e <xQueueGenericReset+0x1e>
    1264:	f04f 0028 	mov.w	r0, #40	; 0x28
    1268:	f380 8811 	msr	BASEPRI, r0
    126c:	e7fe      	b.n	126c <xQueueGenericReset+0x1c>
    126e:	f006 fda3 	bl	7db8 <vPortEnterCritical>
    1272:	68fb      	ldr	r3, [r7, #12]
    1274:	681a      	ldr	r2, [r3, #0]
    1276:	68fb      	ldr	r3, [r7, #12]
    1278:	6bdb      	ldr	r3, [r3, #60]	; 0x3c
    127a:	68f9      	ldr	r1, [r7, #12]
    127c:	6c09      	ldr	r1, [r1, #64]	; 0x40
    127e:	fb01 f303 	mul.w	r3, r1, r3
    1282:	441a      	add	r2, r3
    1284:	68fb      	ldr	r3, [r7, #12]
    1286:	605a      	str	r2, [r3, #4]
    1288:	68fb      	ldr	r3, [r7, #12]
    128a:	2200      	movs	r2, #0
    128c:	639a      	str	r2, [r3, #56]	; 0x38
    128e:	68fb      	ldr	r3, [r7, #12]
    1290:	681a      	ldr	r2, [r3, #0]
    1292:	68fb      	ldr	r3, [r7, #12]
    1294:	609a      	str	r2, [r3, #8]
    1296:	68fb      	ldr	r3, [r7, #12]
    1298:	681a      	ldr	r2, [r3, #0]
    129a:	68fb      	ldr	r3, [r7, #12]
    129c:	6bdb      	ldr	r3, [r3, #60]	; 0x3c
    129e:	3b01      	subs	r3, #1
    12a0:	68f9      	ldr	r1, [r7, #12]
    12a2:	6c09      	ldr	r1, [r1, #64]	; 0x40
    12a4:	fb01 f303 	mul.w	r3, r1, r3
    12a8:	441a      	add	r2, r3
    12aa:	68fb      	ldr	r3, [r7, #12]
    12ac:	60da      	str	r2, [r3, #12]
    12ae:	68fb      	ldr	r3, [r7, #12]
    12b0:	f04f 32ff 	mov.w	r2, #4294967295
    12b4:	645a      	str	r2, [r3, #68]	; 0x44
    12b6:	68fb      	ldr	r3, [r7, #12]
    12b8:	f04f 32ff 	mov.w	r2, #4294967295
    12bc:	649a      	str	r2, [r3, #72]	; 0x48
    12be:	683b      	ldr	r3, [r7, #0]
    12c0:	2b00      	cmp	r3, #0
    12c2:	d110      	bne.n	12e6 <xQueueGenericReset+0x96>
    12c4:	68fb      	ldr	r3, [r7, #12]
    12c6:	691b      	ldr	r3, [r3, #16]
    12c8:	2b00      	cmp	r3, #0
    12ca:	d016      	beq.n	12fa <xQueueGenericReset+0xaa>
    12cc:	68fb      	ldr	r3, [r7, #12]
    12ce:	3310      	adds	r3, #16
    12d0:	4618      	mov	r0, r3
    12d2:	f001 fae9 	bl	28a8 <xTaskRemoveFromEventList>
    12d6:	4603      	mov	r3, r0
    12d8:	2b01      	cmp	r3, #1
    12da:	d10e      	bne.n	12fa <xQueueGenericReset+0xaa>
    12dc:	4b0a      	ldr	r3, [pc, #40]	; (1308 <xQueueGenericReset+0xb8>)
    12de:	f04f 5280 	mov.w	r2, #268435456	; 0x10000000
    12e2:	601a      	str	r2, [r3, #0]
    12e4:	e009      	b.n	12fa <xQueueGenericReset+0xaa>
    12e6:	68fb      	ldr	r3, [r7, #12]
    12e8:	3310      	adds	r3, #16
    12ea:	4618      	mov	r0, r3
    12ec:	f006 ff7e 	bl	81ec <vListInitialise>
    12f0:	68fb      	ldr	r3, [r7, #12]
    12f2:	3324      	adds	r3, #36	; 0x24
    12f4:	4618      	mov	r0, r3
    12f6:	f006 ff79 	bl	81ec <vListInitialise>
    12fa:	f006 fd7b 	bl	7df4 <vPortExitCritical>
    12fe:	2301      	movs	r3, #1
    1300:	4618      	mov	r0, r3
    1302:	3710      	adds	r7, #16
    1304:	46bd      	mov	sp, r7
    1306:	bd80      	pop	{r7, pc}
    1308:	e000ed04 	.word	0xe000ed04

0000130c <vQueueSetQueueNumber>:
    130c:	b480      	push	{r7}
    130e:	b083      	sub	sp, #12
    1310:	af00      	add	r7, sp, #0
    1312:	6078      	str	r0, [r7, #4]
    1314:	6039      	str	r1, [r7, #0]
    1316:	687b      	ldr	r3, [r7, #4]
    1318:	683a      	ldr	r2, [r7, #0]
    131a:	64da      	str	r2, [r3, #76]	; 0x4c
    131c:	bf00      	nop
    131e:	370c      	adds	r7, #12
    1320:	46bd      	mov	sp, r7
    1322:	bc80      	pop	{r7}
    1324:	4770      	bx	lr
    1326:	bf00      	nop

00001328 <uxQueueGetQueueNumber>:
    1328:	b480      	push	{r7}
    132a:	b083      	sub	sp, #12
    132c:	af00      	add	r7, sp, #0
    132e:	6078      	str	r0, [r7, #4]
    1330:	687b      	ldr	r3, [r7, #4]
    1332:	6cdb      	ldr	r3, [r3, #76]	; 0x4c
    1334:	4618      	mov	r0, r3
    1336:	370c      	adds	r7, #12
    1338:	46bd      	mov	sp, r7
    133a:	bc80      	pop	{r7}
    133c:	4770      	bx	lr
    133e:	bf00      	nop

00001340 <ucQueueGetQueueType>:
    1340:	b480      	push	{r7}
    1342:	b083      	sub	sp, #12
    1344:	af00      	add	r7, sp, #0
    1346:	6078      	str	r0, [r7, #4]
    1348:	687b      	ldr	r3, [r7, #4]
    134a:	f893 3050 	ldrb.w	r3, [r3, #80]	; 0x50
    134e:	4618      	mov	r0, r3
    1350:	370c      	adds	r7, #12
    1352:	46bd      	mov	sp, r7
    1354:	bc80      	pop	{r7}
    1356:	4770      	bx	lr

00001358 <prvUnlockQueue>:
    1358:	b580      	push	{r7, lr}
    135a:	b082      	sub	sp, #8
    135c:	af00      	add	r7, sp, #0
    135e:	6078      	str	r0, [r7, #4]
    1360:	f006 fd2a 	bl	7db8 <vPortEnterCritical>
    1364:	e012      	b.n	138c <prvUnlockQueue+0x34>
    1366:	687b      	ldr	r3, [r7, #4]
    1368:	6a5b      	ldr	r3, [r3, #36]	; 0x24
    136a:	2b00      	cmp	r3, #0
    136c:	d013      	beq.n	1396 <prvUnlockQueue+0x3e>
    136e:	687b      	ldr	r3, [r7, #4]
    1370:	3324      	adds	r3, #36	; 0x24
    1372:	4618      	mov	r0, r3
    1374:	f001 fa98 	bl	28a8 <xTaskRemoveFromEventList>
    1378:	4603      	mov	r3, r0
    137a:	2b00      	cmp	r3, #0
    137c:	d001      	beq.n	1382 <prvUnlockQueue+0x2a>
    137e:	f001 fc7d 	bl	2c7c <vTaskMissedYield>
    1382:	687b      	ldr	r3, [r7, #4]
    1384:	6c9b      	ldr	r3, [r3, #72]	; 0x48
    1386:	1e5a      	subs	r2, r3, #1
    1388:	687b      	ldr	r3, [r7, #4]
    138a:	649a      	str	r2, [r3, #72]	; 0x48
    138c:	687b      	ldr	r3, [r7, #4]
    138e:	6c9b      	ldr	r3, [r3, #72]	; 0x48
    1390:	2b00      	cmp	r3, #0
    1392:	dce8      	bgt.n	1366 <prvUnlockQueue+0xe>
    1394:	e000      	b.n	1398 <prvUnlockQueue+0x40>
    1396:	bf00      	nop
    1398:	687b      	ldr	r3, [r7, #4]
    139a:	f04f 32ff 	mov.w	r2, #4294967295
    139e:	649a      	str	r2, [r3, #72]	; 0x48
    13a0:	f006 fd28 	bl	7df4 <vPortExitCritical>
    13a4:	f006 fd08 	bl	7db8 <vPortEnterCritical>
    13a8:	e012      	b.n	13d0 <prvUnlockQueue+0x78>
    13aa:	687b      	ldr	r3, [r7, #4]
    13ac:	691b      	ldr	r3, [r3, #16]
    13ae:	2b00      	cmp	r3, #0
    13b0:	d013      	beq.n	13da <prvUnlockQueue+0x82>
    13b2:	687b      	ldr	r3, [r7, #4]
    13b4:	3310      	adds	r3, #16
    13b6:	4618      	mov	r0, r3
    13b8:	f001 fa76 	bl	28a8 <xTaskRemoveFromEventList>
    13bc:	4603      	mov	r3, r0
    13be:	2b00      	cmp	r3, #0
    13c0:	d001      	beq.n	13c6 <prvUnlockQueue+0x6e>
    13c2:	f001 fc5b 	bl	2c7c <vTaskMissedYield>
    13c6:	687b      	ldr	r3, [r7, #4]
    13c8:	6c5b      	ldr	r3, [r3, #68]	; 0x44
    13ca:	1e5a      	subs	r2, r3, #1
    13cc:	687b      	ldr	r3, [r7, #4]
    13ce:	645a      	str	r2, [r3, #68]	; 0x44
    13d0:	687b      	ldr	r3, [r7, #4]
    13d2:	6c5b      	ldr	r3, [r3, #68]	; 0x44
    13d4:	2b00      	cmp	r3, #0
    13d6:	dce8      	bgt.n	13aa <prvUnlockQueue+0x52>
    13d8:	e000      	b.n	13dc <prvUnlockQueue+0x84>
    13da:	bf00      	nop
    13dc:	687b      	ldr	r3, [r7, #4]
    13de:	f04f 32ff 	mov.w	r2, #4294967295
    13e2:	645a      	str	r2, [r3, #68]	; 0x44
    13e4:	f006 fd06 	bl	7df4 <vPortExitCritical>
    13e8:	bf00      	nop
    13ea:	3708      	adds	r7, #8
    13ec:	46bd      	mov	sp, r7
    13ee:	bd80      	pop	{r7, pc}

000013f0 <prvIsQueueEmpty>:
    13f0:	b580      	push	{r7, lr}
    13f2:	b084      	sub	sp, #16
    13f4:	af00      	add	r7, sp, #0
    13f6:	6078      	str	r0, [r7, #4]
    13f8:	f006 fcde 	bl	7db8 <vPortEnterCritical>
    13fc:	687b      	ldr	r3, [r7, #4]
    13fe:	6b9b      	ldr	r3, [r3, #56]	; 0x38
    1400:	2b00      	cmp	r3, #0
    1402:	d102      	bne.n	140a <prvIsQueueEmpty+0x1a>
    1404:	2301      	movs	r3, #1
    1406:	60fb      	str	r3, [r7, #12]
    1408:	e001      	b.n	140e <prvIsQueueEmpty+0x1e>
    140a:	2300      	movs	r3, #0
    140c:	60fb      	str	r3, [r7, #12]
    140e:	f006 fcf1 	bl	7df4 <vPortExitCritical>
    1412:	68fb      	ldr	r3, [r7, #12]
    1414:	4618      	mov	r0, r3
    1416:	3710      	adds	r7, #16
    1418:	46bd      	mov	sp, r7
    141a:	bd80      	pop	{r7, pc}

0000141c <prvIsQueueFull>:
    141c:	b580      	push	{r7, lr}
    141e:	b084      	sub	sp, #16
    1420:	af00      	add	r7, sp, #0
    1422:	6078      	str	r0, [r7, #4]
    1424:	f006 fcc8 	bl	7db8 <vPortEnterCritical>
    1428:	687b      	ldr	r3, [r7, #4]
    142a:	6b9a      	ldr	r2, [r3, #56]	; 0x38
    142c:	687b      	ldr	r3, [r7, #4]
    142e:	6bdb      	ldr	r3, [r3, #60]	; 0x3c
    1430:	429a      	cmp	r2, r3
    1432:	d102      	bne.n	143a <prvIsQueueFull+0x1e>
    1434:	2301      	movs	r3, #1
    1436:	60fb      	str	r3, [r7, #12]
    1438:	e001      	b.n	143e <prvIsQueueFull+0x22>
    143a:	2300      	movs	r3, #0
    143c:	60fb      	str	r3, [r7, #12]
    143e:	f006 fcd9 	bl	7df4 <vPortExitCritical>
    1442:	68fb      	ldr	r3, [r7, #12]
    1444:	4618      	mov	r0, r3
    1446:	3710      	adds	r7, #16
    1448:	46bd      	mov	sp, r7
    144a:	bd80      	pop	{r7, pc}

0000144c <prvCopyDataToQueue>:
    144c:	b580      	push	{r7, lr}
    144e:	b086      	sub	sp, #24
    1450:	af00      	add	r7, sp, #0
    1452:	60f8      	str	r0, [r7, #12]
    1454:	60b9      	str	r1, [r7, #8]
    1456:	607a      	str	r2, [r7, #4]
    1458:	2300      	movs	r3, #0
    145a:	617b      	str	r3, [r7, #20]
    145c:	68fb      	ldr	r3, [r7, #12]
    145e:	6c1b      	ldr	r3, [r3, #64]	; 0x40
    1460:	2b00      	cmp	r3, #0
    1462:	d10d      	bne.n	1480 <prvCopyDataToQueue+0x34>
    1464:	68fb      	ldr	r3, [r7, #12]
    1466:	681b      	ldr	r3, [r3, #0]
    1468:	2b00      	cmp	r3, #0
    146a:	d150      	bne.n	150e <prvCopyDataToQueue+0xc2>
    146c:	68fb      	ldr	r3, [r7, #12]
    146e:	685b      	ldr	r3, [r3, #4]
    1470:	4618      	mov	r0, r3
    1472:	f001 fc8b 	bl	2d8c <xTaskPriorityDisinherit>
    1476:	6178      	str	r0, [r7, #20]
    1478:	68fb      	ldr	r3, [r7, #12]
    147a:	2200      	movs	r2, #0
    147c:	605a      	str	r2, [r3, #4]
    147e:	e046      	b.n	150e <prvCopyDataToQueue+0xc2>
    1480:	687b      	ldr	r3, [r7, #4]
    1482:	2b00      	cmp	r3, #0
    1484:	d119      	bne.n	14ba <prvCopyDataToQueue+0x6e>
    1486:	68fb      	ldr	r3, [r7, #12]
    1488:	6898      	ldr	r0, [r3, #8]
    148a:	68fb      	ldr	r3, [r7, #12]
    148c:	6c1b      	ldr	r3, [r3, #64]	; 0x40
    148e:	461a      	mov	r2, r3
    1490:	68b9      	ldr	r1, [r7, #8]
    1492:	f00c fc3f 	bl	dd14 <memcpy>
    1496:	68fb      	ldr	r3, [r7, #12]
    1498:	689a      	ldr	r2, [r3, #8]
    149a:	68fb      	ldr	r3, [r7, #12]
    149c:	6c1b      	ldr	r3, [r3, #64]	; 0x40
    149e:	441a      	add	r2, r3
    14a0:	68fb      	ldr	r3, [r7, #12]
    14a2:	609a      	str	r2, [r3, #8]
    14a4:	68fb      	ldr	r3, [r7, #12]
    14a6:	689a      	ldr	r2, [r3, #8]
    14a8:	68fb      	ldr	r3, [r7, #12]
    14aa:	685b      	ldr	r3, [r3, #4]
    14ac:	429a      	cmp	r2, r3
    14ae:	d32e      	bcc.n	150e <prvCopyDataToQueue+0xc2>
    14b0:	68fb      	ldr	r3, [r7, #12]
    14b2:	681a      	ldr	r2, [r3, #0]
    14b4:	68fb      	ldr	r3, [r7, #12]
    14b6:	609a      	str	r2, [r3, #8]
    14b8:	e029      	b.n	150e <prvCopyDataToQueue+0xc2>
    14ba:	68fb      	ldr	r3, [r7, #12]
    14bc:	68d8      	ldr	r0, [r3, #12]
    14be:	68fb      	ldr	r3, [r7, #12]
    14c0:	6c1b      	ldr	r3, [r3, #64]	; 0x40
    14c2:	461a      	mov	r2, r3
    14c4:	68b9      	ldr	r1, [r7, #8]
    14c6:	f00c fc25 	bl	dd14 <memcpy>
    14ca:	68fb      	ldr	r3, [r7, #12]
    14cc:	68da      	ldr	r2, [r3, #12]
    14ce:	68fb      	ldr	r3, [r7, #12]
    14d0:	6c1b      	ldr	r3, [r3, #64]	; 0x40
    14d2:	425b      	negs	r3, r3
    14d4:	441a      	add	r2, r3
    14d6:	68fb      	ldr	r3, [r7, #12]
    14d8:	60da      	str	r2, [r3, #12]
    14da:	68fb      	ldr	r3, [r7, #12]
    14dc:	68da      	ldr	r2, [r3, #12]
    14de:	68fb      	ldr	r3, [r7, #12]
    14e0:	681b      	ldr	r3, [r3, #0]
    14e2:	429a      	cmp	r2, r3
    14e4:	d207      	bcs.n	14f6 <prvCopyDataToQueue+0xaa>
    14e6:	68fb      	ldr	r3, [r7, #12]
    14e8:	685a      	ldr	r2, [r3, #4]
    14ea:	68fb      	ldr	r3, [r7, #12]
    14ec:	6c1b      	ldr	r3, [r3, #64]	; 0x40
    14ee:	425b      	negs	r3, r3
    14f0:	441a      	add	r2, r3
    14f2:	68fb      	ldr	r3, [r7, #12]
    14f4:	60da      	str	r2, [r3, #12]
    14f6:	687b      	ldr	r3, [r7, #4]
    14f8:	2b02      	cmp	r3, #2
    14fa:	d108      	bne.n	150e <prvCopyDataToQueue+0xc2>
    14fc:	68fb      	ldr	r3, [r7, #12]
    14fe:	6b9b      	ldr	r3, [r3, #56]	; 0x38
    1500:	2b00      	cmp	r3, #0
    1502:	d004      	beq.n	150e <prvCopyDataToQueue+0xc2>
    1504:	68fb      	ldr	r3, [r7, #12]
    1506:	6b9b      	ldr	r3, [r3, #56]	; 0x38
    1508:	1e5a      	subs	r2, r3, #1
    150a:	68fb      	ldr	r3, [r7, #12]
    150c:	639a      	str	r2, [r3, #56]	; 0x38
    150e:	68fb      	ldr	r3, [r7, #12]
    1510:	6b9b      	ldr	r3, [r3, #56]	; 0x38
    1512:	1c5a      	adds	r2, r3, #1
    1514:	68fb      	ldr	r3, [r7, #12]
    1516:	639a      	str	r2, [r3, #56]	; 0x38
    1518:	697b      	ldr	r3, [r7, #20]
    151a:	4618      	mov	r0, r3
    151c:	3718      	adds	r7, #24
    151e:	46bd      	mov	sp, r7
    1520:	bd80      	pop	{r7, pc}
    1522:	bf00      	nop

00001524 <prvCopyDataFromQueue>:
    1524:	b580      	push	{r7, lr}
    1526:	b082      	sub	sp, #8
    1528:	af00      	add	r7, sp, #0
    152a:	6078      	str	r0, [r7, #4]
    152c:	6039      	str	r1, [r7, #0]
    152e:	687b      	ldr	r3, [r7, #4]
    1530:	6c1b      	ldr	r3, [r3, #64]	; 0x40
    1532:	2b00      	cmp	r3, #0
    1534:	d018      	beq.n	1568 <prvCopyDataFromQueue+0x44>
    1536:	687b      	ldr	r3, [r7, #4]
    1538:	68da      	ldr	r2, [r3, #12]
    153a:	687b      	ldr	r3, [r7, #4]
    153c:	6c1b      	ldr	r3, [r3, #64]	; 0x40
    153e:	441a      	add	r2, r3
    1540:	687b      	ldr	r3, [r7, #4]
    1542:	60da      	str	r2, [r3, #12]
    1544:	687b      	ldr	r3, [r7, #4]
    1546:	68da      	ldr	r2, [r3, #12]
    1548:	687b      	ldr	r3, [r7, #4]
    154a:	685b      	ldr	r3, [r3, #4]
    154c:	429a      	cmp	r2, r3
    154e:	d303      	bcc.n	1558 <prvCopyDataFromQueue+0x34>
    1550:	687b      	ldr	r3, [r7, #4]
    1552:	681a      	ldr	r2, [r3, #0]
    1554:	687b      	ldr	r3, [r7, #4]
    1556:	60da      	str	r2, [r3, #12]
    1558:	687b      	ldr	r3, [r7, #4]
    155a:	68d9      	ldr	r1, [r3, #12]
    155c:	687b      	ldr	r3, [r7, #4]
    155e:	6c1b      	ldr	r3, [r3, #64]	; 0x40
    1560:	461a      	mov	r2, r3
    1562:	6838      	ldr	r0, [r7, #0]
    1564:	f00c fbd6 	bl	dd14 <memcpy>
    1568:	bf00      	nop
    156a:	3708      	adds	r7, #8
    156c:	46bd      	mov	sp, r7
    156e:	bd80      	pop	{r7, pc}

00001570 <vTaskAllocateMPURegions>:
    1570:	b580      	push	{r7, lr}
    1572:	b084      	sub	sp, #16
    1574:	af00      	add	r7, sp, #0
    1576:	6078      	str	r0, [r7, #4]
    1578:	6039      	str	r1, [r7, #0]
    157a:	687b      	ldr	r3, [r7, #4]
    157c:	2b00      	cmp	r3, #0
    157e:	d102      	bne.n	1586 <vTaskAllocateMPURegions+0x16>
    1580:	4b07      	ldr	r3, [pc, #28]	; (15a0 <vTaskAllocateMPURegions+0x30>)
    1582:	681b      	ldr	r3, [r3, #0]
    1584:	e000      	b.n	1588 <vTaskAllocateMPURegions+0x18>
    1586:	687b      	ldr	r3, [r7, #4]
    1588:	60fb      	str	r3, [r7, #12]
    158a:	68fb      	ldr	r3, [r7, #12]
    158c:	1d18      	adds	r0, r3, #4
    158e:	2300      	movs	r3, #0
    1590:	2200      	movs	r2, #0
    1592:	6839      	ldr	r1, [r7, #0]
    1594:	f7fe feda 	bl	34c <vPortStoreTaskMPUSettings>
    1598:	bf00      	nop
    159a:	3710      	adds	r7, #16
    159c:	46bd      	mov	sp, r7
    159e:	bd80      	pop	{r7, pc}
    15a0:	10000050 	.word	0x10000050

000015a4 <vTaskDelete>:
    15a4:	b580      	push	{r7, lr}
    15a6:	b084      	sub	sp, #16
    15a8:	af00      	add	r7, sp, #0
    15aa:	6078      	str	r0, [r7, #4]
    15ac:	f006 fc04 	bl	7db8 <vPortEnterCritical>
    15b0:	687b      	ldr	r3, [r7, #4]
    15b2:	2b00      	cmp	r3, #0
    15b4:	d102      	bne.n	15bc <vTaskDelete+0x18>
    15b6:	4b23      	ldr	r3, [pc, #140]	; (1644 <vTaskDelete+0xa0>)
    15b8:	681b      	ldr	r3, [r3, #0]
    15ba:	e000      	b.n	15be <vTaskDelete+0x1a>
    15bc:	687b      	ldr	r3, [r7, #4]
    15be:	60fb      	str	r3, [r7, #12]
    15c0:	68fb      	ldr	r3, [r7, #12]
    15c2:	3328      	adds	r3, #40	; 0x28
    15c4:	4618      	mov	r0, r3
    15c6:	f006 fe99 	bl	82fc <uxListRemove>
    15ca:	68fb      	ldr	r3, [r7, #12]
    15cc:	6cdb      	ldr	r3, [r3, #76]	; 0x4c
    15ce:	2b00      	cmp	r3, #0
    15d0:	d004      	beq.n	15dc <vTaskDelete+0x38>
    15d2:	68fb      	ldr	r3, [r7, #12]
    15d4:	333c      	adds	r3, #60	; 0x3c
    15d6:	4618      	mov	r0, r3
    15d8:	f006 fe90 	bl	82fc <uxListRemove>
    15dc:	68fb      	ldr	r3, [r7, #12]
    15de:	3328      	adds	r3, #40	; 0x28
    15e0:	4619      	mov	r1, r3
    15e2:	4819      	ldr	r0, [pc, #100]	; (1648 <vTaskDelete+0xa4>)
    15e4:	f006 fe2e 	bl	8244 <vListInsertEnd>
    15e8:	4b18      	ldr	r3, [pc, #96]	; (164c <vTaskDelete+0xa8>)
    15ea:	681b      	ldr	r3, [r3, #0]
    15ec:	3301      	adds	r3, #1
    15ee:	4a17      	ldr	r2, [pc, #92]	; (164c <vTaskDelete+0xa8>)
    15f0:	6013      	str	r3, [r2, #0]
    15f2:	4b17      	ldr	r3, [pc, #92]	; (1650 <vTaskDelete+0xac>)
    15f4:	681b      	ldr	r3, [r3, #0]
    15f6:	3301      	adds	r3, #1
    15f8:	4a15      	ldr	r2, [pc, #84]	; (1650 <vTaskDelete+0xac>)
    15fa:	6013      	str	r3, [r2, #0]
    15fc:	f006 fbfa 	bl	7df4 <vPortExitCritical>
    1600:	4b14      	ldr	r3, [pc, #80]	; (1654 <vTaskDelete+0xb0>)
    1602:	681b      	ldr	r3, [r3, #0]
    1604:	2b00      	cmp	r3, #0
    1606:	d018      	beq.n	163a <vTaskDelete+0x96>
    1608:	4b0e      	ldr	r3, [pc, #56]	; (1644 <vTaskDelete+0xa0>)
    160a:	681b      	ldr	r3, [r3, #0]
    160c:	68fa      	ldr	r2, [r7, #12]
    160e:	429a      	cmp	r2, r3
    1610:	d10d      	bne.n	162e <vTaskDelete+0x8a>
    1612:	4b11      	ldr	r3, [pc, #68]	; (1658 <vTaskDelete+0xb4>)
    1614:	681b      	ldr	r3, [r3, #0]
    1616:	2b00      	cmp	r3, #0
    1618:	d004      	beq.n	1624 <vTaskDelete+0x80>
    161a:	f04f 0028 	mov.w	r0, #40	; 0x28
    161e:	f380 8811 	msr	BASEPRI, r0
    1622:	e7fe      	b.n	1622 <vTaskDelete+0x7e>
    1624:	4b0d      	ldr	r3, [pc, #52]	; (165c <vTaskDelete+0xb8>)
    1626:	f04f 5280 	mov.w	r2, #268435456	; 0x10000000
    162a:	601a      	str	r2, [r3, #0]
    162c:	e005      	b.n	163a <vTaskDelete+0x96>
    162e:	f006 fbc3 	bl	7db8 <vPortEnterCritical>
    1632:	f006 fe95 	bl	8360 <prvResetNextTaskUnblockTime>
    1636:	f006 fbdd 	bl	7df4 <vPortExitCritical>
    163a:	bf00      	nop
    163c:	3710      	adds	r7, #16
    163e:	46bd      	mov	sp, r7
    1640:	bd80      	pop	{r7, pc}
    1642:	bf00      	nop
    1644:	10000050 	.word	0x10000050
    1648:	100000fc 	.word	0x100000fc
    164c:	10000110 	.word	0x10000110
    1650:	10000144 	.word	0x10000144
    1654:	10000134 	.word	0x10000134
    1658:	1000014c 	.word	0x1000014c
    165c:	e000ed04 	.word	0xe000ed04

00001660 <vTaskDelay>:
    1660:	b580      	push	{r7, lr}
    1662:	b084      	sub	sp, #16
    1664:	af00      	add	r7, sp, #0
    1666:	6078      	str	r0, [r7, #4]
    1668:	2300      	movs	r3, #0
    166a:	60fb      	str	r3, [r7, #12]
    166c:	687b      	ldr	r3, [r7, #4]
    166e:	2b00      	cmp	r3, #0
    1670:	d01b      	beq.n	16aa <vTaskDelay+0x4a>
    1672:	4b13      	ldr	r3, [pc, #76]	; (16c0 <vTaskDelay+0x60>)
    1674:	681b      	ldr	r3, [r3, #0]
    1676:	2b00      	cmp	r3, #0
    1678:	d004      	beq.n	1684 <vTaskDelay+0x24>
    167a:	f04f 0028 	mov.w	r0, #40	; 0x28
    167e:	f380 8811 	msr	BASEPRI, r0
    1682:	e7fe      	b.n	1682 <vTaskDelay+0x22>
    1684:	f000 fad0 	bl	1c28 <vTaskSuspendAll>
    1688:	4b0e      	ldr	r3, [pc, #56]	; (16c4 <vTaskDelay+0x64>)
    168a:	681a      	ldr	r2, [r3, #0]
    168c:	687b      	ldr	r3, [r7, #4]
    168e:	4413      	add	r3, r2
    1690:	60bb      	str	r3, [r7, #8]
    1692:	4b0d      	ldr	r3, [pc, #52]	; (16c8 <vTaskDelay+0x68>)
    1694:	681b      	ldr	r3, [r3, #0]
    1696:	3328      	adds	r3, #40	; 0x28
    1698:	4618      	mov	r0, r3
    169a:	f006 fe2f 	bl	82fc <uxListRemove>
    169e:	68b8      	ldr	r0, [r7, #8]
    16a0:	f001 fe0e 	bl	32c0 <prvAddCurrentTaskToDelayedList>
    16a4:	f000 face 	bl	1c44 <xTaskResumeAll>
    16a8:	60f8      	str	r0, [r7, #12]
    16aa:	68fb      	ldr	r3, [r7, #12]
    16ac:	2b00      	cmp	r3, #0
    16ae:	d103      	bne.n	16b8 <vTaskDelay+0x58>
    16b0:	4b06      	ldr	r3, [pc, #24]	; (16cc <vTaskDelay+0x6c>)
    16b2:	f04f 5280 	mov.w	r2, #268435456	; 0x10000000
    16b6:	601a      	str	r2, [r3, #0]
    16b8:	bf00      	nop
    16ba:	3710      	adds	r7, #16
    16bc:	46bd      	mov	sp, r7
    16be:	bd80      	pop	{r7, pc}
    16c0:	1000014c 	.word	0x1000014c
    16c4:	1000012c 	.word	0x1000012c
    16c8:	10000050 	.word	0x10000050
    16cc:	e000ed04 	.word	0xe000ed04

000016d0 <vTaskDelayUntil>:
    16d0:	b580      	push	{r7, lr}
    16d2:	b086      	sub	sp, #24
    16d4:	af00      	add	r7, sp, #0
    16d6:	6078      	str	r0, [r7, #4]
    16d8:	6039      	str	r1, [r7, #0]
    16da:	2300      	movs	r3, #0
    16dc:	617b      	str	r3, [r7, #20]
    16de:	687b      	ldr	r3, [r7, #4]
    16e0:	2b00      	cmp	r3, #0
    16e2:	d104      	bne.n	16ee <vTaskDelayUntil+0x1e>
    16e4:	f04f 0028 	mov.w	r0, #40	; 0x28
    16e8:	f380 8811 	msr	BASEPRI, r0
    16ec:	e7fe      	b.n	16ec <vTaskDelayUntil+0x1c>
    16ee:	683b      	ldr	r3, [r7, #0]
    16f0:	2b00      	cmp	r3, #0
    16f2:	d104      	bne.n	16fe <vTaskDelayUntil+0x2e>
    16f4:	f04f 0028 	mov.w	r0, #40	; 0x28
    16f8:	f380 8811 	msr	BASEPRI, r0
    16fc:	e7fe      	b.n	16fc <vTaskDelayUntil+0x2c>
    16fe:	4b26      	ldr	r3, [pc, #152]	; (1798 <vTaskDelayUntil+0xc8>)
    1700:	681b      	ldr	r3, [r3, #0]
    1702:	2b00      	cmp	r3, #0
    1704:	d004      	beq.n	1710 <vTaskDelayUntil+0x40>
    1706:	f04f 0028 	mov.w	r0, #40	; 0x28
    170a:	f380 8811 	msr	BASEPRI, r0
    170e:	e7fe      	b.n	170e <vTaskDelayUntil+0x3e>
    1710:	f000 fa8a 	bl	1c28 <vTaskSuspendAll>
    1714:	4b21      	ldr	r3, [pc, #132]	; (179c <vTaskDelayUntil+0xcc>)
    1716:	681b      	ldr	r3, [r3, #0]
    1718:	613b      	str	r3, [r7, #16]
    171a:	687b      	ldr	r3, [r7, #4]
    171c:	681a      	ldr	r2, [r3, #0]
    171e:	683b      	ldr	r3, [r7, #0]
    1720:	4413      	add	r3, r2
    1722:	60fb      	str	r3, [r7, #12]
    1724:	687b      	ldr	r3, [r7, #4]
    1726:	681a      	ldr	r2, [r3, #0]
    1728:	693b      	ldr	r3, [r7, #16]
    172a:	429a      	cmp	r2, r3
    172c:	d90b      	bls.n	1746 <vTaskDelayUntil+0x76>
    172e:	687b      	ldr	r3, [r7, #4]
    1730:	681a      	ldr	r2, [r3, #0]
    1732:	68fb      	ldr	r3, [r7, #12]
    1734:	429a      	cmp	r2, r3
    1736:	d911      	bls.n	175c <vTaskDelayUntil+0x8c>
    1738:	68fa      	ldr	r2, [r7, #12]
    173a:	693b      	ldr	r3, [r7, #16]
    173c:	429a      	cmp	r2, r3
    173e:	d90d      	bls.n	175c <vTaskDelayUntil+0x8c>
    1740:	2301      	movs	r3, #1
    1742:	617b      	str	r3, [r7, #20]
    1744:	e00a      	b.n	175c <vTaskDelayUntil+0x8c>
    1746:	687b      	ldr	r3, [r7, #4]
    1748:	681a      	ldr	r2, [r3, #0]
    174a:	68fb      	ldr	r3, [r7, #12]
    174c:	429a      	cmp	r2, r3
    174e:	d803      	bhi.n	1758 <vTaskDelayUntil+0x88>
    1750:	68fa      	ldr	r2, [r7, #12]
    1752:	693b      	ldr	r3, [r7, #16]
    1754:	429a      	cmp	r2, r3
    1756:	d901      	bls.n	175c <vTaskDelayUntil+0x8c>
    1758:	2301      	movs	r3, #1
    175a:	617b      	str	r3, [r7, #20]
    175c:	687b      	ldr	r3, [r7, #4]
    175e:	68fa      	ldr	r2, [r7, #12]
    1760:	601a      	str	r2, [r3, #0]
    1762:	697b      	ldr	r3, [r7, #20]
    1764:	2b00      	cmp	r3, #0
    1766:	d008      	beq.n	177a <vTaskDelayUntil+0xaa>
    1768:	4b0d      	ldr	r3, [pc, #52]	; (17a0 <vTaskDelayUntil+0xd0>)
    176a:	681b      	ldr	r3, [r3, #0]
    176c:	3328      	adds	r3, #40	; 0x28
    176e:	4618      	mov	r0, r3
    1770:	f006 fdc4 	bl	82fc <uxListRemove>
    1774:	68f8      	ldr	r0, [r7, #12]
    1776:	f001 fda3 	bl	32c0 <prvAddCurrentTaskToDelayedList>
    177a:	f000 fa63 	bl	1c44 <xTaskResumeAll>
    177e:	60b8      	str	r0, [r7, #8]
    1780:	68bb      	ldr	r3, [r7, #8]
    1782:	2b00      	cmp	r3, #0
    1784:	d103      	bne.n	178e <vTaskDelayUntil+0xbe>
    1786:	4b07      	ldr	r3, [pc, #28]	; (17a4 <vTaskDelayUntil+0xd4>)
    1788:	f04f 5280 	mov.w	r2, #268435456	; 0x10000000
    178c:	601a      	str	r2, [r3, #0]
    178e:	bf00      	nop
    1790:	3718      	adds	r7, #24
    1792:	46bd      	mov	sp, r7
    1794:	bd80      	pop	{r7, pc}
    1796:	bf00      	nop
    1798:	1000014c 	.word	0x1000014c
    179c:	1000012c 	.word	0x1000012c
    17a0:	10000050 	.word	0x10000050
    17a4:	e000ed04 	.word	0xe000ed04

000017a8 <uxTaskPriorityGet>:
    17a8:	b580      	push	{r7, lr}
    17aa:	b084      	sub	sp, #16
    17ac:	af00      	add	r7, sp, #0
    17ae:	6078      	str	r0, [r7, #4]
    17b0:	f006 fb02 	bl	7db8 <vPortEnterCritical>
    17b4:	687b      	ldr	r3, [r7, #4]
    17b6:	2b00      	cmp	r3, #0
    17b8:	d102      	bne.n	17c0 <uxTaskPriorityGet+0x18>
    17ba:	4b07      	ldr	r3, [pc, #28]	; (17d8 <uxTaskPriorityGet+0x30>)
    17bc:	681b      	ldr	r3, [r3, #0]
    17be:	e000      	b.n	17c2 <uxTaskPriorityGet+0x1a>
    17c0:	687b      	ldr	r3, [r7, #4]
    17c2:	60fb      	str	r3, [r7, #12]
    17c4:	68fb      	ldr	r3, [r7, #12]
    17c6:	6d1b      	ldr	r3, [r3, #80]	; 0x50
    17c8:	60bb      	str	r3, [r7, #8]
    17ca:	f006 fb13 	bl	7df4 <vPortExitCritical>
    17ce:	68bb      	ldr	r3, [r7, #8]
    17d0:	4618      	mov	r0, r3
    17d2:	3710      	adds	r7, #16
    17d4:	46bd      	mov	sp, r7
    17d6:	bd80      	pop	{r7, pc}
    17d8:	10000050 	.word	0x10000050

000017dc <uxTaskPriorityGetFromISR>:
    17dc:	b480      	push	{r7}
    17de:	b087      	sub	sp, #28
    17e0:	af00      	add	r7, sp, #0
    17e2:	6078      	str	r0, [r7, #4]
    17e4:	2300      	movs	r3, #0
    17e6:	617b      	str	r3, [r7, #20]
    17e8:	f04f 0028 	mov.w	r0, #40	; 0x28
    17ec:	f380 8811 	msr	BASEPRI, r0
    17f0:	687b      	ldr	r3, [r7, #4]
    17f2:	2b00      	cmp	r3, #0
    17f4:	d102      	bne.n	17fc <uxTaskPriorityGetFromISR+0x20>
    17f6:	4b09      	ldr	r3, [pc, #36]	; (181c <uxTaskPriorityGetFromISR+0x40>)
    17f8:	681b      	ldr	r3, [r3, #0]
    17fa:	e000      	b.n	17fe <uxTaskPriorityGetFromISR+0x22>
    17fc:	687b      	ldr	r3, [r7, #4]
    17fe:	613b      	str	r3, [r7, #16]
    1800:	693b      	ldr	r3, [r7, #16]
    1802:	6d1b      	ldr	r3, [r3, #80]	; 0x50
    1804:	60fb      	str	r3, [r7, #12]
    1806:	f04f 0000 	mov.w	r0, #0
    180a:	f380 8811 	msr	BASEPRI, r0
    180e:	68fb      	ldr	r3, [r7, #12]
    1810:	4618      	mov	r0, r3
    1812:	371c      	adds	r7, #28
    1814:	46bd      	mov	sp, r7
    1816:	bc80      	pop	{r7}
    1818:	4770      	bx	lr
    181a:	bf00      	nop
    181c:	10000050 	.word	0x10000050

00001820 <vTaskPrioritySet>:
    1820:	b580      	push	{r7, lr}
    1822:	b086      	sub	sp, #24
    1824:	af00      	add	r7, sp, #0
    1826:	6078      	str	r0, [r7, #4]
    1828:	6039      	str	r1, [r7, #0]
    182a:	2300      	movs	r3, #0
    182c:	617b      	str	r3, [r7, #20]
    182e:	683b      	ldr	r3, [r7, #0]
    1830:	2b04      	cmp	r3, #4
    1832:	d904      	bls.n	183e <vTaskPrioritySet+0x1e>
    1834:	f04f 0028 	mov.w	r0, #40	; 0x28
    1838:	f380 8811 	msr	BASEPRI, r0
    183c:	e7fe      	b.n	183c <vTaskPrioritySet+0x1c>
    183e:	683b      	ldr	r3, [r7, #0]
    1840:	2b04      	cmp	r3, #4
    1842:	d901      	bls.n	1848 <vTaskPrioritySet+0x28>
    1844:	2304      	movs	r3, #4
    1846:	603b      	str	r3, [r7, #0]
    1848:	f006 fab6 	bl	7db8 <vPortEnterCritical>
    184c:	687b      	ldr	r3, [r7, #4]
    184e:	2b00      	cmp	r3, #0
    1850:	d102      	bne.n	1858 <vTaskPrioritySet+0x38>
    1852:	4b3b      	ldr	r3, [pc, #236]	; (1940 <vTaskPrioritySet+0x120>)
    1854:	681b      	ldr	r3, [r3, #0]
    1856:	e000      	b.n	185a <vTaskPrioritySet+0x3a>
    1858:	687b      	ldr	r3, [r7, #4]
    185a:	613b      	str	r3, [r7, #16]
    185c:	693b      	ldr	r3, [r7, #16]
    185e:	6edb      	ldr	r3, [r3, #108]	; 0x6c
    1860:	60fb      	str	r3, [r7, #12]
    1862:	68fa      	ldr	r2, [r7, #12]
    1864:	683b      	ldr	r3, [r7, #0]
    1866:	429a      	cmp	r2, r3
    1868:	d064      	beq.n	1934 <vTaskPrioritySet+0x114>
    186a:	683a      	ldr	r2, [r7, #0]
    186c:	68fb      	ldr	r3, [r7, #12]
    186e:	429a      	cmp	r2, r3
    1870:	d90d      	bls.n	188e <vTaskPrioritySet+0x6e>
    1872:	4b33      	ldr	r3, [pc, #204]	; (1940 <vTaskPrioritySet+0x120>)
    1874:	681b      	ldr	r3, [r3, #0]
    1876:	693a      	ldr	r2, [r7, #16]
    1878:	429a      	cmp	r2, r3
    187a:	d00f      	beq.n	189c <vTaskPrioritySet+0x7c>
    187c:	4b30      	ldr	r3, [pc, #192]	; (1940 <vTaskPrioritySet+0x120>)
    187e:	681b      	ldr	r3, [r3, #0]
    1880:	6d1a      	ldr	r2, [r3, #80]	; 0x50
    1882:	683b      	ldr	r3, [r7, #0]
    1884:	429a      	cmp	r2, r3
    1886:	d809      	bhi.n	189c <vTaskPrioritySet+0x7c>
    1888:	2301      	movs	r3, #1
    188a:	617b      	str	r3, [r7, #20]
    188c:	e006      	b.n	189c <vTaskPrioritySet+0x7c>
    188e:	4b2c      	ldr	r3, [pc, #176]	; (1940 <vTaskPrioritySet+0x120>)
    1890:	681b      	ldr	r3, [r3, #0]
    1892:	693a      	ldr	r2, [r7, #16]
    1894:	429a      	cmp	r2, r3
    1896:	d101      	bne.n	189c <vTaskPrioritySet+0x7c>
    1898:	2301      	movs	r3, #1
    189a:	617b      	str	r3, [r7, #20]
    189c:	693b      	ldr	r3, [r7, #16]
    189e:	6d1b      	ldr	r3, [r3, #80]	; 0x50
    18a0:	60bb      	str	r3, [r7, #8]
    18a2:	693b      	ldr	r3, [r7, #16]
    18a4:	6eda      	ldr	r2, [r3, #108]	; 0x6c
    18a6:	693b      	ldr	r3, [r7, #16]
    18a8:	6d1b      	ldr	r3, [r3, #80]	; 0x50
    18aa:	429a      	cmp	r2, r3
    18ac:	d102      	bne.n	18b4 <vTaskPrioritySet+0x94>
    18ae:	693b      	ldr	r3, [r7, #16]
    18b0:	683a      	ldr	r2, [r7, #0]
    18b2:	651a      	str	r2, [r3, #80]	; 0x50
    18b4:	693b      	ldr	r3, [r7, #16]
    18b6:	683a      	ldr	r2, [r7, #0]
    18b8:	66da      	str	r2, [r3, #108]	; 0x6c
    18ba:	693b      	ldr	r3, [r7, #16]
    18bc:	6bdb      	ldr	r3, [r3, #60]	; 0x3c
    18be:	2b00      	cmp	r3, #0
    18c0:	db04      	blt.n	18cc <vTaskPrioritySet+0xac>
    18c2:	683b      	ldr	r3, [r7, #0]
    18c4:	f1c3 0205 	rsb	r2, r3, #5
    18c8:	693b      	ldr	r3, [r7, #16]
    18ca:	63da      	str	r2, [r3, #60]	; 0x3c
    18cc:	693b      	ldr	r3, [r7, #16]
    18ce:	6b99      	ldr	r1, [r3, #56]	; 0x38
    18d0:	68ba      	ldr	r2, [r7, #8]
    18d2:	4613      	mov	r3, r2
    18d4:	009b      	lsls	r3, r3, #2
    18d6:	4413      	add	r3, r2
    18d8:	009b      	lsls	r3, r3, #2
    18da:	4a1a      	ldr	r2, [pc, #104]	; (1944 <vTaskPrioritySet+0x124>)
    18dc:	4413      	add	r3, r2
    18de:	4299      	cmp	r1, r3
    18e0:	d101      	bne.n	18e6 <vTaskPrioritySet+0xc6>
    18e2:	2301      	movs	r3, #1
    18e4:	e000      	b.n	18e8 <vTaskPrioritySet+0xc8>
    18e6:	2300      	movs	r3, #0
    18e8:	2b00      	cmp	r3, #0
    18ea:	d01c      	beq.n	1926 <vTaskPrioritySet+0x106>
    18ec:	693b      	ldr	r3, [r7, #16]
    18ee:	3328      	adds	r3, #40	; 0x28
    18f0:	4618      	mov	r0, r3
    18f2:	f006 fd03 	bl	82fc <uxListRemove>
    18f6:	693b      	ldr	r3, [r7, #16]
    18f8:	6d1a      	ldr	r2, [r3, #80]	; 0x50
    18fa:	4b13      	ldr	r3, [pc, #76]	; (1948 <vTaskPrioritySet+0x128>)
    18fc:	681b      	ldr	r3, [r3, #0]
    18fe:	429a      	cmp	r2, r3
    1900:	d903      	bls.n	190a <vTaskPrioritySet+0xea>
    1902:	693b      	ldr	r3, [r7, #16]
    1904:	6d1b      	ldr	r3, [r3, #80]	; 0x50
    1906:	4a10      	ldr	r2, [pc, #64]	; (1948 <vTaskPrioritySet+0x128>)
    1908:	6013      	str	r3, [r2, #0]
    190a:	693b      	ldr	r3, [r7, #16]
    190c:	6d1a      	ldr	r2, [r3, #80]	; 0x50
    190e:	4613      	mov	r3, r2
    1910:	009b      	lsls	r3, r3, #2
    1912:	4413      	add	r3, r2
    1914:	009b      	lsls	r3, r3, #2
    1916:	4a0b      	ldr	r2, [pc, #44]	; (1944 <vTaskPrioritySet+0x124>)
    1918:	441a      	add	r2, r3
    191a:	693b      	ldr	r3, [r7, #16]
    191c:	3328      	adds	r3, #40	; 0x28
    191e:	4619      	mov	r1, r3
    1920:	4610      	mov	r0, r2
    1922:	f006 fc8f 	bl	8244 <vListInsertEnd>
    1926:	697b      	ldr	r3, [r7, #20]
    1928:	2b01      	cmp	r3, #1
    192a:	d103      	bne.n	1934 <vTaskPrioritySet+0x114>
    192c:	4b07      	ldr	r3, [pc, #28]	; (194c <vTaskPrioritySet+0x12c>)
    192e:	f04f 5280 	mov.w	r2, #268435456	; 0x10000000
    1932:	601a      	str	r2, [r3, #0]
    1934:	f006 fa5e 	bl	7df4 <vPortExitCritical>
    1938:	bf00      	nop
    193a:	3718      	adds	r7, #24
    193c:	46bd      	mov	sp, r7
    193e:	bd80      	pop	{r7, pc}
    1940:	10000050 	.word	0x10000050
    1944:	10000054 	.word	0x10000054
    1948:	10000130 	.word	0x10000130
    194c:	e000ed04 	.word	0xe000ed04

00001950 <vTaskSuspend>:
    1950:	b580      	push	{r7, lr}
    1952:	b084      	sub	sp, #16
    1954:	af00      	add	r7, sp, #0
    1956:	6078      	str	r0, [r7, #4]
    1958:	f006 fa2e 	bl	7db8 <vPortEnterCritical>
    195c:	687b      	ldr	r3, [r7, #4]
    195e:	2b00      	cmp	r3, #0
    1960:	d102      	bne.n	1968 <vTaskSuspend+0x18>
    1962:	4b26      	ldr	r3, [pc, #152]	; (19fc <vTaskSuspend+0xac>)
    1964:	681b      	ldr	r3, [r3, #0]
    1966:	e000      	b.n	196a <vTaskSuspend+0x1a>
    1968:	687b      	ldr	r3, [r7, #4]
    196a:	60fb      	str	r3, [r7, #12]
    196c:	68fb      	ldr	r3, [r7, #12]
    196e:	3328      	adds	r3, #40	; 0x28
    1970:	4618      	mov	r0, r3
    1972:	f006 fcc3 	bl	82fc <uxListRemove>
    1976:	68fb      	ldr	r3, [r7, #12]
    1978:	6cdb      	ldr	r3, [r3, #76]	; 0x4c
    197a:	2b00      	cmp	r3, #0
    197c:	d004      	beq.n	1988 <vTaskSuspend+0x38>
    197e:	68fb      	ldr	r3, [r7, #12]
    1980:	333c      	adds	r3, #60	; 0x3c
    1982:	4618      	mov	r0, r3
    1984:	f006 fcba 	bl	82fc <uxListRemove>
    1988:	68fb      	ldr	r3, [r7, #12]
    198a:	3328      	adds	r3, #40	; 0x28
    198c:	4619      	mov	r1, r3
    198e:	481c      	ldr	r0, [pc, #112]	; (1a00 <vTaskSuspend+0xb0>)
    1990:	f006 fc58 	bl	8244 <vListInsertEnd>
    1994:	f006 fa2e 	bl	7df4 <vPortExitCritical>
    1998:	4b18      	ldr	r3, [pc, #96]	; (19fc <vTaskSuspend+0xac>)
    199a:	681b      	ldr	r3, [r3, #0]
    199c:	68fa      	ldr	r2, [r7, #12]
    199e:	429a      	cmp	r2, r3
    19a0:	d11e      	bne.n	19e0 <vTaskSuspend+0x90>
    19a2:	4b18      	ldr	r3, [pc, #96]	; (1a04 <vTaskSuspend+0xb4>)
    19a4:	681b      	ldr	r3, [r3, #0]
    19a6:	2b00      	cmp	r3, #0
    19a8:	d00d      	beq.n	19c6 <vTaskSuspend+0x76>
    19aa:	4b17      	ldr	r3, [pc, #92]	; (1a08 <vTaskSuspend+0xb8>)
    19ac:	681b      	ldr	r3, [r3, #0]
    19ae:	2b00      	cmp	r3, #0
    19b0:	d004      	beq.n	19bc <vTaskSuspend+0x6c>
    19b2:	f04f 0028 	mov.w	r0, #40	; 0x28
    19b6:	f380 8811 	msr	BASEPRI, r0
    19ba:	e7fe      	b.n	19ba <vTaskSuspend+0x6a>
    19bc:	4b13      	ldr	r3, [pc, #76]	; (1a0c <vTaskSuspend+0xbc>)
    19be:	f04f 5280 	mov.w	r2, #268435456	; 0x10000000
    19c2:	601a      	str	r2, [r3, #0]
    19c4:	e016      	b.n	19f4 <vTaskSuspend+0xa4>
    19c6:	4b0e      	ldr	r3, [pc, #56]	; (1a00 <vTaskSuspend+0xb0>)
    19c8:	681a      	ldr	r2, [r3, #0]
    19ca:	4b11      	ldr	r3, [pc, #68]	; (1a10 <vTaskSuspend+0xc0>)
    19cc:	681b      	ldr	r3, [r3, #0]
    19ce:	429a      	cmp	r2, r3
    19d0:	d103      	bne.n	19da <vTaskSuspend+0x8a>
    19d2:	4b0a      	ldr	r3, [pc, #40]	; (19fc <vTaskSuspend+0xac>)
    19d4:	2200      	movs	r2, #0
    19d6:	601a      	str	r2, [r3, #0]
    19d8:	e00c      	b.n	19f4 <vTaskSuspend+0xa4>
    19da:	f001 f81f 	bl	2a1c <vTaskSwitchContext>
    19de:	e009      	b.n	19f4 <vTaskSuspend+0xa4>
    19e0:	4b08      	ldr	r3, [pc, #32]	; (1a04 <vTaskSuspend+0xb4>)
    19e2:	681b      	ldr	r3, [r3, #0]
    19e4:	2b00      	cmp	r3, #0
    19e6:	d005      	beq.n	19f4 <vTaskSuspend+0xa4>
    19e8:	f006 f9e6 	bl	7db8 <vPortEnterCritical>
    19ec:	f006 fcb8 	bl	8360 <prvResetNextTaskUnblockTime>
    19f0:	f006 fa00 	bl	7df4 <vPortExitCritical>
    19f4:	bf00      	nop
    19f6:	3710      	adds	r7, #16
    19f8:	46bd      	mov	sp, r7
    19fa:	bd80      	pop	{r7, pc}
    19fc:	10000050 	.word	0x10000050
    1a00:	10000114 	.word	0x10000114
    1a04:	10000134 	.word	0x10000134
    1a08:	1000014c 	.word	0x1000014c
    1a0c:	e000ed04 	.word	0xe000ed04
    1a10:	10000128 	.word	0x10000128

00001a14 <vTaskResume>:
    1a14:	b580      	push	{r7, lr}
    1a16:	b084      	sub	sp, #16
    1a18:	af00      	add	r7, sp, #0
    1a1a:	6078      	str	r0, [r7, #4]
    1a1c:	687b      	ldr	r3, [r7, #4]
    1a1e:	60fb      	str	r3, [r7, #12]
    1a20:	687b      	ldr	r3, [r7, #4]
    1a22:	2b00      	cmp	r3, #0
    1a24:	d104      	bne.n	1a30 <vTaskResume+0x1c>
    1a26:	f04f 0028 	mov.w	r0, #40	; 0x28
    1a2a:	f380 8811 	msr	BASEPRI, r0
    1a2e:	e7fe      	b.n	1a2e <vTaskResume+0x1a>
    1a30:	68fb      	ldr	r3, [r7, #12]
    1a32:	2b00      	cmp	r3, #0
    1a34:	d036      	beq.n	1aa4 <vTaskResume+0x90>
    1a36:	4b1d      	ldr	r3, [pc, #116]	; (1aac <vTaskResume+0x98>)
    1a38:	681b      	ldr	r3, [r3, #0]
    1a3a:	68fa      	ldr	r2, [r7, #12]
    1a3c:	429a      	cmp	r2, r3
    1a3e:	d031      	beq.n	1aa4 <vTaskResume+0x90>
    1a40:	f006 f9ba 	bl	7db8 <vPortEnterCritical>
    1a44:	68f8      	ldr	r0, [r7, #12]
    1a46:	f001 fb77 	bl	3138 <prvTaskIsTaskSuspended>
    1a4a:	4603      	mov	r3, r0
    1a4c:	2b01      	cmp	r3, #1
    1a4e:	d127      	bne.n	1aa0 <vTaskResume+0x8c>
    1a50:	68fb      	ldr	r3, [r7, #12]
    1a52:	3328      	adds	r3, #40	; 0x28
    1a54:	4618      	mov	r0, r3
    1a56:	f006 fc51 	bl	82fc <uxListRemove>
    1a5a:	68fb      	ldr	r3, [r7, #12]
    1a5c:	6d1a      	ldr	r2, [r3, #80]	; 0x50
    1a5e:	4b14      	ldr	r3, [pc, #80]	; (1ab0 <vTaskResume+0x9c>)
    1a60:	681b      	ldr	r3, [r3, #0]
    1a62:	429a      	cmp	r2, r3
    1a64:	d903      	bls.n	1a6e <vTaskResume+0x5a>
    1a66:	68fb      	ldr	r3, [r7, #12]
    1a68:	6d1b      	ldr	r3, [r3, #80]	; 0x50
    1a6a:	4a11      	ldr	r2, [pc, #68]	; (1ab0 <vTaskResume+0x9c>)
    1a6c:	6013      	str	r3, [r2, #0]
    1a6e:	68fb      	ldr	r3, [r7, #12]
    1a70:	6d1a      	ldr	r2, [r3, #80]	; 0x50
    1a72:	4613      	mov	r3, r2
    1a74:	009b      	lsls	r3, r3, #2
    1a76:	4413      	add	r3, r2
    1a78:	009b      	lsls	r3, r3, #2
    1a7a:	4a0e      	ldr	r2, [pc, #56]	; (1ab4 <vTaskResume+0xa0>)
    1a7c:	441a      	add	r2, r3
    1a7e:	68fb      	ldr	r3, [r7, #12]
    1a80:	3328      	adds	r3, #40	; 0x28
    1a82:	4619      	mov	r1, r3
    1a84:	4610      	mov	r0, r2
    1a86:	f006 fbdd 	bl	8244 <vListInsertEnd>
    1a8a:	68fb      	ldr	r3, [r7, #12]
    1a8c:	6d1a      	ldr	r2, [r3, #80]	; 0x50
    1a8e:	4b07      	ldr	r3, [pc, #28]	; (1aac <vTaskResume+0x98>)
    1a90:	681b      	ldr	r3, [r3, #0]
    1a92:	6d1b      	ldr	r3, [r3, #80]	; 0x50
    1a94:	429a      	cmp	r2, r3
    1a96:	d303      	bcc.n	1aa0 <vTaskResume+0x8c>
    1a98:	4b07      	ldr	r3, [pc, #28]	; (1ab8 <vTaskResume+0xa4>)
    1a9a:	f04f 5280 	mov.w	r2, #268435456	; 0x10000000
    1a9e:	601a      	str	r2, [r3, #0]
    1aa0:	f006 f9a8 	bl	7df4 <vPortExitCritical>
    1aa4:	bf00      	nop
    1aa6:	3710      	adds	r7, #16
    1aa8:	46bd      	mov	sp, r7
    1aaa:	bd80      	pop	{r7, pc}
    1aac:	10000050 	.word	0x10000050
    1ab0:	10000130 	.word	0x10000130
    1ab4:	10000054 	.word	0x10000054
    1ab8:	e000ed04 	.word	0xe000ed04

00001abc <xTaskResumeFromISR>:
    1abc:	b580      	push	{r7, lr}
    1abe:	b086      	sub	sp, #24
    1ac0:	af00      	add	r7, sp, #0
    1ac2:	6078      	str	r0, [r7, #4]
    1ac4:	2300      	movs	r3, #0
    1ac6:	617b      	str	r3, [r7, #20]
    1ac8:	687b      	ldr	r3, [r7, #4]
    1aca:	613b      	str	r3, [r7, #16]
    1acc:	687b      	ldr	r3, [r7, #4]
    1ace:	2b00      	cmp	r3, #0
    1ad0:	d104      	bne.n	1adc <xTaskResumeFromISR+0x20>
    1ad2:	f04f 0028 	mov.w	r0, #40	; 0x28
    1ad6:	f380 8811 	msr	BASEPRI, r0
    1ada:	e7fe      	b.n	1ada <xTaskResumeFromISR+0x1e>
    1adc:	2300      	movs	r3, #0
    1ade:	60fb      	str	r3, [r7, #12]
    1ae0:	f04f 0028 	mov.w	r0, #40	; 0x28
    1ae4:	f380 8811 	msr	BASEPRI, r0
    1ae8:	6938      	ldr	r0, [r7, #16]
    1aea:	f001 fb25 	bl	3138 <prvTaskIsTaskSuspended>
    1aee:	4603      	mov	r3, r0
    1af0:	2b01      	cmp	r3, #1
    1af2:	d130      	bne.n	1b56 <xTaskResumeFromISR+0x9a>
    1af4:	4b1c      	ldr	r3, [pc, #112]	; (1b68 <xTaskResumeFromISR+0xac>)
    1af6:	681b      	ldr	r3, [r3, #0]
    1af8:	2b00      	cmp	r3, #0
    1afa:	d126      	bne.n	1b4a <xTaskResumeFromISR+0x8e>
    1afc:	693b      	ldr	r3, [r7, #16]
    1afe:	6d1a      	ldr	r2, [r3, #80]	; 0x50
    1b00:	4b1a      	ldr	r3, [pc, #104]	; (1b6c <xTaskResumeFromISR+0xb0>)
    1b02:	681b      	ldr	r3, [r3, #0]
    1b04:	6d1b      	ldr	r3, [r3, #80]	; 0x50
    1b06:	429a      	cmp	r2, r3
    1b08:	d301      	bcc.n	1b0e <xTaskResumeFromISR+0x52>
    1b0a:	2301      	movs	r3, #1
    1b0c:	617b      	str	r3, [r7, #20]
    1b0e:	693b      	ldr	r3, [r7, #16]
    1b10:	3328      	adds	r3, #40	; 0x28
    1b12:	4618      	mov	r0, r3
    1b14:	f006 fbf2 	bl	82fc <uxListRemove>
    1b18:	693b      	ldr	r3, [r7, #16]
    1b1a:	6d1a      	ldr	r2, [r3, #80]	; 0x50
    1b1c:	4b14      	ldr	r3, [pc, #80]	; (1b70 <xTaskResumeFromISR+0xb4>)
    1b1e:	681b      	ldr	r3, [r3, #0]
    1b20:	429a      	cmp	r2, r3
    1b22:	d903      	bls.n	1b2c <xTaskResumeFromISR+0x70>
    1b24:	693b      	ldr	r3, [r7, #16]
    1b26:	6d1b      	ldr	r3, [r3, #80]	; 0x50
    1b28:	4a11      	ldr	r2, [pc, #68]	; (1b70 <xTaskResumeFromISR+0xb4>)
    1b2a:	6013      	str	r3, [r2, #0]
    1b2c:	693b      	ldr	r3, [r7, #16]
    1b2e:	6d1a      	ldr	r2, [r3, #80]	; 0x50
    1b30:	4613      	mov	r3, r2
    1b32:	009b      	lsls	r3, r3, #2
    1b34:	4413      	add	r3, r2
    1b36:	009b      	lsls	r3, r3, #2
    1b38:	4a0e      	ldr	r2, [pc, #56]	; (1b74 <xTaskResumeFromISR+0xb8>)
    1b3a:	441a      	add	r2, r3
    1b3c:	693b      	ldr	r3, [r7, #16]
    1b3e:	3328      	adds	r3, #40	; 0x28
    1b40:	4619      	mov	r1, r3
    1b42:	4610      	mov	r0, r2
    1b44:	f006 fb7e 	bl	8244 <vListInsertEnd>
    1b48:	e005      	b.n	1b56 <xTaskResumeFromISR+0x9a>
    1b4a:	693b      	ldr	r3, [r7, #16]
    1b4c:	333c      	adds	r3, #60	; 0x3c
    1b4e:	4619      	mov	r1, r3
    1b50:	4809      	ldr	r0, [pc, #36]	; (1b78 <xTaskResumeFromISR+0xbc>)
    1b52:	f006 fb77 	bl	8244 <vListInsertEnd>
    1b56:	f04f 0000 	mov.w	r0, #0
    1b5a:	f380 8811 	msr	BASEPRI, r0
    1b5e:	697b      	ldr	r3, [r7, #20]
    1b60:	4618      	mov	r0, r3
    1b62:	3718      	adds	r7, #24
    1b64:	46bd      	mov	sp, r7
    1b66:	bd80      	pop	{r7, pc}
    1b68:	1000014c 	.word	0x1000014c
    1b6c:	10000050 	.word	0x10000050
    1b70:	10000130 	.word	0x10000130
    1b74:	10000054 	.word	0x10000054
    1b78:	100000e8 	.word	0x100000e8

00001b7c <vTaskStartScheduler>:
    1b7c:	b580      	push	{r7, lr}
    1b7e:	b086      	sub	sp, #24
    1b80:	af04      	add	r7, sp, #16
    1b82:	2300      	movs	r3, #0
    1b84:	9303      	str	r3, [sp, #12]
    1b86:	2300      	movs	r3, #0
    1b88:	9302      	str	r3, [sp, #8]
    1b8a:	2300      	movs	r3, #0
    1b8c:	9301      	str	r3, [sp, #4]
    1b8e:	f04f 4300 	mov.w	r3, #2147483648	; 0x80000000
    1b92:	9300      	str	r3, [sp, #0]
    1b94:	2300      	movs	r3, #0
    1b96:	225a      	movs	r2, #90	; 0x5a
    1b98:	4916      	ldr	r1, [pc, #88]	; (1bf4 <vTaskStartScheduler+0x78>)
    1b9a:	4817      	ldr	r0, [pc, #92]	; (1bf8 <vTaskStartScheduler+0x7c>)
    1b9c:	f001 f958 	bl	2e50 <xTaskGenericCreate>
    1ba0:	6078      	str	r0, [r7, #4]
    1ba2:	687b      	ldr	r3, [r7, #4]
    1ba4:	2b01      	cmp	r3, #1
    1ba6:	d102      	bne.n	1bae <vTaskStartScheduler+0x32>
    1ba8:	f001 fd40 	bl	362c <xTimerCreateTimerTask>
    1bac:	6078      	str	r0, [r7, #4]
    1bae:	687b      	ldr	r3, [r7, #4]
    1bb0:	2b01      	cmp	r3, #1
    1bb2:	d112      	bne.n	1bda <vTaskStartScheduler+0x5e>
    1bb4:	f04f 0028 	mov.w	r0, #40	; 0x28
    1bb8:	f380 8811 	msr	BASEPRI, r0
    1bbc:	4b0f      	ldr	r3, [pc, #60]	; (1bfc <vTaskStartScheduler+0x80>)
    1bbe:	f04f 32ff 	mov.w	r2, #4294967295
    1bc2:	601a      	str	r2, [r3, #0]
    1bc4:	4b0e      	ldr	r3, [pc, #56]	; (1c00 <vTaskStartScheduler+0x84>)
    1bc6:	2201      	movs	r2, #1
    1bc8:	601a      	str	r2, [r3, #0]
    1bca:	4b0e      	ldr	r3, [pc, #56]	; (1c04 <vTaskStartScheduler+0x88>)
    1bcc:	2200      	movs	r2, #0
    1bce:	601a      	str	r2, [r3, #0]
    1bd0:	f009 fd62 	bl	b698 <vMainConfigureTimerForRunTimeStats>
    1bd4:	f7fe fb8a 	bl	2ec <xPortStartScheduler>
    1bd8:	e007      	b.n	1bea <vTaskStartScheduler+0x6e>
    1bda:	687b      	ldr	r3, [r7, #4]
    1bdc:	2b00      	cmp	r3, #0
    1bde:	d104      	bne.n	1bea <vTaskStartScheduler+0x6e>
    1be0:	f04f 0028 	mov.w	r0, #40	; 0x28
    1be4:	f380 8811 	msr	BASEPRI, r0
    1be8:	e7fe      	b.n	1be8 <vTaskStartScheduler+0x6c>
    1bea:	bf00      	nop
    1bec:	3708      	adds	r7, #8
    1bee:	46bd      	mov	sp, r7
    1bf0:	bd80      	pop	{r7, pc}
    1bf2:	bf00      	nop
    1bf4:	0000e610 	.word	0x0000e610
    1bf8:	00008351 	.word	0x00008351
    1bfc:	10000148 	.word	0x10000148
    1c00:	10000134 	.word	0x10000134
    1c04:	1000012c 	.word	0x1000012c

00001c08 <vTaskEndScheduler>:
    1c08:	b580      	push	{r7, lr}
    1c0a:	af00      	add	r7, sp, #0
    1c0c:	f04f 0028 	mov.w	r0, #40	; 0x28
    1c10:	f380 8811 	msr	BASEPRI, r0
    1c14:	4b03      	ldr	r3, [pc, #12]	; (1c24 <vTaskEndScheduler+0x1c>)
    1c16:	2200      	movs	r2, #0
    1c18:	601a      	str	r2, [r3, #0]
    1c1a:	f7fe fb85 	bl	328 <vPortEndScheduler>
    1c1e:	bf00      	nop
    1c20:	bd80      	pop	{r7, pc}
    1c22:	bf00      	nop
    1c24:	10000134 	.word	0x10000134

00001c28 <vTaskSuspendAll>:
    1c28:	b480      	push	{r7}
    1c2a:	af00      	add	r7, sp, #0
    1c2c:	4b04      	ldr	r3, [pc, #16]	; (1c40 <vTaskSuspendAll+0x18>)
    1c2e:	681b      	ldr	r3, [r3, #0]
    1c30:	3301      	adds	r3, #1
    1c32:	4a03      	ldr	r2, [pc, #12]	; (1c40 <vTaskSuspendAll+0x18>)
    1c34:	6013      	str	r3, [r2, #0]
    1c36:	bf00      	nop
    1c38:	46bd      	mov	sp, r7
    1c3a:	bc80      	pop	{r7}
    1c3c:	4770      	bx	lr
    1c3e:	bf00      	nop
    1c40:	1000014c 	.word	0x1000014c

00001c44 <xTaskResumeAll>:
    1c44:	b580      	push	{r7, lr}
    1c46:	b082      	sub	sp, #8
    1c48:	af00      	add	r7, sp, #0
    1c4a:	2300      	movs	r3, #0
    1c4c:	607b      	str	r3, [r7, #4]
    1c4e:	4b3a      	ldr	r3, [pc, #232]	; (1d38 <xTaskResumeAll+0xf4>)
    1c50:	681b      	ldr	r3, [r3, #0]
    1c52:	2b00      	cmp	r3, #0
    1c54:	d104      	bne.n	1c60 <xTaskResumeAll+0x1c>
    1c56:	f04f 0028 	mov.w	r0, #40	; 0x28
    1c5a:	f380 8811 	msr	BASEPRI, r0
    1c5e:	e7fe      	b.n	1c5e <xTaskResumeAll+0x1a>
    1c60:	f006 f8aa 	bl	7db8 <vPortEnterCritical>
    1c64:	4b34      	ldr	r3, [pc, #208]	; (1d38 <xTaskResumeAll+0xf4>)
    1c66:	681b      	ldr	r3, [r3, #0]
    1c68:	3b01      	subs	r3, #1
    1c6a:	4a33      	ldr	r2, [pc, #204]	; (1d38 <xTaskResumeAll+0xf4>)
    1c6c:	6013      	str	r3, [r2, #0]
    1c6e:	4b32      	ldr	r3, [pc, #200]	; (1d38 <xTaskResumeAll+0xf4>)
    1c70:	681b      	ldr	r3, [r3, #0]
    1c72:	2b00      	cmp	r3, #0
    1c74:	d158      	bne.n	1d28 <xTaskResumeAll+0xe4>
    1c76:	4b31      	ldr	r3, [pc, #196]	; (1d3c <xTaskResumeAll+0xf8>)
    1c78:	681b      	ldr	r3, [r3, #0]
    1c7a:	2b00      	cmp	r3, #0
    1c7c:	d054      	beq.n	1d28 <xTaskResumeAll+0xe4>
    1c7e:	e02f      	b.n	1ce0 <xTaskResumeAll+0x9c>
    1c80:	4b2f      	ldr	r3, [pc, #188]	; (1d40 <xTaskResumeAll+0xfc>)
    1c82:	68db      	ldr	r3, [r3, #12]
    1c84:	68db      	ldr	r3, [r3, #12]
    1c86:	603b      	str	r3, [r7, #0]
    1c88:	683b      	ldr	r3, [r7, #0]
    1c8a:	333c      	adds	r3, #60	; 0x3c
    1c8c:	4618      	mov	r0, r3
    1c8e:	f006 fb35 	bl	82fc <uxListRemove>
    1c92:	683b      	ldr	r3, [r7, #0]
    1c94:	3328      	adds	r3, #40	; 0x28
    1c96:	4618      	mov	r0, r3
    1c98:	f006 fb30 	bl	82fc <uxListRemove>
    1c9c:	683b      	ldr	r3, [r7, #0]
    1c9e:	6d1a      	ldr	r2, [r3, #80]	; 0x50
    1ca0:	4b28      	ldr	r3, [pc, #160]	; (1d44 <xTaskResumeAll+0x100>)
    1ca2:	681b      	ldr	r3, [r3, #0]
    1ca4:	429a      	cmp	r2, r3
    1ca6:	d903      	bls.n	1cb0 <xTaskResumeAll+0x6c>
    1ca8:	683b      	ldr	r3, [r7, #0]
    1caa:	6d1b      	ldr	r3, [r3, #80]	; 0x50
    1cac:	4a25      	ldr	r2, [pc, #148]	; (1d44 <xTaskResumeAll+0x100>)
    1cae:	6013      	str	r3, [r2, #0]
    1cb0:	683b      	ldr	r3, [r7, #0]
    1cb2:	6d1a      	ldr	r2, [r3, #80]	; 0x50
    1cb4:	4613      	mov	r3, r2
    1cb6:	009b      	lsls	r3, r3, #2
    1cb8:	4413      	add	r3, r2
    1cba:	009b      	lsls	r3, r3, #2
    1cbc:	4a22      	ldr	r2, [pc, #136]	; (1d48 <xTaskResumeAll+0x104>)
    1cbe:	441a      	add	r2, r3
    1cc0:	683b      	ldr	r3, [r7, #0]
    1cc2:	3328      	adds	r3, #40	; 0x28
    1cc4:	4619      	mov	r1, r3
    1cc6:	4610      	mov	r0, r2
    1cc8:	f006 fabc 	bl	8244 <vListInsertEnd>
    1ccc:	683b      	ldr	r3, [r7, #0]
    1cce:	6d1a      	ldr	r2, [r3, #80]	; 0x50
    1cd0:	4b1e      	ldr	r3, [pc, #120]	; (1d4c <xTaskResumeAll+0x108>)
    1cd2:	681b      	ldr	r3, [r3, #0]
    1cd4:	6d1b      	ldr	r3, [r3, #80]	; 0x50
    1cd6:	429a      	cmp	r2, r3
    1cd8:	d302      	bcc.n	1ce0 <xTaskResumeAll+0x9c>
    1cda:	4b1d      	ldr	r3, [pc, #116]	; (1d50 <xTaskResumeAll+0x10c>)
    1cdc:	2201      	movs	r2, #1
    1cde:	601a      	str	r2, [r3, #0]
    1ce0:	4b17      	ldr	r3, [pc, #92]	; (1d40 <xTaskResumeAll+0xfc>)
    1ce2:	681b      	ldr	r3, [r3, #0]
    1ce4:	2b00      	cmp	r3, #0
    1ce6:	d1cb      	bne.n	1c80 <xTaskResumeAll+0x3c>
    1ce8:	4b1a      	ldr	r3, [pc, #104]	; (1d54 <xTaskResumeAll+0x110>)
    1cea:	681b      	ldr	r3, [r3, #0]
    1cec:	2b00      	cmp	r3, #0
    1cee:	d011      	beq.n	1d14 <xTaskResumeAll+0xd0>
    1cf0:	e00c      	b.n	1d0c <xTaskResumeAll+0xc8>
    1cf2:	f000 fc65 	bl	25c0 <xTaskIncrementTick>
    1cf6:	4603      	mov	r3, r0
    1cf8:	2b00      	cmp	r3, #0
    1cfa:	d002      	beq.n	1d02 <xTaskResumeAll+0xbe>
    1cfc:	4b14      	ldr	r3, [pc, #80]	; (1d50 <xTaskResumeAll+0x10c>)
    1cfe:	2201      	movs	r2, #1
    1d00:	601a      	str	r2, [r3, #0]
    1d02:	4b14      	ldr	r3, [pc, #80]	; (1d54 <xTaskResumeAll+0x110>)
    1d04:	681b      	ldr	r3, [r3, #0]
    1d06:	3b01      	subs	r3, #1
    1d08:	4a12      	ldr	r2, [pc, #72]	; (1d54 <xTaskResumeAll+0x110>)
    1d0a:	6013      	str	r3, [r2, #0]
    1d0c:	4b11      	ldr	r3, [pc, #68]	; (1d54 <xTaskResumeAll+0x110>)
    1d0e:	681b      	ldr	r3, [r3, #0]
    1d10:	2b00      	cmp	r3, #0
    1d12:	d1ee      	bne.n	1cf2 <xTaskResumeAll+0xae>
    1d14:	4b0e      	ldr	r3, [pc, #56]	; (1d50 <xTaskResumeAll+0x10c>)
    1d16:	681b      	ldr	r3, [r3, #0]
    1d18:	2b01      	cmp	r3, #1
    1d1a:	d105      	bne.n	1d28 <xTaskResumeAll+0xe4>
    1d1c:	2301      	movs	r3, #1
    1d1e:	607b      	str	r3, [r7, #4]
    1d20:	4b0d      	ldr	r3, [pc, #52]	; (1d58 <xTaskResumeAll+0x114>)
    1d22:	f04f 5280 	mov.w	r2, #268435456	; 0x10000000
    1d26:	601a      	str	r2, [r3, #0]
    1d28:	f006 f864 	bl	7df4 <vPortExitCritical>
    1d2c:	687b      	ldr	r3, [r7, #4]
    1d2e:	4618      	mov	r0, r3
    1d30:	3708      	adds	r7, #8
    1d32:	46bd      	mov	sp, r7
    1d34:	bd80      	pop	{r7, pc}
    1d36:	bf00      	nop
    1d38:	1000014c 	.word	0x1000014c
    1d3c:	10000128 	.word	0x10000128
    1d40:	100000e8 	.word	0x100000e8
    1d44:	10000130 	.word	0x10000130
    1d48:	10000054 	.word	0x10000054
    1d4c:	10000050 	.word	0x10000050
    1d50:	1000013c 	.word	0x1000013c
    1d54:	10000138 	.word	0x10000138
    1d58:	e000ed04 	.word	0xe000ed04

00001d5c <xTaskGetTickCount>:
    1d5c:	b480      	push	{r7}
    1d5e:	b083      	sub	sp, #12
    1d60:	af00      	add	r7, sp, #0
    1d62:	4b04      	ldr	r3, [pc, #16]	; (1d74 <xTaskGetTickCount+0x18>)
    1d64:	681b      	ldr	r3, [r3, #0]
    1d66:	607b      	str	r3, [r7, #4]
    1d68:	687b      	ldr	r3, [r7, #4]
    1d6a:	4618      	mov	r0, r3
    1d6c:	370c      	adds	r7, #12
    1d6e:	46bd      	mov	sp, r7
    1d70:	bc80      	pop	{r7}
    1d72:	4770      	bx	lr
    1d74:	1000012c 	.word	0x1000012c

00001d78 <xTaskGetTickCountFromISR>:
    1d78:	b480      	push	{r7}
    1d7a:	b083      	sub	sp, #12
    1d7c:	af00      	add	r7, sp, #0
    1d7e:	2300      	movs	r3, #0
    1d80:	607b      	str	r3, [r7, #4]
    1d82:	4b04      	ldr	r3, [pc, #16]	; (1d94 <xTaskGetTickCountFromISR+0x1c>)
    1d84:	681b      	ldr	r3, [r3, #0]
    1d86:	603b      	str	r3, [r7, #0]
    1d88:	683b      	ldr	r3, [r7, #0]
    1d8a:	4618      	mov	r0, r3
    1d8c:	370c      	adds	r7, #12
    1d8e:	46bd      	mov	sp, r7
    1d90:	bc80      	pop	{r7}
    1d92:	4770      	bx	lr
    1d94:	1000012c 	.word	0x1000012c

00001d98 <uxTaskGetNumberOfTasks>:
    1d98:	b480      	push	{r7}
    1d9a:	af00      	add	r7, sp, #0
    1d9c:	4b02      	ldr	r3, [pc, #8]	; (1da8 <uxTaskGetNumberOfTasks+0x10>)
    1d9e:	681b      	ldr	r3, [r3, #0]
    1da0:	4618      	mov	r0, r3
    1da2:	46bd      	mov	sp, r7
    1da4:	bc80      	pop	{r7}
    1da6:	4770      	bx	lr
    1da8:	10000128 	.word	0x10000128

00001dac <uxTaskGetStackHighWaterMark>:
    1dac:	b580      	push	{r7, lr}
    1dae:	b086      	sub	sp, #24
    1db0:	af00      	add	r7, sp, #0
    1db2:	6078      	str	r0, [r7, #4]
    1db4:	687b      	ldr	r3, [r7, #4]
    1db6:	2b00      	cmp	r3, #0
    1db8:	d102      	bne.n	1dc0 <uxTaskGetStackHighWaterMark+0x14>
    1dba:	4b09      	ldr	r3, [pc, #36]	; (1de0 <uxTaskGetStackHighWaterMark+0x34>)
    1dbc:	681b      	ldr	r3, [r3, #0]
    1dbe:	e000      	b.n	1dc2 <uxTaskGetStackHighWaterMark+0x16>
    1dc0:	687b      	ldr	r3, [r7, #4]
    1dc2:	617b      	str	r3, [r7, #20]
    1dc4:	697b      	ldr	r3, [r7, #20]
    1dc6:	6d5b      	ldr	r3, [r3, #84]	; 0x54
    1dc8:	613b      	str	r3, [r7, #16]
    1dca:	6938      	ldr	r0, [r7, #16]
    1dcc:	f001 fb70 	bl	34b0 <prvTaskCheckFreeStackSpace>
    1dd0:	4603      	mov	r3, r0
    1dd2:	60fb      	str	r3, [r7, #12]
    1dd4:	68fb      	ldr	r3, [r7, #12]
    1dd6:	4618      	mov	r0, r3
    1dd8:	3718      	adds	r7, #24
    1dda:	46bd      	mov	sp, r7
    1ddc:	bd80      	pop	{r7, pc}
    1dde:	bf00      	nop
    1de0:	10000050 	.word	0x10000050

00001de4 <uxTaskGetSystemState>:
    1de4:	b580      	push	{r7, lr}
    1de6:	b086      	sub	sp, #24
    1de8:	af00      	add	r7, sp, #0
    1dea:	60f8      	str	r0, [r7, #12]
    1dec:	60b9      	str	r1, [r7, #8]
    1dee:	607a      	str	r2, [r7, #4]
    1df0:	2300      	movs	r3, #0
    1df2:	617b      	str	r3, [r7, #20]
    1df4:	2305      	movs	r3, #5
    1df6:	613b      	str	r3, [r7, #16]
    1df8:	f7ff ff16 	bl	1c28 <vTaskSuspendAll>
    1dfc:	4b31      	ldr	r3, [pc, #196]	; (1ec4 <uxTaskGetSystemState+0xe0>)
    1dfe:	681b      	ldr	r3, [r3, #0]
    1e00:	68ba      	ldr	r2, [r7, #8]
    1e02:	429a      	cmp	r2, r3
    1e04:	d356      	bcc.n	1eb4 <uxTaskGetSystemState+0xd0>
    1e06:	693b      	ldr	r3, [r7, #16]
    1e08:	3b01      	subs	r3, #1
    1e0a:	613b      	str	r3, [r7, #16]
    1e0c:	697b      	ldr	r3, [r7, #20]
    1e0e:	015b      	lsls	r3, r3, #5
    1e10:	68fa      	ldr	r2, [r7, #12]
    1e12:	18d0      	adds	r0, r2, r3
    1e14:	693a      	ldr	r2, [r7, #16]
    1e16:	4613      	mov	r3, r2
    1e18:	009b      	lsls	r3, r3, #2
    1e1a:	4413      	add	r3, r2
    1e1c:	009b      	lsls	r3, r3, #2
    1e1e:	4a2a      	ldr	r2, [pc, #168]	; (1ec8 <uxTaskGetSystemState+0xe4>)
    1e20:	4413      	add	r3, r2
    1e22:	2201      	movs	r2, #1
    1e24:	4619      	mov	r1, r3
    1e26:	f001 fab7 	bl	3398 <prvListTaskWithinSingleList>
    1e2a:	4602      	mov	r2, r0
    1e2c:	697b      	ldr	r3, [r7, #20]
    1e2e:	4413      	add	r3, r2
    1e30:	617b      	str	r3, [r7, #20]
    1e32:	693b      	ldr	r3, [r7, #16]
    1e34:	2b00      	cmp	r3, #0
    1e36:	d1e6      	bne.n	1e06 <uxTaskGetSystemState+0x22>
    1e38:	697b      	ldr	r3, [r7, #20]
    1e3a:	015b      	lsls	r3, r3, #5
    1e3c:	68fa      	ldr	r2, [r7, #12]
    1e3e:	18d0      	adds	r0, r2, r3
    1e40:	4b22      	ldr	r3, [pc, #136]	; (1ecc <uxTaskGetSystemState+0xe8>)
    1e42:	681b      	ldr	r3, [r3, #0]
    1e44:	2202      	movs	r2, #2
    1e46:	4619      	mov	r1, r3
    1e48:	f001 faa6 	bl	3398 <prvListTaskWithinSingleList>
    1e4c:	4602      	mov	r2, r0
    1e4e:	697b      	ldr	r3, [r7, #20]
    1e50:	4413      	add	r3, r2
    1e52:	617b      	str	r3, [r7, #20]
    1e54:	697b      	ldr	r3, [r7, #20]
    1e56:	015b      	lsls	r3, r3, #5
    1e58:	68fa      	ldr	r2, [r7, #12]
    1e5a:	18d0      	adds	r0, r2, r3
    1e5c:	4b1c      	ldr	r3, [pc, #112]	; (1ed0 <uxTaskGetSystemState+0xec>)
    1e5e:	681b      	ldr	r3, [r3, #0]
    1e60:	2202      	movs	r2, #2
    1e62:	4619      	mov	r1, r3
    1e64:	f001 fa98 	bl	3398 <prvListTaskWithinSingleList>
    1e68:	4602      	mov	r2, r0
    1e6a:	697b      	ldr	r3, [r7, #20]
    1e6c:	4413      	add	r3, r2
    1e6e:	617b      	str	r3, [r7, #20]
    1e70:	697b      	ldr	r3, [r7, #20]
    1e72:	015b      	lsls	r3, r3, #5
    1e74:	68fa      	ldr	r2, [r7, #12]
    1e76:	4413      	add	r3, r2
    1e78:	2204      	movs	r2, #4
    1e7a:	4916      	ldr	r1, [pc, #88]	; (1ed4 <uxTaskGetSystemState+0xf0>)
    1e7c:	4618      	mov	r0, r3
    1e7e:	f001 fa8b 	bl	3398 <prvListTaskWithinSingleList>
    1e82:	4602      	mov	r2, r0
    1e84:	697b      	ldr	r3, [r7, #20]
    1e86:	4413      	add	r3, r2
    1e88:	617b      	str	r3, [r7, #20]
    1e8a:	697b      	ldr	r3, [r7, #20]
    1e8c:	015b      	lsls	r3, r3, #5
    1e8e:	68fa      	ldr	r2, [r7, #12]
    1e90:	4413      	add	r3, r2
    1e92:	2203      	movs	r2, #3
    1e94:	4910      	ldr	r1, [pc, #64]	; (1ed8 <uxTaskGetSystemState+0xf4>)
    1e96:	4618      	mov	r0, r3
    1e98:	f001 fa7e 	bl	3398 <prvListTaskWithinSingleList>
    1e9c:	4602      	mov	r2, r0
    1e9e:	697b      	ldr	r3, [r7, #20]
    1ea0:	4413      	add	r3, r2
    1ea2:	617b      	str	r3, [r7, #20]
    1ea4:	687b      	ldr	r3, [r7, #4]
    1ea6:	2b00      	cmp	r3, #0
    1ea8:	d004      	beq.n	1eb4 <uxTaskGetSystemState+0xd0>
    1eaa:	f009 fc01 	bl	b6b0 <ulMainGetRunTimeCounterValue>
    1eae:	4602      	mov	r2, r0
    1eb0:	687b      	ldr	r3, [r7, #4]
    1eb2:	601a      	str	r2, [r3, #0]
    1eb4:	f7ff fec6 	bl	1c44 <xTaskResumeAll>
    1eb8:	697b      	ldr	r3, [r7, #20]
    1eba:	4618      	mov	r0, r3
    1ebc:	3718      	adds	r7, #24
    1ebe:	46bd      	mov	sp, r7
    1ec0:	bd80      	pop	{r7, pc}
    1ec2:	bf00      	nop
    1ec4:	10000128 	.word	0x10000128
    1ec8:	10000054 	.word	0x10000054
    1ecc:	100000e0 	.word	0x100000e0
    1ed0:	100000e4 	.word	0x100000e4
    1ed4:	100000fc 	.word	0x100000fc
    1ed8:	10000114 	.word	0x10000114

00001edc <vTaskList>:
    1edc:	b590      	push	{r4, r7, lr}
    1ede:	b089      	sub	sp, #36	; 0x24
    1ee0:	af02      	add	r7, sp, #8
    1ee2:	6078      	str	r0, [r7, #4]
    1ee4:	687b      	ldr	r3, [r7, #4]
    1ee6:	2200      	movs	r2, #0
    1ee8:	701a      	strb	r2, [r3, #0]
    1eea:	4b39      	ldr	r3, [pc, #228]	; (1fd0 <vTaskList+0xf4>)
    1eec:	681b      	ldr	r3, [r3, #0]
    1eee:	60fb      	str	r3, [r7, #12]
    1ef0:	4b37      	ldr	r3, [pc, #220]	; (1fd0 <vTaskList+0xf4>)
    1ef2:	681b      	ldr	r3, [r3, #0]
    1ef4:	015b      	lsls	r3, r3, #5
    1ef6:	4618      	mov	r0, r3
    1ef8:	f7fe f8e8 	bl	cc <pvPortMalloc>
    1efc:	6138      	str	r0, [r7, #16]
    1efe:	693b      	ldr	r3, [r7, #16]
    1f00:	2b00      	cmp	r3, #0
    1f02:	d060      	beq.n	1fc6 <vTaskList+0xea>
    1f04:	68fb      	ldr	r3, [r7, #12]
    1f06:	2200      	movs	r2, #0
    1f08:	4619      	mov	r1, r3
    1f0a:	6938      	ldr	r0, [r7, #16]
    1f0c:	f7ff ff6a 	bl	1de4 <uxTaskGetSystemState>
    1f10:	4603      	mov	r3, r0
    1f12:	60fb      	str	r3, [r7, #12]
    1f14:	2300      	movs	r3, #0
    1f16:	60bb      	str	r3, [r7, #8]
    1f18:	e04e      	b.n	1fb8 <vTaskList+0xdc>
    1f1a:	68bb      	ldr	r3, [r7, #8]
    1f1c:	015b      	lsls	r3, r3, #5
    1f1e:	693a      	ldr	r2, [r7, #16]
    1f20:	4413      	add	r3, r2
    1f22:	7b1b      	ldrb	r3, [r3, #12]
    1f24:	3b01      	subs	r3, #1
    1f26:	2b03      	cmp	r3, #3
    1f28:	d816      	bhi.n	1f58 <vTaskList+0x7c>
    1f2a:	a201      	add	r2, pc, #4	; (adr r2, 1f30 <vTaskList+0x54>)
    1f2c:	f852 f023 	ldr.w	pc, [r2, r3, lsl #2]
    1f30:	00001f41 	.word	0x00001f41
    1f34:	00001f47 	.word	0x00001f47
    1f38:	00001f4d 	.word	0x00001f4d
    1f3c:	00001f53 	.word	0x00001f53
    1f40:	2352      	movs	r3, #82	; 0x52
    1f42:	75fb      	strb	r3, [r7, #23]
    1f44:	e00b      	b.n	1f5e <vTaskList+0x82>
    1f46:	2342      	movs	r3, #66	; 0x42
    1f48:	75fb      	strb	r3, [r7, #23]
    1f4a:	e008      	b.n	1f5e <vTaskList+0x82>
    1f4c:	2353      	movs	r3, #83	; 0x53
    1f4e:	75fb      	strb	r3, [r7, #23]
    1f50:	e005      	b.n	1f5e <vTaskList+0x82>
    1f52:	2344      	movs	r3, #68	; 0x44
    1f54:	75fb      	strb	r3, [r7, #23]
    1f56:	e002      	b.n	1f5e <vTaskList+0x82>
    1f58:	2300      	movs	r3, #0
    1f5a:	75fb      	strb	r3, [r7, #23]
    1f5c:	bf00      	nop
    1f5e:	68bb      	ldr	r3, [r7, #8]
    1f60:	015b      	lsls	r3, r3, #5
    1f62:	693a      	ldr	r2, [r7, #16]
    1f64:	4413      	add	r3, r2
    1f66:	685b      	ldr	r3, [r3, #4]
    1f68:	4619      	mov	r1, r3
    1f6a:	6878      	ldr	r0, [r7, #4]
    1f6c:	f006 fa1c 	bl	83a8 <prvWriteNameToBuffer>
    1f70:	6078      	str	r0, [r7, #4]
    1f72:	7df9      	ldrb	r1, [r7, #23]
    1f74:	68bb      	ldr	r3, [r7, #8]
    1f76:	015b      	lsls	r3, r3, #5
    1f78:	693a      	ldr	r2, [r7, #16]
    1f7a:	4413      	add	r3, r2
    1f7c:	6918      	ldr	r0, [r3, #16]
    1f7e:	68bb      	ldr	r3, [r7, #8]
    1f80:	015b      	lsls	r3, r3, #5
    1f82:	693a      	ldr	r2, [r7, #16]
    1f84:	4413      	add	r3, r2
    1f86:	8b9b      	ldrh	r3, [r3, #28]
    1f88:	461c      	mov	r4, r3
    1f8a:	68bb      	ldr	r3, [r7, #8]
    1f8c:	015b      	lsls	r3, r3, #5
    1f8e:	693a      	ldr	r2, [r7, #16]
    1f90:	4413      	add	r3, r2
    1f92:	689b      	ldr	r3, [r3, #8]
    1f94:	9301      	str	r3, [sp, #4]
    1f96:	9400      	str	r4, [sp, #0]
    1f98:	4603      	mov	r3, r0
    1f9a:	460a      	mov	r2, r1
    1f9c:	490d      	ldr	r1, [pc, #52]	; (1fd4 <vTaskList+0xf8>)
    1f9e:	6878      	ldr	r0, [r7, #4]
    1fa0:	f009 fd94 	bl	bacc <sprintf>
    1fa4:	6878      	ldr	r0, [r7, #4]
    1fa6:	f00b ff6e 	bl	de86 <strlen>
    1faa:	4602      	mov	r2, r0
    1fac:	687b      	ldr	r3, [r7, #4]
    1fae:	4413      	add	r3, r2
    1fb0:	607b      	str	r3, [r7, #4]
    1fb2:	68bb      	ldr	r3, [r7, #8]
    1fb4:	3301      	adds	r3, #1
    1fb6:	60bb      	str	r3, [r7, #8]
    1fb8:	68ba      	ldr	r2, [r7, #8]
    1fba:	68fb      	ldr	r3, [r7, #12]
    1fbc:	429a      	cmp	r2, r3
    1fbe:	d3ac      	bcc.n	1f1a <vTaskList+0x3e>
    1fc0:	6938      	ldr	r0, [r7, #16]
    1fc2:	f7fe f915 	bl	1f0 <vPortFree>
    1fc6:	bf00      	nop
    1fc8:	371c      	adds	r7, #28
    1fca:	46bd      	mov	sp, r7
    1fcc:	bd90      	pop	{r4, r7, pc}
    1fce:	bf00      	nop
    1fd0:	10000128 	.word	0x10000128
    1fd4:	0000e618 	.word	0x0000e618

00001fd8 <vTaskGetRunTimeStats>:
    1fd8:	b580      	push	{r7, lr}
    1fda:	b088      	sub	sp, #32
    1fdc:	af00      	add	r7, sp, #0
    1fde:	6078      	str	r0, [r7, #4]
    1fe0:	687b      	ldr	r3, [r7, #4]
    1fe2:	2200      	movs	r2, #0
    1fe4:	701a      	strb	r2, [r3, #0]
    1fe6:	4b31      	ldr	r3, [pc, #196]	; (20ac <vTaskGetRunTimeStats+0xd4>)
    1fe8:	681b      	ldr	r3, [r3, #0]
    1fea:	617b      	str	r3, [r7, #20]
    1fec:	4b2f      	ldr	r3, [pc, #188]	; (20ac <vTaskGetRunTimeStats+0xd4>)
    1fee:	681b      	ldr	r3, [r3, #0]
    1ff0:	015b      	lsls	r3, r3, #5
    1ff2:	4618      	mov	r0, r3
    1ff4:	f7fe f86a 	bl	cc <pvPortMalloc>
    1ff8:	61f8      	str	r0, [r7, #28]
    1ffa:	69fb      	ldr	r3, [r7, #28]
    1ffc:	2b00      	cmp	r3, #0
    1ffe:	d050      	beq.n	20a2 <vTaskGetRunTimeStats+0xca>
    2000:	697b      	ldr	r3, [r7, #20]
    2002:	f107 020c 	add.w	r2, r7, #12
    2006:	4619      	mov	r1, r3
    2008:	69f8      	ldr	r0, [r7, #28]
    200a:	f7ff feeb 	bl	1de4 <uxTaskGetSystemState>
    200e:	4603      	mov	r3, r0
    2010:	617b      	str	r3, [r7, #20]
    2012:	68fb      	ldr	r3, [r7, #12]
    2014:	4a26      	ldr	r2, [pc, #152]	; (20b0 <vTaskGetRunTimeStats+0xd8>)
    2016:	fba2 2303 	umull	r2, r3, r2, r3
    201a:	095b      	lsrs	r3, r3, #5
    201c:	60fb      	str	r3, [r7, #12]
    201e:	68fb      	ldr	r3, [r7, #12]
    2020:	2b00      	cmp	r3, #0
    2022:	d03b      	beq.n	209c <vTaskGetRunTimeStats+0xc4>
    2024:	2300      	movs	r3, #0
    2026:	613b      	str	r3, [r7, #16]
    2028:	e034      	b.n	2094 <vTaskGetRunTimeStats+0xbc>
    202a:	693b      	ldr	r3, [r7, #16]
    202c:	015b      	lsls	r3, r3, #5
    202e:	69fa      	ldr	r2, [r7, #28]
    2030:	4413      	add	r3, r2
    2032:	699a      	ldr	r2, [r3, #24]
    2034:	68fb      	ldr	r3, [r7, #12]
    2036:	fbb2 f3f3 	udiv	r3, r2, r3
    203a:	61bb      	str	r3, [r7, #24]
    203c:	693b      	ldr	r3, [r7, #16]
    203e:	015b      	lsls	r3, r3, #5
    2040:	69fa      	ldr	r2, [r7, #28]
    2042:	4413      	add	r3, r2
    2044:	685b      	ldr	r3, [r3, #4]
    2046:	4619      	mov	r1, r3
    2048:	6878      	ldr	r0, [r7, #4]
    204a:	f006 f9ad 	bl	83a8 <prvWriteNameToBuffer>
    204e:	6078      	str	r0, [r7, #4]
    2050:	69bb      	ldr	r3, [r7, #24]
    2052:	2b00      	cmp	r3, #0
    2054:	d00a      	beq.n	206c <vTaskGetRunTimeStats+0x94>
    2056:	693b      	ldr	r3, [r7, #16]
    2058:	015b      	lsls	r3, r3, #5
    205a:	69fa      	ldr	r2, [r7, #28]
    205c:	4413      	add	r3, r2
    205e:	699a      	ldr	r2, [r3, #24]
    2060:	69bb      	ldr	r3, [r7, #24]
    2062:	4914      	ldr	r1, [pc, #80]	; (20b4 <vTaskGetRunTimeStats+0xdc>)
    2064:	6878      	ldr	r0, [r7, #4]
    2066:	f009 fd31 	bl	bacc <sprintf>
    206a:	e009      	b.n	2080 <vTaskGetRunTimeStats+0xa8>
    206c:	693b      	ldr	r3, [r7, #16]
    206e:	015b      	lsls	r3, r3, #5
    2070:	69fa      	ldr	r2, [r7, #28]
    2072:	4413      	add	r3, r2
    2074:	699b      	ldr	r3, [r3, #24]
    2076:	461a      	mov	r2, r3
    2078:	490f      	ldr	r1, [pc, #60]	; (20b8 <vTaskGetRunTimeStats+0xe0>)
    207a:	6878      	ldr	r0, [r7, #4]
    207c:	f009 fd26 	bl	bacc <sprintf>
    2080:	6878      	ldr	r0, [r7, #4]
    2082:	f00b ff00 	bl	de86 <strlen>
    2086:	4602      	mov	r2, r0
    2088:	687b      	ldr	r3, [r7, #4]
    208a:	4413      	add	r3, r2
    208c:	607b      	str	r3, [r7, #4]
    208e:	693b      	ldr	r3, [r7, #16]
    2090:	3301      	adds	r3, #1
    2092:	613b      	str	r3, [r7, #16]
    2094:	693a      	ldr	r2, [r7, #16]
    2096:	697b      	ldr	r3, [r7, #20]
    2098:	429a      	cmp	r2, r3
    209a:	d3c6      	bcc.n	202a <vTaskGetRunTimeStats+0x52>
    209c:	69f8      	ldr	r0, [r7, #28]
    209e:	f7fe f8a7 	bl	1f0 <vPortFree>
    20a2:	bf00      	nop
    20a4:	3720      	adds	r7, #32
    20a6:	46bd      	mov	sp, r7
    20a8:	bd80      	pop	{r7, pc}
    20aa:	bf00      	nop
    20ac:	10000128 	.word	0x10000128
    20b0:	51eb851f 	.word	0x51eb851f
    20b4:	0000e628 	.word	0x0000e628
    20b8:	0000e634 	.word	0x0000e634

000020bc <xTaskGenericNotify>:
    20bc:	b580      	push	{r7, lr}
    20be:	b088      	sub	sp, #32
    20c0:	af00      	add	r7, sp, #0
    20c2:	60f8      	str	r0, [r7, #12]
    20c4:	60b9      	str	r1, [r7, #8]
    20c6:	603b      	str	r3, [r7, #0]
    20c8:	4613      	mov	r3, r2
    20ca:	71fb      	strb	r3, [r7, #7]
    20cc:	2301      	movs	r3, #1
    20ce:	61fb      	str	r3, [r7, #28]
    20d0:	68fb      	ldr	r3, [r7, #12]
    20d2:	2b00      	cmp	r3, #0
    20d4:	d104      	bne.n	20e0 <xTaskGenericNotify+0x24>
    20d6:	f04f 0028 	mov.w	r0, #40	; 0x28
    20da:	f380 8811 	msr	BASEPRI, r0
    20de:	e7fe      	b.n	20de <xTaskGenericNotify+0x22>
    20e0:	68fb      	ldr	r3, [r7, #12]
    20e2:	61bb      	str	r3, [r7, #24]
    20e4:	f005 fe68 	bl	7db8 <vPortEnterCritical>
    20e8:	683b      	ldr	r3, [r7, #0]
    20ea:	2b00      	cmp	r3, #0
    20ec:	d003      	beq.n	20f6 <xTaskGenericNotify+0x3a>
    20ee:	69bb      	ldr	r3, [r7, #24]
    20f0:	6f9a      	ldr	r2, [r3, #120]	; 0x78
    20f2:	683b      	ldr	r3, [r7, #0]
    20f4:	601a      	str	r2, [r3, #0]
    20f6:	69bb      	ldr	r3, [r7, #24]
    20f8:	f893 307c 	ldrb.w	r3, [r3, #124]	; 0x7c
    20fc:	75fb      	strb	r3, [r7, #23]
    20fe:	69bb      	ldr	r3, [r7, #24]
    2100:	2202      	movs	r2, #2
    2102:	f883 207c 	strb.w	r2, [r3, #124]	; 0x7c
    2106:	79fb      	ldrb	r3, [r7, #7]
    2108:	2b04      	cmp	r3, #4
    210a:	d828      	bhi.n	215e <xTaskGenericNotify+0xa2>
    210c:	a201      	add	r2, pc, #4	; (adr r2, 2114 <xTaskGenericNotify+0x58>)
    210e:	f852 f023 	ldr.w	pc, [r2, r3, lsl #2]
    2112:	bf00      	nop
    2114:	0000215f 	.word	0x0000215f
    2118:	00002129 	.word	0x00002129
    211c:	00002137 	.word	0x00002137
    2120:	00002143 	.word	0x00002143
    2124:	0000214b 	.word	0x0000214b
    2128:	69bb      	ldr	r3, [r7, #24]
    212a:	6f9a      	ldr	r2, [r3, #120]	; 0x78
    212c:	68bb      	ldr	r3, [r7, #8]
    212e:	431a      	orrs	r2, r3
    2130:	69bb      	ldr	r3, [r7, #24]
    2132:	679a      	str	r2, [r3, #120]	; 0x78
    2134:	e013      	b.n	215e <xTaskGenericNotify+0xa2>
    2136:	69bb      	ldr	r3, [r7, #24]
    2138:	6f9b      	ldr	r3, [r3, #120]	; 0x78
    213a:	1c5a      	adds	r2, r3, #1
    213c:	69bb      	ldr	r3, [r7, #24]
    213e:	679a      	str	r2, [r3, #120]	; 0x78
    2140:	e00d      	b.n	215e <xTaskGenericNotify+0xa2>
    2142:	69bb      	ldr	r3, [r7, #24]
    2144:	68ba      	ldr	r2, [r7, #8]
    2146:	679a      	str	r2, [r3, #120]	; 0x78
    2148:	e009      	b.n	215e <xTaskGenericNotify+0xa2>
    214a:	7dfb      	ldrb	r3, [r7, #23]
    214c:	2b02      	cmp	r3, #2
    214e:	d003      	beq.n	2158 <xTaskGenericNotify+0x9c>
    2150:	69bb      	ldr	r3, [r7, #24]
    2152:	68ba      	ldr	r2, [r7, #8]
    2154:	679a      	str	r2, [r3, #120]	; 0x78
    2156:	e001      	b.n	215c <xTaskGenericNotify+0xa0>
    2158:	2300      	movs	r3, #0
    215a:	61fb      	str	r3, [r7, #28]
    215c:	bf00      	nop
    215e:	7dfb      	ldrb	r3, [r7, #23]
    2160:	2b01      	cmp	r3, #1
    2162:	d130      	bne.n	21c6 <xTaskGenericNotify+0x10a>
    2164:	69bb      	ldr	r3, [r7, #24]
    2166:	3328      	adds	r3, #40	; 0x28
    2168:	4618      	mov	r0, r3
    216a:	f006 f8c7 	bl	82fc <uxListRemove>
    216e:	69bb      	ldr	r3, [r7, #24]
    2170:	6d1a      	ldr	r2, [r3, #80]	; 0x50
    2172:	4b18      	ldr	r3, [pc, #96]	; (21d4 <xTaskGenericNotify+0x118>)
    2174:	681b      	ldr	r3, [r3, #0]
    2176:	429a      	cmp	r2, r3
    2178:	d903      	bls.n	2182 <xTaskGenericNotify+0xc6>
    217a:	69bb      	ldr	r3, [r7, #24]
    217c:	6d1b      	ldr	r3, [r3, #80]	; 0x50
    217e:	4a15      	ldr	r2, [pc, #84]	; (21d4 <xTaskGenericNotify+0x118>)
    2180:	6013      	str	r3, [r2, #0]
    2182:	69bb      	ldr	r3, [r7, #24]
    2184:	6d1a      	ldr	r2, [r3, #80]	; 0x50
    2186:	4613      	mov	r3, r2
    2188:	009b      	lsls	r3, r3, #2
    218a:	4413      	add	r3, r2
    218c:	009b      	lsls	r3, r3, #2
    218e:	4a12      	ldr	r2, [pc, #72]	; (21d8 <xTaskGenericNotify+0x11c>)
    2190:	441a      	add	r2, r3
    2192:	69bb      	ldr	r3, [r7, #24]
    2194:	3328      	adds	r3, #40	; 0x28
    2196:	4619      	mov	r1, r3
    2198:	4610      	mov	r0, r2
    219a:	f006 f853 	bl	8244 <vListInsertEnd>
    219e:	69bb      	ldr	r3, [r7, #24]
    21a0:	6cdb      	ldr	r3, [r3, #76]	; 0x4c
    21a2:	2b00      	cmp	r3, #0
    21a4:	d004      	beq.n	21b0 <xTaskGenericNotify+0xf4>
    21a6:	f04f 0028 	mov.w	r0, #40	; 0x28
    21aa:	f380 8811 	msr	BASEPRI, r0
    21ae:	e7fe      	b.n	21ae <xTaskGenericNotify+0xf2>
    21b0:	69bb      	ldr	r3, [r7, #24]
    21b2:	6d1a      	ldr	r2, [r3, #80]	; 0x50
    21b4:	4b09      	ldr	r3, [pc, #36]	; (21dc <xTaskGenericNotify+0x120>)
    21b6:	681b      	ldr	r3, [r3, #0]
    21b8:	6d1b      	ldr	r3, [r3, #80]	; 0x50
    21ba:	429a      	cmp	r2, r3
    21bc:	d903      	bls.n	21c6 <xTaskGenericNotify+0x10a>
    21be:	4b08      	ldr	r3, [pc, #32]	; (21e0 <xTaskGenericNotify+0x124>)
    21c0:	f04f 5280 	mov.w	r2, #268435456	; 0x10000000
    21c4:	601a      	str	r2, [r3, #0]
    21c6:	f005 fe15 	bl	7df4 <vPortExitCritical>
    21ca:	69fb      	ldr	r3, [r7, #28]
    21cc:	4618      	mov	r0, r3
    21ce:	3720      	adds	r7, #32
    21d0:	46bd      	mov	sp, r7
    21d2:	bd80      	pop	{r7, pc}
    21d4:	10000130 	.word	0x10000130
    21d8:	10000054 	.word	0x10000054
    21dc:	10000050 	.word	0x10000050
    21e0:	e000ed04 	.word	0xe000ed04

000021e4 <xTaskGenericNotifyFromISR>:
    21e4:	b580      	push	{r7, lr}
    21e6:	b088      	sub	sp, #32
    21e8:	af00      	add	r7, sp, #0
    21ea:	60f8      	str	r0, [r7, #12]
    21ec:	60b9      	str	r1, [r7, #8]
    21ee:	603b      	str	r3, [r7, #0]
    21f0:	4613      	mov	r3, r2
    21f2:	71fb      	strb	r3, [r7, #7]
    21f4:	2301      	movs	r3, #1
    21f6:	61fb      	str	r3, [r7, #28]
    21f8:	68fb      	ldr	r3, [r7, #12]
    21fa:	2b00      	cmp	r3, #0
    21fc:	d104      	bne.n	2208 <xTaskGenericNotifyFromISR+0x24>
    21fe:	f04f 0028 	mov.w	r0, #40	; 0x28
    2202:	f380 8811 	msr	BASEPRI, r0
    2206:	e7fe      	b.n	2206 <xTaskGenericNotifyFromISR+0x22>
    2208:	68fb      	ldr	r3, [r7, #12]
    220a:	61bb      	str	r3, [r7, #24]
    220c:	2300      	movs	r3, #0
    220e:	617b      	str	r3, [r7, #20]
    2210:	f04f 0028 	mov.w	r0, #40	; 0x28
    2214:	f380 8811 	msr	BASEPRI, r0
    2218:	683b      	ldr	r3, [r7, #0]
    221a:	2b00      	cmp	r3, #0
    221c:	d003      	beq.n	2226 <xTaskGenericNotifyFromISR+0x42>
    221e:	69bb      	ldr	r3, [r7, #24]
    2220:	6f9a      	ldr	r2, [r3, #120]	; 0x78
    2222:	683b      	ldr	r3, [r7, #0]
    2224:	601a      	str	r2, [r3, #0]
    2226:	69bb      	ldr	r3, [r7, #24]
    2228:	f893 307c 	ldrb.w	r3, [r3, #124]	; 0x7c
    222c:	74fb      	strb	r3, [r7, #19]
    222e:	69bb      	ldr	r3, [r7, #24]
    2230:	2202      	movs	r2, #2
    2232:	f883 207c 	strb.w	r2, [r3, #124]	; 0x7c
    2236:	79fb      	ldrb	r3, [r7, #7]
    2238:	2b04      	cmp	r3, #4
    223a:	d828      	bhi.n	228e <xTaskGenericNotifyFromISR+0xaa>
    223c:	a201      	add	r2, pc, #4	; (adr r2, 2244 <xTaskGenericNotifyFromISR+0x60>)
    223e:	f852 f023 	ldr.w	pc, [r2, r3, lsl #2]
    2242:	bf00      	nop
    2244:	0000228f 	.word	0x0000228f
    2248:	00002259 	.word	0x00002259
    224c:	00002267 	.word	0x00002267
    2250:	00002273 	.word	0x00002273
    2254:	0000227b 	.word	0x0000227b
    2258:	69bb      	ldr	r3, [r7, #24]
    225a:	6f9a      	ldr	r2, [r3, #120]	; 0x78
    225c:	68bb      	ldr	r3, [r7, #8]
    225e:	431a      	orrs	r2, r3
    2260:	69bb      	ldr	r3, [r7, #24]
    2262:	679a      	str	r2, [r3, #120]	; 0x78
    2264:	e013      	b.n	228e <xTaskGenericNotifyFromISR+0xaa>
    2266:	69bb      	ldr	r3, [r7, #24]
    2268:	6f9b      	ldr	r3, [r3, #120]	; 0x78
    226a:	1c5a      	adds	r2, r3, #1
    226c:	69bb      	ldr	r3, [r7, #24]
    226e:	679a      	str	r2, [r3, #120]	; 0x78
    2270:	e00d      	b.n	228e <xTaskGenericNotifyFromISR+0xaa>
    2272:	69bb      	ldr	r3, [r7, #24]
    2274:	68ba      	ldr	r2, [r7, #8]
    2276:	679a      	str	r2, [r3, #120]	; 0x78
    2278:	e009      	b.n	228e <xTaskGenericNotifyFromISR+0xaa>
    227a:	7cfb      	ldrb	r3, [r7, #19]
    227c:	2b02      	cmp	r3, #2
    227e:	d003      	beq.n	2288 <xTaskGenericNotifyFromISR+0xa4>
    2280:	69bb      	ldr	r3, [r7, #24]
    2282:	68ba      	ldr	r2, [r7, #8]
    2284:	679a      	str	r2, [r3, #120]	; 0x78
    2286:	e001      	b.n	228c <xTaskGenericNotifyFromISR+0xa8>
    2288:	2300      	movs	r3, #0
    228a:	61fb      	str	r3, [r7, #28]
    228c:	bf00      	nop
    228e:	7cfb      	ldrb	r3, [r7, #19]
    2290:	2b01      	cmp	r3, #1
    2292:	d13d      	bne.n	2310 <xTaskGenericNotifyFromISR+0x12c>
    2294:	69bb      	ldr	r3, [r7, #24]
    2296:	6cdb      	ldr	r3, [r3, #76]	; 0x4c
    2298:	2b00      	cmp	r3, #0
    229a:	d004      	beq.n	22a6 <xTaskGenericNotifyFromISR+0xc2>
    229c:	f04f 0028 	mov.w	r0, #40	; 0x28
    22a0:	f380 8811 	msr	BASEPRI, r0
    22a4:	e7fe      	b.n	22a4 <xTaskGenericNotifyFromISR+0xc0>
    22a6:	4b1f      	ldr	r3, [pc, #124]	; (2324 <xTaskGenericNotifyFromISR+0x140>)
    22a8:	681b      	ldr	r3, [r3, #0]
    22aa:	2b00      	cmp	r3, #0
    22ac:	d11d      	bne.n	22ea <xTaskGenericNotifyFromISR+0x106>
    22ae:	69bb      	ldr	r3, [r7, #24]
    22b0:	3328      	adds	r3, #40	; 0x28
    22b2:	4618      	mov	r0, r3
    22b4:	f006 f822 	bl	82fc <uxListRemove>
    22b8:	69bb      	ldr	r3, [r7, #24]
    22ba:	6d1a      	ldr	r2, [r3, #80]	; 0x50
    22bc:	4b1a      	ldr	r3, [pc, #104]	; (2328 <xTaskGenericNotifyFromISR+0x144>)
    22be:	681b      	ldr	r3, [r3, #0]
    22c0:	429a      	cmp	r2, r3
    22c2:	d903      	bls.n	22cc <xTaskGenericNotifyFromISR+0xe8>
    22c4:	69bb      	ldr	r3, [r7, #24]
    22c6:	6d1b      	ldr	r3, [r3, #80]	; 0x50
    22c8:	4a17      	ldr	r2, [pc, #92]	; (2328 <xTaskGenericNotifyFromISR+0x144>)
    22ca:	6013      	str	r3, [r2, #0]
    22cc:	69bb      	ldr	r3, [r7, #24]
    22ce:	6d1a      	ldr	r2, [r3, #80]	; 0x50
    22d0:	4613      	mov	r3, r2
    22d2:	009b      	lsls	r3, r3, #2
    22d4:	4413      	add	r3, r2
    22d6:	009b      	lsls	r3, r3, #2
    22d8:	4a14      	ldr	r2, [pc, #80]	; (232c <xTaskGenericNotifyFromISR+0x148>)
    22da:	441a      	add	r2, r3
    22dc:	69bb      	ldr	r3, [r7, #24]
    22de:	3328      	adds	r3, #40	; 0x28
    22e0:	4619      	mov	r1, r3
    22e2:	4610      	mov	r0, r2
    22e4:	f005 ffae 	bl	8244 <vListInsertEnd>
    22e8:	e005      	b.n	22f6 <xTaskGenericNotifyFromISR+0x112>
    22ea:	69bb      	ldr	r3, [r7, #24]
    22ec:	333c      	adds	r3, #60	; 0x3c
    22ee:	4619      	mov	r1, r3
    22f0:	480f      	ldr	r0, [pc, #60]	; (2330 <xTaskGenericNotifyFromISR+0x14c>)
    22f2:	f005 ffa7 	bl	8244 <vListInsertEnd>
    22f6:	69bb      	ldr	r3, [r7, #24]
    22f8:	6d1a      	ldr	r2, [r3, #80]	; 0x50
    22fa:	4b0e      	ldr	r3, [pc, #56]	; (2334 <xTaskGenericNotifyFromISR+0x150>)
    22fc:	681b      	ldr	r3, [r3, #0]
    22fe:	6d1b      	ldr	r3, [r3, #80]	; 0x50
    2300:	429a      	cmp	r2, r3
    2302:	d905      	bls.n	2310 <xTaskGenericNotifyFromISR+0x12c>
    2304:	6abb      	ldr	r3, [r7, #40]	; 0x28
    2306:	2b00      	cmp	r3, #0
    2308:	d002      	beq.n	2310 <xTaskGenericNotifyFromISR+0x12c>
    230a:	6abb      	ldr	r3, [r7, #40]	; 0x28
    230c:	2201      	movs	r2, #1
    230e:	601a      	str	r2, [r3, #0]
    2310:	f04f 0000 	mov.w	r0, #0
    2314:	f380 8811 	msr	BASEPRI, r0
    2318:	69fb      	ldr	r3, [r7, #28]
    231a:	4618      	mov	r0, r3
    231c:	3720      	adds	r7, #32
    231e:	46bd      	mov	sp, r7
    2320:	bd80      	pop	{r7, pc}
    2322:	bf00      	nop
    2324:	1000014c 	.word	0x1000014c
    2328:	10000130 	.word	0x10000130
    232c:	10000054 	.word	0x10000054
    2330:	100000e8 	.word	0x100000e8
    2334:	10000050 	.word	0x10000050

00002338 <xTaskNotifyWait>:
    2338:	b580      	push	{r7, lr}
    233a:	b086      	sub	sp, #24
    233c:	af00      	add	r7, sp, #0
    233e:	60f8      	str	r0, [r7, #12]
    2340:	60b9      	str	r1, [r7, #8]
    2342:	607a      	str	r2, [r7, #4]
    2344:	603b      	str	r3, [r7, #0]
    2346:	f005 fd37 	bl	7db8 <vPortEnterCritical>
    234a:	4b2f      	ldr	r3, [pc, #188]	; (2408 <xTaskNotifyWait+0xd0>)
    234c:	681b      	ldr	r3, [r3, #0]
    234e:	f893 307c 	ldrb.w	r3, [r3, #124]	; 0x7c
    2352:	b2db      	uxtb	r3, r3
    2354:	2b02      	cmp	r3, #2
    2356:	d02c      	beq.n	23b2 <xTaskNotifyWait+0x7a>
    2358:	4b2b      	ldr	r3, [pc, #172]	; (2408 <xTaskNotifyWait+0xd0>)
    235a:	681b      	ldr	r3, [r3, #0]
    235c:	6f99      	ldr	r1, [r3, #120]	; 0x78
    235e:	68fa      	ldr	r2, [r7, #12]
    2360:	43d2      	mvns	r2, r2
    2362:	400a      	ands	r2, r1
    2364:	679a      	str	r2, [r3, #120]	; 0x78
    2366:	4b28      	ldr	r3, [pc, #160]	; (2408 <xTaskNotifyWait+0xd0>)
    2368:	681b      	ldr	r3, [r3, #0]
    236a:	2201      	movs	r2, #1
    236c:	f883 207c 	strb.w	r2, [r3, #124]	; 0x7c
    2370:	683b      	ldr	r3, [r7, #0]
    2372:	2b00      	cmp	r3, #0
    2374:	d01d      	beq.n	23b2 <xTaskNotifyWait+0x7a>
    2376:	4b24      	ldr	r3, [pc, #144]	; (2408 <xTaskNotifyWait+0xd0>)
    2378:	681b      	ldr	r3, [r3, #0]
    237a:	3328      	adds	r3, #40	; 0x28
    237c:	4618      	mov	r0, r3
    237e:	f005 ffbd 	bl	82fc <uxListRemove>
    2382:	683b      	ldr	r3, [r7, #0]
    2384:	f1b3 3fff 	cmp.w	r3, #4294967295
    2388:	d107      	bne.n	239a <xTaskNotifyWait+0x62>
    238a:	4b1f      	ldr	r3, [pc, #124]	; (2408 <xTaskNotifyWait+0xd0>)
    238c:	681b      	ldr	r3, [r3, #0]
    238e:	3328      	adds	r3, #40	; 0x28
    2390:	4619      	mov	r1, r3
    2392:	481e      	ldr	r0, [pc, #120]	; (240c <xTaskNotifyWait+0xd4>)
    2394:	f005 ff56 	bl	8244 <vListInsertEnd>
    2398:	e007      	b.n	23aa <xTaskNotifyWait+0x72>
    239a:	4b1d      	ldr	r3, [pc, #116]	; (2410 <xTaskNotifyWait+0xd8>)
    239c:	681a      	ldr	r2, [r3, #0]
    239e:	683b      	ldr	r3, [r7, #0]
    23a0:	4413      	add	r3, r2
    23a2:	613b      	str	r3, [r7, #16]
    23a4:	6938      	ldr	r0, [r7, #16]
    23a6:	f000 ff8b 	bl	32c0 <prvAddCurrentTaskToDelayedList>
    23aa:	4b1a      	ldr	r3, [pc, #104]	; (2414 <xTaskNotifyWait+0xdc>)
    23ac:	f04f 5280 	mov.w	r2, #268435456	; 0x10000000
    23b0:	601a      	str	r2, [r3, #0]
    23b2:	f005 fd1f 	bl	7df4 <vPortExitCritical>
    23b6:	f005 fcff 	bl	7db8 <vPortEnterCritical>
    23ba:	687b      	ldr	r3, [r7, #4]
    23bc:	2b00      	cmp	r3, #0
    23be:	d004      	beq.n	23ca <xTaskNotifyWait+0x92>
    23c0:	4b11      	ldr	r3, [pc, #68]	; (2408 <xTaskNotifyWait+0xd0>)
    23c2:	681b      	ldr	r3, [r3, #0]
    23c4:	6f9a      	ldr	r2, [r3, #120]	; 0x78
    23c6:	687b      	ldr	r3, [r7, #4]
    23c8:	601a      	str	r2, [r3, #0]
    23ca:	4b0f      	ldr	r3, [pc, #60]	; (2408 <xTaskNotifyWait+0xd0>)
    23cc:	681b      	ldr	r3, [r3, #0]
    23ce:	f893 307c 	ldrb.w	r3, [r3, #124]	; 0x7c
    23d2:	b2db      	uxtb	r3, r3
    23d4:	2b01      	cmp	r3, #1
    23d6:	d102      	bne.n	23de <xTaskNotifyWait+0xa6>
    23d8:	2300      	movs	r3, #0
    23da:	617b      	str	r3, [r7, #20]
    23dc:	e008      	b.n	23f0 <xTaskNotifyWait+0xb8>
    23de:	4b0a      	ldr	r3, [pc, #40]	; (2408 <xTaskNotifyWait+0xd0>)
    23e0:	681b      	ldr	r3, [r3, #0]
    23e2:	6f99      	ldr	r1, [r3, #120]	; 0x78
    23e4:	68ba      	ldr	r2, [r7, #8]
    23e6:	43d2      	mvns	r2, r2
    23e8:	400a      	ands	r2, r1
    23ea:	679a      	str	r2, [r3, #120]	; 0x78
    23ec:	2301      	movs	r3, #1
    23ee:	617b      	str	r3, [r7, #20]
    23f0:	4b05      	ldr	r3, [pc, #20]	; (2408 <xTaskNotifyWait+0xd0>)
    23f2:	681b      	ldr	r3, [r3, #0]
    23f4:	2200      	movs	r2, #0
    23f6:	f883 207c 	strb.w	r2, [r3, #124]	; 0x7c
    23fa:	f005 fcfb 	bl	7df4 <vPortExitCritical>
    23fe:	697b      	ldr	r3, [r7, #20]
    2400:	4618      	mov	r0, r3
    2402:	3718      	adds	r7, #24
    2404:	46bd      	mov	sp, r7
    2406:	bd80      	pop	{r7, pc}
    2408:	10000050 	.word	0x10000050
    240c:	10000114 	.word	0x10000114
    2410:	1000012c 	.word	0x1000012c
    2414:	e000ed04 	.word	0xe000ed04

00002418 <vTaskNotifyGiveFromISR>:
    2418:	b580      	push	{r7, lr}
    241a:	b086      	sub	sp, #24
    241c:	af00      	add	r7, sp, #0
    241e:	6078      	str	r0, [r7, #4]
    2420:	6039      	str	r1, [r7, #0]
    2422:	687b      	ldr	r3, [r7, #4]
    2424:	2b00      	cmp	r3, #0
    2426:	d104      	bne.n	2432 <vTaskNotifyGiveFromISR+0x1a>
    2428:	f04f 0028 	mov.w	r0, #40	; 0x28
    242c:	f380 8811 	msr	BASEPRI, r0
    2430:	e7fe      	b.n	2430 <vTaskNotifyGiveFromISR+0x18>
    2432:	687b      	ldr	r3, [r7, #4]
    2434:	617b      	str	r3, [r7, #20]
    2436:	2300      	movs	r3, #0
    2438:	613b      	str	r3, [r7, #16]
    243a:	f04f 0028 	mov.w	r0, #40	; 0x28
    243e:	f380 8811 	msr	BASEPRI, r0
    2442:	697b      	ldr	r3, [r7, #20]
    2444:	f893 307c 	ldrb.w	r3, [r3, #124]	; 0x7c
    2448:	73fb      	strb	r3, [r7, #15]
    244a:	697b      	ldr	r3, [r7, #20]
    244c:	2202      	movs	r2, #2
    244e:	f883 207c 	strb.w	r2, [r3, #124]	; 0x7c
    2452:	697b      	ldr	r3, [r7, #20]
    2454:	6f9b      	ldr	r3, [r3, #120]	; 0x78
    2456:	1c5a      	adds	r2, r3, #1
    2458:	697b      	ldr	r3, [r7, #20]
    245a:	679a      	str	r2, [r3, #120]	; 0x78
    245c:	7bfb      	ldrb	r3, [r7, #15]
    245e:	2b01      	cmp	r3, #1
    2460:	d13d      	bne.n	24de <vTaskNotifyGiveFromISR+0xc6>
    2462:	697b      	ldr	r3, [r7, #20]
    2464:	6cdb      	ldr	r3, [r3, #76]	; 0x4c
    2466:	2b00      	cmp	r3, #0
    2468:	d004      	beq.n	2474 <vTaskNotifyGiveFromISR+0x5c>
    246a:	f04f 0028 	mov.w	r0, #40	; 0x28
    246e:	f380 8811 	msr	BASEPRI, r0
    2472:	e7fe      	b.n	2472 <vTaskNotifyGiveFromISR+0x5a>
    2474:	4b1e      	ldr	r3, [pc, #120]	; (24f0 <vTaskNotifyGiveFromISR+0xd8>)
    2476:	681b      	ldr	r3, [r3, #0]
    2478:	2b00      	cmp	r3, #0
    247a:	d11d      	bne.n	24b8 <vTaskNotifyGiveFromISR+0xa0>
    247c:	697b      	ldr	r3, [r7, #20]
    247e:	3328      	adds	r3, #40	; 0x28
    2480:	4618      	mov	r0, r3
    2482:	f005 ff3b 	bl	82fc <uxListRemove>
    2486:	697b      	ldr	r3, [r7, #20]
    2488:	6d1a      	ldr	r2, [r3, #80]	; 0x50
    248a:	4b1a      	ldr	r3, [pc, #104]	; (24f4 <vTaskNotifyGiveFromISR+0xdc>)
    248c:	681b      	ldr	r3, [r3, #0]
    248e:	429a      	cmp	r2, r3
    2490:	d903      	bls.n	249a <vTaskNotifyGiveFromISR+0x82>
    2492:	697b      	ldr	r3, [r7, #20]
    2494:	6d1b      	ldr	r3, [r3, #80]	; 0x50
    2496:	4a17      	ldr	r2, [pc, #92]	; (24f4 <vTaskNotifyGiveFromISR+0xdc>)
    2498:	6013      	str	r3, [r2, #0]
    249a:	697b      	ldr	r3, [r7, #20]
    249c:	6d1a      	ldr	r2, [r3, #80]	; 0x50
    249e:	4613      	mov	r3, r2
    24a0:	009b      	lsls	r3, r3, #2
    24a2:	4413      	add	r3, r2
    24a4:	009b      	lsls	r3, r3, #2
    24a6:	4a14      	ldr	r2, [pc, #80]	; (24f8 <vTaskNotifyGiveFromISR+0xe0>)
    24a8:	441a      	add	r2, r3
    24aa:	697b      	ldr	r3, [r7, #20]
    24ac:	3328      	adds	r3, #40	; 0x28
    24ae:	4619      	mov	r1, r3
    24b0:	4610      	mov	r0, r2
    24b2:	f005 fec7 	bl	8244 <vListInsertEnd>
    24b6:	e005      	b.n	24c4 <vTaskNotifyGiveFromISR+0xac>
    24b8:	697b      	ldr	r3, [r7, #20]
    24ba:	333c      	adds	r3, #60	; 0x3c
    24bc:	4619      	mov	r1, r3
    24be:	480f      	ldr	r0, [pc, #60]	; (24fc <vTaskNotifyGiveFromISR+0xe4>)
    24c0:	f005 fec0 	bl	8244 <vListInsertEnd>
    24c4:	697b      	ldr	r3, [r7, #20]
    24c6:	6d1a      	ldr	r2, [r3, #80]	; 0x50
    24c8:	4b0d      	ldr	r3, [pc, #52]	; (2500 <vTaskNotifyGiveFromISR+0xe8>)
    24ca:	681b      	ldr	r3, [r3, #0]
    24cc:	6d1b      	ldr	r3, [r3, #80]	; 0x50
    24ce:	429a      	cmp	r2, r3
    24d0:	d905      	bls.n	24de <vTaskNotifyGiveFromISR+0xc6>
    24d2:	683b      	ldr	r3, [r7, #0]
    24d4:	2b00      	cmp	r3, #0
    24d6:	d002      	beq.n	24de <vTaskNotifyGiveFromISR+0xc6>
    24d8:	683b      	ldr	r3, [r7, #0]
    24da:	2201      	movs	r2, #1
    24dc:	601a      	str	r2, [r3, #0]
    24de:	f04f 0000 	mov.w	r0, #0
    24e2:	f380 8811 	msr	BASEPRI, r0
    24e6:	bf00      	nop
    24e8:	3718      	adds	r7, #24
    24ea:	46bd      	mov	sp, r7
    24ec:	bd80      	pop	{r7, pc}
    24ee:	bf00      	nop
    24f0:	1000014c 	.word	0x1000014c
    24f4:	10000130 	.word	0x10000130
    24f8:	10000054 	.word	0x10000054
    24fc:	100000e8 	.word	0x100000e8
    2500:	10000050 	.word	0x10000050

00002504 <ulTaskNotifyTake>:
    2504:	b580      	push	{r7, lr}
    2506:	b084      	sub	sp, #16
    2508:	af00      	add	r7, sp, #0
    250a:	6078      	str	r0, [r7, #4]
    250c:	6039      	str	r1, [r7, #0]
    250e:	f005 fc53 	bl	7db8 <vPortEnterCritical>
    2512:	4b27      	ldr	r3, [pc, #156]	; (25b0 <ulTaskNotifyTake+0xac>)
    2514:	681b      	ldr	r3, [r3, #0]
    2516:	6f9b      	ldr	r3, [r3, #120]	; 0x78
    2518:	2b00      	cmp	r3, #0
    251a:	d125      	bne.n	2568 <ulTaskNotifyTake+0x64>
    251c:	4b24      	ldr	r3, [pc, #144]	; (25b0 <ulTaskNotifyTake+0xac>)
    251e:	681b      	ldr	r3, [r3, #0]
    2520:	2201      	movs	r2, #1
    2522:	f883 207c 	strb.w	r2, [r3, #124]	; 0x7c
    2526:	683b      	ldr	r3, [r7, #0]
    2528:	2b00      	cmp	r3, #0
    252a:	d01d      	beq.n	2568 <ulTaskNotifyTake+0x64>
    252c:	4b20      	ldr	r3, [pc, #128]	; (25b0 <ulTaskNotifyTake+0xac>)
    252e:	681b      	ldr	r3, [r3, #0]
    2530:	3328      	adds	r3, #40	; 0x28
    2532:	4618      	mov	r0, r3
    2534:	f005 fee2 	bl	82fc <uxListRemove>
    2538:	683b      	ldr	r3, [r7, #0]
    253a:	f1b3 3fff 	cmp.w	r3, #4294967295
    253e:	d107      	bne.n	2550 <ulTaskNotifyTake+0x4c>
    2540:	4b1b      	ldr	r3, [pc, #108]	; (25b0 <ulTaskNotifyTake+0xac>)
    2542:	681b      	ldr	r3, [r3, #0]
    2544:	3328      	adds	r3, #40	; 0x28
    2546:	4619      	mov	r1, r3
    2548:	481a      	ldr	r0, [pc, #104]	; (25b4 <ulTaskNotifyTake+0xb0>)
    254a:	f005 fe7b 	bl	8244 <vListInsertEnd>
    254e:	e007      	b.n	2560 <ulTaskNotifyTake+0x5c>
    2550:	4b19      	ldr	r3, [pc, #100]	; (25b8 <ulTaskNotifyTake+0xb4>)
    2552:	681a      	ldr	r2, [r3, #0]
    2554:	683b      	ldr	r3, [r7, #0]
    2556:	4413      	add	r3, r2
    2558:	60fb      	str	r3, [r7, #12]
    255a:	68f8      	ldr	r0, [r7, #12]
    255c:	f000 feb0 	bl	32c0 <prvAddCurrentTaskToDelayedList>
    2560:	4b16      	ldr	r3, [pc, #88]	; (25bc <ulTaskNotifyTake+0xb8>)
    2562:	f04f 5280 	mov.w	r2, #268435456	; 0x10000000
    2566:	601a      	str	r2, [r3, #0]
    2568:	f005 fc44 	bl	7df4 <vPortExitCritical>
    256c:	f005 fc24 	bl	7db8 <vPortEnterCritical>
    2570:	4b0f      	ldr	r3, [pc, #60]	; (25b0 <ulTaskNotifyTake+0xac>)
    2572:	681b      	ldr	r3, [r3, #0]
    2574:	6f9b      	ldr	r3, [r3, #120]	; 0x78
    2576:	60bb      	str	r3, [r7, #8]
    2578:	68bb      	ldr	r3, [r7, #8]
    257a:	2b00      	cmp	r3, #0
    257c:	d00c      	beq.n	2598 <ulTaskNotifyTake+0x94>
    257e:	687b      	ldr	r3, [r7, #4]
    2580:	2b00      	cmp	r3, #0
    2582:	d004      	beq.n	258e <ulTaskNotifyTake+0x8a>
    2584:	4b0a      	ldr	r3, [pc, #40]	; (25b0 <ulTaskNotifyTake+0xac>)
    2586:	681b      	ldr	r3, [r3, #0]
    2588:	2200      	movs	r2, #0
    258a:	679a      	str	r2, [r3, #120]	; 0x78
    258c:	e004      	b.n	2598 <ulTaskNotifyTake+0x94>
    258e:	4b08      	ldr	r3, [pc, #32]	; (25b0 <ulTaskNotifyTake+0xac>)
    2590:	681b      	ldr	r3, [r3, #0]
    2592:	6f9a      	ldr	r2, [r3, #120]	; 0x78
    2594:	3a01      	subs	r2, #1
    2596:	679a      	str	r2, [r3, #120]	; 0x78
    2598:	4b05      	ldr	r3, [pc, #20]	; (25b0 <ulTaskNotifyTake+0xac>)
    259a:	681b      	ldr	r3, [r3, #0]
    259c:	2200      	movs	r2, #0
    259e:	f883 207c 	strb.w	r2, [r3, #124]	; 0x7c
    25a2:	f005 fc27 	bl	7df4 <vPortExitCritical>
    25a6:	68bb      	ldr	r3, [r7, #8]
    25a8:	4618      	mov	r0, r3
    25aa:	3710      	adds	r7, #16
    25ac:	46bd      	mov	sp, r7
    25ae:	bd80      	pop	{r7, pc}
    25b0:	10000050 	.word	0x10000050
    25b4:	10000114 	.word	0x10000114
    25b8:	1000012c 	.word	0x1000012c
    25bc:	e000ed04 	.word	0xe000ed04

000025c0 <xTaskIncrementTick>:
    25c0:	b580      	push	{r7, lr}
    25c2:	b086      	sub	sp, #24
    25c4:	af00      	add	r7, sp, #0
    25c6:	2300      	movs	r3, #0
    25c8:	617b      	str	r3, [r7, #20]
    25ca:	4b4f      	ldr	r3, [pc, #316]	; (2708 <xTaskIncrementTick+0x148>)
    25cc:	681b      	ldr	r3, [r3, #0]
    25ce:	2b00      	cmp	r3, #0
    25d0:	f040 8089 	bne.w	26e6 <xTaskIncrementTick+0x126>
    25d4:	4b4d      	ldr	r3, [pc, #308]	; (270c <xTaskIncrementTick+0x14c>)
    25d6:	681b      	ldr	r3, [r3, #0]
    25d8:	3301      	adds	r3, #1
    25da:	4a4c      	ldr	r2, [pc, #304]	; (270c <xTaskIncrementTick+0x14c>)
    25dc:	6013      	str	r3, [r2, #0]
    25de:	4b4b      	ldr	r3, [pc, #300]	; (270c <xTaskIncrementTick+0x14c>)
    25e0:	681b      	ldr	r3, [r3, #0]
    25e2:	613b      	str	r3, [r7, #16]
    25e4:	693b      	ldr	r3, [r7, #16]
    25e6:	2b00      	cmp	r3, #0
    25e8:	d11a      	bne.n	2620 <xTaskIncrementTick+0x60>
    25ea:	4b49      	ldr	r3, [pc, #292]	; (2710 <xTaskIncrementTick+0x150>)
    25ec:	681b      	ldr	r3, [r3, #0]
    25ee:	681b      	ldr	r3, [r3, #0]
    25f0:	2b00      	cmp	r3, #0
    25f2:	d004      	beq.n	25fe <xTaskIncrementTick+0x3e>
    25f4:	f04f 0028 	mov.w	r0, #40	; 0x28
    25f8:	f380 8811 	msr	BASEPRI, r0
    25fc:	e7fe      	b.n	25fc <xTaskIncrementTick+0x3c>
    25fe:	4b44      	ldr	r3, [pc, #272]	; (2710 <xTaskIncrementTick+0x150>)
    2600:	681b      	ldr	r3, [r3, #0]
    2602:	60fb      	str	r3, [r7, #12]
    2604:	4b43      	ldr	r3, [pc, #268]	; (2714 <xTaskIncrementTick+0x154>)
    2606:	681b      	ldr	r3, [r3, #0]
    2608:	4a41      	ldr	r2, [pc, #260]	; (2710 <xTaskIncrementTick+0x150>)
    260a:	6013      	str	r3, [r2, #0]
    260c:	4a41      	ldr	r2, [pc, #260]	; (2714 <xTaskIncrementTick+0x154>)
    260e:	68fb      	ldr	r3, [r7, #12]
    2610:	6013      	str	r3, [r2, #0]
    2612:	4b41      	ldr	r3, [pc, #260]	; (2718 <xTaskIncrementTick+0x158>)
    2614:	681b      	ldr	r3, [r3, #0]
    2616:	3301      	adds	r3, #1
    2618:	4a3f      	ldr	r2, [pc, #252]	; (2718 <xTaskIncrementTick+0x158>)
    261a:	6013      	str	r3, [r2, #0]
    261c:	f005 fea0 	bl	8360 <prvResetNextTaskUnblockTime>
    2620:	4b3e      	ldr	r3, [pc, #248]	; (271c <xTaskIncrementTick+0x15c>)
    2622:	681b      	ldr	r3, [r3, #0]
    2624:	693a      	ldr	r2, [r7, #16]
    2626:	429a      	cmp	r2, r3
    2628:	d34e      	bcc.n	26c8 <xTaskIncrementTick+0x108>
    262a:	4b39      	ldr	r3, [pc, #228]	; (2710 <xTaskIncrementTick+0x150>)
    262c:	681b      	ldr	r3, [r3, #0]
    262e:	681b      	ldr	r3, [r3, #0]
    2630:	2b00      	cmp	r3, #0
    2632:	d101      	bne.n	2638 <xTaskIncrementTick+0x78>
    2634:	2301      	movs	r3, #1
    2636:	e000      	b.n	263a <xTaskIncrementTick+0x7a>
    2638:	2300      	movs	r3, #0
    263a:	2b00      	cmp	r3, #0
    263c:	d004      	beq.n	2648 <xTaskIncrementTick+0x88>
    263e:	4b37      	ldr	r3, [pc, #220]	; (271c <xTaskIncrementTick+0x15c>)
    2640:	f04f 32ff 	mov.w	r2, #4294967295
    2644:	601a      	str	r2, [r3, #0]
    2646:	e03f      	b.n	26c8 <xTaskIncrementTick+0x108>
    2648:	4b31      	ldr	r3, [pc, #196]	; (2710 <xTaskIncrementTick+0x150>)
    264a:	681b      	ldr	r3, [r3, #0]
    264c:	68db      	ldr	r3, [r3, #12]
    264e:	68db      	ldr	r3, [r3, #12]
    2650:	60bb      	str	r3, [r7, #8]
    2652:	68bb      	ldr	r3, [r7, #8]
    2654:	6a9b      	ldr	r3, [r3, #40]	; 0x28
    2656:	607b      	str	r3, [r7, #4]
    2658:	693a      	ldr	r2, [r7, #16]
    265a:	687b      	ldr	r3, [r7, #4]
    265c:	429a      	cmp	r2, r3
    265e:	d203      	bcs.n	2668 <xTaskIncrementTick+0xa8>
    2660:	4a2e      	ldr	r2, [pc, #184]	; (271c <xTaskIncrementTick+0x15c>)
    2662:	687b      	ldr	r3, [r7, #4]
    2664:	6013      	str	r3, [r2, #0]
    2666:	e02f      	b.n	26c8 <xTaskIncrementTick+0x108>
    2668:	68bb      	ldr	r3, [r7, #8]
    266a:	3328      	adds	r3, #40	; 0x28
    266c:	4618      	mov	r0, r3
    266e:	f005 fe45 	bl	82fc <uxListRemove>
    2672:	68bb      	ldr	r3, [r7, #8]
    2674:	6cdb      	ldr	r3, [r3, #76]	; 0x4c
    2676:	2b00      	cmp	r3, #0
    2678:	d004      	beq.n	2684 <xTaskIncrementTick+0xc4>
    267a:	68bb      	ldr	r3, [r7, #8]
    267c:	333c      	adds	r3, #60	; 0x3c
    267e:	4618      	mov	r0, r3
    2680:	f005 fe3c 	bl	82fc <uxListRemove>
    2684:	68bb      	ldr	r3, [r7, #8]
    2686:	6d1a      	ldr	r2, [r3, #80]	; 0x50
    2688:	4b25      	ldr	r3, [pc, #148]	; (2720 <xTaskIncrementTick+0x160>)
    268a:	681b      	ldr	r3, [r3, #0]
    268c:	429a      	cmp	r2, r3
    268e:	d903      	bls.n	2698 <xTaskIncrementTick+0xd8>
    2690:	68bb      	ldr	r3, [r7, #8]
    2692:	6d1b      	ldr	r3, [r3, #80]	; 0x50
    2694:	4a22      	ldr	r2, [pc, #136]	; (2720 <xTaskIncrementTick+0x160>)
    2696:	6013      	str	r3, [r2, #0]
    2698:	68bb      	ldr	r3, [r7, #8]
    269a:	6d1a      	ldr	r2, [r3, #80]	; 0x50
    269c:	4613      	mov	r3, r2
    269e:	009b      	lsls	r3, r3, #2
    26a0:	4413      	add	r3, r2
    26a2:	009b      	lsls	r3, r3, #2
    26a4:	4a1f      	ldr	r2, [pc, #124]	; (2724 <xTaskIncrementTick+0x164>)
    26a6:	441a      	add	r2, r3
    26a8:	68bb      	ldr	r3, [r7, #8]
    26aa:	3328      	adds	r3, #40	; 0x28
    26ac:	4619      	mov	r1, r3
    26ae:	4610      	mov	r0, r2
    26b0:	f005 fdc8 	bl	8244 <vListInsertEnd>
    26b4:	68bb      	ldr	r3, [r7, #8]
    26b6:	6d1a      	ldr	r2, [r3, #80]	; 0x50
    26b8:	4b1b      	ldr	r3, [pc, #108]	; (2728 <xTaskIncrementTick+0x168>)
    26ba:	681b      	ldr	r3, [r3, #0]
    26bc:	6d1b      	ldr	r3, [r3, #80]	; 0x50
    26be:	429a      	cmp	r2, r3
    26c0:	d3b3      	bcc.n	262a <xTaskIncrementTick+0x6a>
    26c2:	2301      	movs	r3, #1
    26c4:	617b      	str	r3, [r7, #20]
    26c6:	e7b0      	b.n	262a <xTaskIncrementTick+0x6a>
    26c8:	4b17      	ldr	r3, [pc, #92]	; (2728 <xTaskIncrementTick+0x168>)
    26ca:	681b      	ldr	r3, [r3, #0]
    26cc:	6d1a      	ldr	r2, [r3, #80]	; 0x50
    26ce:	4915      	ldr	r1, [pc, #84]	; (2724 <xTaskIncrementTick+0x164>)
    26d0:	4613      	mov	r3, r2
    26d2:	009b      	lsls	r3, r3, #2
    26d4:	4413      	add	r3, r2
    26d6:	009b      	lsls	r3, r3, #2
    26d8:	440b      	add	r3, r1
    26da:	681b      	ldr	r3, [r3, #0]
    26dc:	2b01      	cmp	r3, #1
    26de:	d907      	bls.n	26f0 <xTaskIncrementTick+0x130>
    26e0:	2301      	movs	r3, #1
    26e2:	617b      	str	r3, [r7, #20]
    26e4:	e004      	b.n	26f0 <xTaskIncrementTick+0x130>
    26e6:	4b11      	ldr	r3, [pc, #68]	; (272c <xTaskIncrementTick+0x16c>)
    26e8:	681b      	ldr	r3, [r3, #0]
    26ea:	3301      	adds	r3, #1
    26ec:	4a0f      	ldr	r2, [pc, #60]	; (272c <xTaskIncrementTick+0x16c>)
    26ee:	6013      	str	r3, [r2, #0]
    26f0:	4b0f      	ldr	r3, [pc, #60]	; (2730 <xTaskIncrementTick+0x170>)
    26f2:	681b      	ldr	r3, [r3, #0]
    26f4:	2b00      	cmp	r3, #0
    26f6:	d001      	beq.n	26fc <xTaskIncrementTick+0x13c>
    26f8:	2301      	movs	r3, #1
    26fa:	617b      	str	r3, [r7, #20]
    26fc:	697b      	ldr	r3, [r7, #20]
    26fe:	4618      	mov	r0, r3
    2700:	3718      	adds	r7, #24
    2702:	46bd      	mov	sp, r7
    2704:	bd80      	pop	{r7, pc}
    2706:	bf00      	nop
    2708:	1000014c 	.word	0x1000014c
    270c:	1000012c 	.word	0x1000012c
    2710:	100000e0 	.word	0x100000e0
    2714:	100000e4 	.word	0x100000e4
    2718:	10000140 	.word	0x10000140
    271c:	10000148 	.word	0x10000148
    2720:	10000130 	.word	0x10000130
    2724:	10000054 	.word	0x10000054
    2728:	10000050 	.word	0x10000050
    272c:	10000138 	.word	0x10000138
    2730:	1000013c 	.word	0x1000013c

00002734 <vTaskPlaceOnEventList>:
    2734:	b580      	push	{r7, lr}
    2736:	b084      	sub	sp, #16
    2738:	af00      	add	r7, sp, #0
    273a:	6078      	str	r0, [r7, #4]
    273c:	6039      	str	r1, [r7, #0]
    273e:	687b      	ldr	r3, [r7, #4]
    2740:	2b00      	cmp	r3, #0
    2742:	d104      	bne.n	274e <vTaskPlaceOnEventList+0x1a>
    2744:	f04f 0028 	mov.w	r0, #40	; 0x28
    2748:	f380 8811 	msr	BASEPRI, r0
    274c:	e7fe      	b.n	274c <vTaskPlaceOnEventList+0x18>
    274e:	4b12      	ldr	r3, [pc, #72]	; (2798 <vTaskPlaceOnEventList+0x64>)
    2750:	681b      	ldr	r3, [r3, #0]
    2752:	333c      	adds	r3, #60	; 0x3c
    2754:	4619      	mov	r1, r3
    2756:	6878      	ldr	r0, [r7, #4]
    2758:	f005 fd98 	bl	828c <vListInsert>
    275c:	4b0e      	ldr	r3, [pc, #56]	; (2798 <vTaskPlaceOnEventList+0x64>)
    275e:	681b      	ldr	r3, [r3, #0]
    2760:	3328      	adds	r3, #40	; 0x28
    2762:	4618      	mov	r0, r3
    2764:	f005 fdca 	bl	82fc <uxListRemove>
    2768:	683b      	ldr	r3, [r7, #0]
    276a:	f1b3 3fff 	cmp.w	r3, #4294967295
    276e:	d107      	bne.n	2780 <vTaskPlaceOnEventList+0x4c>
    2770:	4b09      	ldr	r3, [pc, #36]	; (2798 <vTaskPlaceOnEventList+0x64>)
    2772:	681b      	ldr	r3, [r3, #0]
    2774:	3328      	adds	r3, #40	; 0x28
    2776:	4619      	mov	r1, r3
    2778:	4808      	ldr	r0, [pc, #32]	; (279c <vTaskPlaceOnEventList+0x68>)
    277a:	f005 fd63 	bl	8244 <vListInsertEnd>
    277e:	e007      	b.n	2790 <vTaskPlaceOnEventList+0x5c>
    2780:	4b07      	ldr	r3, [pc, #28]	; (27a0 <vTaskPlaceOnEventList+0x6c>)
    2782:	681a      	ldr	r2, [r3, #0]
    2784:	683b      	ldr	r3, [r7, #0]
    2786:	4413      	add	r3, r2
    2788:	60fb      	str	r3, [r7, #12]
    278a:	68f8      	ldr	r0, [r7, #12]
    278c:	f000 fd98 	bl	32c0 <prvAddCurrentTaskToDelayedList>
    2790:	bf00      	nop
    2792:	3710      	adds	r7, #16
    2794:	46bd      	mov	sp, r7
    2796:	bd80      	pop	{r7, pc}
    2798:	10000050 	.word	0x10000050
    279c:	10000114 	.word	0x10000114
    27a0:	1000012c 	.word	0x1000012c

000027a4 <vTaskPlaceOnUnorderedEventList>:
    27a4:	b580      	push	{r7, lr}
    27a6:	b086      	sub	sp, #24
    27a8:	af00      	add	r7, sp, #0
    27aa:	60f8      	str	r0, [r7, #12]
    27ac:	60b9      	str	r1, [r7, #8]
    27ae:	607a      	str	r2, [r7, #4]
    27b0:	68fb      	ldr	r3, [r7, #12]
    27b2:	2b00      	cmp	r3, #0
    27b4:	d104      	bne.n	27c0 <vTaskPlaceOnUnorderedEventList+0x1c>
    27b6:	f04f 0028 	mov.w	r0, #40	; 0x28
    27ba:	f380 8811 	msr	BASEPRI, r0
    27be:	e7fe      	b.n	27be <vTaskPlaceOnUnorderedEventList+0x1a>
    27c0:	4b19      	ldr	r3, [pc, #100]	; (2828 <vTaskPlaceOnUnorderedEventList+0x84>)
    27c2:	681b      	ldr	r3, [r3, #0]
    27c4:	2b00      	cmp	r3, #0
    27c6:	d104      	bne.n	27d2 <vTaskPlaceOnUnorderedEventList+0x2e>
    27c8:	f04f 0028 	mov.w	r0, #40	; 0x28
    27cc:	f380 8811 	msr	BASEPRI, r0
    27d0:	e7fe      	b.n	27d0 <vTaskPlaceOnUnorderedEventList+0x2c>
    27d2:	4b16      	ldr	r3, [pc, #88]	; (282c <vTaskPlaceOnUnorderedEventList+0x88>)
    27d4:	681b      	ldr	r3, [r3, #0]
    27d6:	68ba      	ldr	r2, [r7, #8]
    27d8:	f042 4200 	orr.w	r2, r2, #2147483648	; 0x80000000
    27dc:	63da      	str	r2, [r3, #60]	; 0x3c
    27de:	4b13      	ldr	r3, [pc, #76]	; (282c <vTaskPlaceOnUnorderedEventList+0x88>)
    27e0:	681b      	ldr	r3, [r3, #0]
    27e2:	333c      	adds	r3, #60	; 0x3c
    27e4:	4619      	mov	r1, r3
    27e6:	68f8      	ldr	r0, [r7, #12]
    27e8:	f005 fd2c 	bl	8244 <vListInsertEnd>
    27ec:	4b0f      	ldr	r3, [pc, #60]	; (282c <vTaskPlaceOnUnorderedEventList+0x88>)
    27ee:	681b      	ldr	r3, [r3, #0]
    27f0:	3328      	adds	r3, #40	; 0x28
    27f2:	4618      	mov	r0, r3
    27f4:	f005 fd82 	bl	82fc <uxListRemove>
    27f8:	687b      	ldr	r3, [r7, #4]
    27fa:	f1b3 3fff 	cmp.w	r3, #4294967295
    27fe:	d107      	bne.n	2810 <vTaskPlaceOnUnorderedEventList+0x6c>
    2800:	4b0a      	ldr	r3, [pc, #40]	; (282c <vTaskPlaceOnUnorderedEventList+0x88>)
    2802:	681b      	ldr	r3, [r3, #0]
    2804:	3328      	adds	r3, #40	; 0x28
    2806:	4619      	mov	r1, r3
    2808:	4809      	ldr	r0, [pc, #36]	; (2830 <vTaskPlaceOnUnorderedEventList+0x8c>)
    280a:	f005 fd1b 	bl	8244 <vListInsertEnd>
    280e:	e007      	b.n	2820 <vTaskPlaceOnUnorderedEventList+0x7c>
    2810:	4b08      	ldr	r3, [pc, #32]	; (2834 <vTaskPlaceOnUnorderedEventList+0x90>)
    2812:	681a      	ldr	r2, [r3, #0]
    2814:	687b      	ldr	r3, [r7, #4]
    2816:	4413      	add	r3, r2
    2818:	617b      	str	r3, [r7, #20]
    281a:	6978      	ldr	r0, [r7, #20]
    281c:	f000 fd50 	bl	32c0 <prvAddCurrentTaskToDelayedList>
    2820:	bf00      	nop
    2822:	3718      	adds	r7, #24
    2824:	46bd      	mov	sp, r7
    2826:	bd80      	pop	{r7, pc}
    2828:	1000014c 	.word	0x1000014c
    282c:	10000050 	.word	0x10000050
    2830:	10000114 	.word	0x10000114
    2834:	1000012c 	.word	0x1000012c

00002838 <vTaskPlaceOnEventListRestricted>:
    2838:	b580      	push	{r7, lr}
    283a:	b086      	sub	sp, #24
    283c:	af00      	add	r7, sp, #0
    283e:	60f8      	str	r0, [r7, #12]
    2840:	60b9      	str	r1, [r7, #8]
    2842:	607a      	str	r2, [r7, #4]
    2844:	68fb      	ldr	r3, [r7, #12]
    2846:	2b00      	cmp	r3, #0
    2848:	d104      	bne.n	2854 <vTaskPlaceOnEventListRestricted+0x1c>
    284a:	f04f 0028 	mov.w	r0, #40	; 0x28
    284e:	f380 8811 	msr	BASEPRI, r0
    2852:	e7fe      	b.n	2852 <vTaskPlaceOnEventListRestricted+0x1a>
    2854:	4b11      	ldr	r3, [pc, #68]	; (289c <vTaskPlaceOnEventListRestricted+0x64>)
    2856:	681b      	ldr	r3, [r3, #0]
    2858:	333c      	adds	r3, #60	; 0x3c
    285a:	4619      	mov	r1, r3
    285c:	68f8      	ldr	r0, [r7, #12]
    285e:	f005 fcf1 	bl	8244 <vListInsertEnd>
    2862:	4b0e      	ldr	r3, [pc, #56]	; (289c <vTaskPlaceOnEventListRestricted+0x64>)
    2864:	681b      	ldr	r3, [r3, #0]
    2866:	3328      	adds	r3, #40	; 0x28
    2868:	4618      	mov	r0, r3
    286a:	f005 fd47 	bl	82fc <uxListRemove>
    286e:	687b      	ldr	r3, [r7, #4]
    2870:	2b01      	cmp	r3, #1
    2872:	d107      	bne.n	2884 <vTaskPlaceOnEventListRestricted+0x4c>
    2874:	4b09      	ldr	r3, [pc, #36]	; (289c <vTaskPlaceOnEventListRestricted+0x64>)
    2876:	681b      	ldr	r3, [r3, #0]
    2878:	3328      	adds	r3, #40	; 0x28
    287a:	4619      	mov	r1, r3
    287c:	4808      	ldr	r0, [pc, #32]	; (28a0 <vTaskPlaceOnEventListRestricted+0x68>)
    287e:	f005 fce1 	bl	8244 <vListInsertEnd>
    2882:	e007      	b.n	2894 <vTaskPlaceOnEventListRestricted+0x5c>
    2884:	4b07      	ldr	r3, [pc, #28]	; (28a4 <vTaskPlaceOnEventListRestricted+0x6c>)
    2886:	681a      	ldr	r2, [r3, #0]
    2888:	68bb      	ldr	r3, [r7, #8]
    288a:	4413      	add	r3, r2
    288c:	617b      	str	r3, [r7, #20]
    288e:	6978      	ldr	r0, [r7, #20]
    2890:	f000 fd16 	bl	32c0 <prvAddCurrentTaskToDelayedList>
    2894:	bf00      	nop
    2896:	3718      	adds	r7, #24
    2898:	46bd      	mov	sp, r7
    289a:	bd80      	pop	{r7, pc}
    289c:	10000050 	.word	0x10000050
    28a0:	10000114 	.word	0x10000114
    28a4:	1000012c 	.word	0x1000012c

000028a8 <xTaskRemoveFromEventList>:
    28a8:	b580      	push	{r7, lr}
    28aa:	b084      	sub	sp, #16
    28ac:	af00      	add	r7, sp, #0
    28ae:	6078      	str	r0, [r7, #4]
    28b0:	687b      	ldr	r3, [r7, #4]
    28b2:	68db      	ldr	r3, [r3, #12]
    28b4:	68db      	ldr	r3, [r3, #12]
    28b6:	60bb      	str	r3, [r7, #8]
    28b8:	68bb      	ldr	r3, [r7, #8]
    28ba:	2b00      	cmp	r3, #0
    28bc:	d104      	bne.n	28c8 <xTaskRemoveFromEventList+0x20>
    28be:	f04f 0028 	mov.w	r0, #40	; 0x28
    28c2:	f380 8811 	msr	BASEPRI, r0
    28c6:	e7fe      	b.n	28c6 <xTaskRemoveFromEventList+0x1e>
    28c8:	68bb      	ldr	r3, [r7, #8]
    28ca:	333c      	adds	r3, #60	; 0x3c
    28cc:	4618      	mov	r0, r3
    28ce:	f005 fd15 	bl	82fc <uxListRemove>
    28d2:	4b1e      	ldr	r3, [pc, #120]	; (294c <xTaskRemoveFromEventList+0xa4>)
    28d4:	681b      	ldr	r3, [r3, #0]
    28d6:	2b00      	cmp	r3, #0
    28d8:	d11d      	bne.n	2916 <xTaskRemoveFromEventList+0x6e>
    28da:	68bb      	ldr	r3, [r7, #8]
    28dc:	3328      	adds	r3, #40	; 0x28
    28de:	4618      	mov	r0, r3
    28e0:	f005 fd0c 	bl	82fc <uxListRemove>
    28e4:	68bb      	ldr	r3, [r7, #8]
    28e6:	6d1a      	ldr	r2, [r3, #80]	; 0x50
    28e8:	4b19      	ldr	r3, [pc, #100]	; (2950 <xTaskRemoveFromEventList+0xa8>)
    28ea:	681b      	ldr	r3, [r3, #0]
    28ec:	429a      	cmp	r2, r3
    28ee:	d903      	bls.n	28f8 <xTaskRemoveFromEventList+0x50>
    28f0:	68bb      	ldr	r3, [r7, #8]
    28f2:	6d1b      	ldr	r3, [r3, #80]	; 0x50
    28f4:	4a16      	ldr	r2, [pc, #88]	; (2950 <xTaskRemoveFromEventList+0xa8>)
    28f6:	6013      	str	r3, [r2, #0]
    28f8:	68bb      	ldr	r3, [r7, #8]
    28fa:	6d1a      	ldr	r2, [r3, #80]	; 0x50
    28fc:	4613      	mov	r3, r2
    28fe:	009b      	lsls	r3, r3, #2
    2900:	4413      	add	r3, r2
    2902:	009b      	lsls	r3, r3, #2
    2904:	4a13      	ldr	r2, [pc, #76]	; (2954 <xTaskRemoveFromEventList+0xac>)
    2906:	441a      	add	r2, r3
    2908:	68bb      	ldr	r3, [r7, #8]
    290a:	3328      	adds	r3, #40	; 0x28
    290c:	4619      	mov	r1, r3
    290e:	4610      	mov	r0, r2
    2910:	f005 fc98 	bl	8244 <vListInsertEnd>
    2914:	e005      	b.n	2922 <xTaskRemoveFromEventList+0x7a>
    2916:	68bb      	ldr	r3, [r7, #8]
    2918:	333c      	adds	r3, #60	; 0x3c
    291a:	4619      	mov	r1, r3
    291c:	480e      	ldr	r0, [pc, #56]	; (2958 <xTaskRemoveFromEventList+0xb0>)
    291e:	f005 fc91 	bl	8244 <vListInsertEnd>
    2922:	68bb      	ldr	r3, [r7, #8]
    2924:	6d1a      	ldr	r2, [r3, #80]	; 0x50
    2926:	4b0d      	ldr	r3, [pc, #52]	; (295c <xTaskRemoveFromEventList+0xb4>)
    2928:	681b      	ldr	r3, [r3, #0]
    292a:	6d1b      	ldr	r3, [r3, #80]	; 0x50
    292c:	429a      	cmp	r2, r3
    292e:	d905      	bls.n	293c <xTaskRemoveFromEventList+0x94>
    2930:	2301      	movs	r3, #1
    2932:	60fb      	str	r3, [r7, #12]
    2934:	4b0a      	ldr	r3, [pc, #40]	; (2960 <xTaskRemoveFromEventList+0xb8>)
    2936:	2201      	movs	r2, #1
    2938:	601a      	str	r2, [r3, #0]
    293a:	e001      	b.n	2940 <xTaskRemoveFromEventList+0x98>
    293c:	2300      	movs	r3, #0
    293e:	60fb      	str	r3, [r7, #12]
    2940:	68fb      	ldr	r3, [r7, #12]
    2942:	4618      	mov	r0, r3
    2944:	3710      	adds	r7, #16
    2946:	46bd      	mov	sp, r7
    2948:	bd80      	pop	{r7, pc}
    294a:	bf00      	nop
    294c:	1000014c 	.word	0x1000014c
    2950:	10000130 	.word	0x10000130
    2954:	10000054 	.word	0x10000054
    2958:	100000e8 	.word	0x100000e8
    295c:	10000050 	.word	0x10000050
    2960:	1000013c 	.word	0x1000013c

00002964 <xTaskRemoveFromUnorderedEventList>:
    2964:	b580      	push	{r7, lr}
    2966:	b084      	sub	sp, #16
    2968:	af00      	add	r7, sp, #0
    296a:	6078      	str	r0, [r7, #4]
    296c:	6039      	str	r1, [r7, #0]
    296e:	4b26      	ldr	r3, [pc, #152]	; (2a08 <xTaskRemoveFromUnorderedEventList+0xa4>)
    2970:	681b      	ldr	r3, [r3, #0]
    2972:	2b00      	cmp	r3, #0
    2974:	d104      	bne.n	2980 <xTaskRemoveFromUnorderedEventList+0x1c>
    2976:	f04f 0028 	mov.w	r0, #40	; 0x28
    297a:	f380 8811 	msr	BASEPRI, r0
    297e:	e7fe      	b.n	297e <xTaskRemoveFromUnorderedEventList+0x1a>
    2980:	683b      	ldr	r3, [r7, #0]
    2982:	f043 4200 	orr.w	r2, r3, #2147483648	; 0x80000000
    2986:	687b      	ldr	r3, [r7, #4]
    2988:	601a      	str	r2, [r3, #0]
    298a:	687b      	ldr	r3, [r7, #4]
    298c:	68db      	ldr	r3, [r3, #12]
    298e:	60bb      	str	r3, [r7, #8]
    2990:	68bb      	ldr	r3, [r7, #8]
    2992:	2b00      	cmp	r3, #0
    2994:	d104      	bne.n	29a0 <xTaskRemoveFromUnorderedEventList+0x3c>
    2996:	f04f 0028 	mov.w	r0, #40	; 0x28
    299a:	f380 8811 	msr	BASEPRI, r0
    299e:	e7fe      	b.n	299e <xTaskRemoveFromUnorderedEventList+0x3a>
    29a0:	6878      	ldr	r0, [r7, #4]
    29a2:	f005 fcab 	bl	82fc <uxListRemove>
    29a6:	68bb      	ldr	r3, [r7, #8]
    29a8:	3328      	adds	r3, #40	; 0x28
    29aa:	4618      	mov	r0, r3
    29ac:	f005 fca6 	bl	82fc <uxListRemove>
    29b0:	68bb      	ldr	r3, [r7, #8]
    29b2:	6d1a      	ldr	r2, [r3, #80]	; 0x50
    29b4:	4b15      	ldr	r3, [pc, #84]	; (2a0c <xTaskRemoveFromUnorderedEventList+0xa8>)
    29b6:	681b      	ldr	r3, [r3, #0]
    29b8:	429a      	cmp	r2, r3
    29ba:	d903      	bls.n	29c4 <xTaskRemoveFromUnorderedEventList+0x60>
    29bc:	68bb      	ldr	r3, [r7, #8]
    29be:	6d1b      	ldr	r3, [r3, #80]	; 0x50
    29c0:	4a12      	ldr	r2, [pc, #72]	; (2a0c <xTaskRemoveFromUnorderedEventList+0xa8>)
    29c2:	6013      	str	r3, [r2, #0]
    29c4:	68bb      	ldr	r3, [r7, #8]
    29c6:	6d1a      	ldr	r2, [r3, #80]	; 0x50
    29c8:	4613      	mov	r3, r2
    29ca:	009b      	lsls	r3, r3, #2
    29cc:	4413      	add	r3, r2
    29ce:	009b      	lsls	r3, r3, #2
    29d0:	4a0f      	ldr	r2, [pc, #60]	; (2a10 <xTaskRemoveFromUnorderedEventList+0xac>)
    29d2:	441a      	add	r2, r3
    29d4:	68bb      	ldr	r3, [r7, #8]
    29d6:	3328      	adds	r3, #40	; 0x28
    29d8:	4619      	mov	r1, r3
    29da:	4610      	mov	r0, r2
    29dc:	f005 fc32 	bl	8244 <vListInsertEnd>
    29e0:	68bb      	ldr	r3, [r7, #8]
    29e2:	6d1a      	ldr	r2, [r3, #80]	; 0x50
    29e4:	4b0b      	ldr	r3, [pc, #44]	; (2a14 <xTaskRemoveFromUnorderedEventList+0xb0>)
    29e6:	681b      	ldr	r3, [r3, #0]
    29e8:	6d1b      	ldr	r3, [r3, #80]	; 0x50
    29ea:	429a      	cmp	r2, r3
    29ec:	d905      	bls.n	29fa <xTaskRemoveFromUnorderedEventList+0x96>
    29ee:	2301      	movs	r3, #1
    29f0:	60fb      	str	r3, [r7, #12]
    29f2:	4b09      	ldr	r3, [pc, #36]	; (2a18 <xTaskRemoveFromUnorderedEventList+0xb4>)
    29f4:	2201      	movs	r2, #1
    29f6:	601a      	str	r2, [r3, #0]
    29f8:	e001      	b.n	29fe <xTaskRemoveFromUnorderedEventList+0x9a>
    29fa:	2300      	movs	r3, #0
    29fc:	60fb      	str	r3, [r7, #12]
    29fe:	68fb      	ldr	r3, [r7, #12]
    2a00:	4618      	mov	r0, r3
    2a02:	3710      	adds	r7, #16
    2a04:	46bd      	mov	sp, r7
    2a06:	bd80      	pop	{r7, pc}
    2a08:	1000014c 	.word	0x1000014c
    2a0c:	10000130 	.word	0x10000130
    2a10:	10000054 	.word	0x10000054
    2a14:	10000050 	.word	0x10000050
    2a18:	1000013c 	.word	0x1000013c

00002a1c <vTaskSwitchContext>:
    2a1c:	b580      	push	{r7, lr}
    2a1e:	b084      	sub	sp, #16
    2a20:	af00      	add	r7, sp, #0
    2a22:	4b43      	ldr	r3, [pc, #268]	; (2b30 <vTaskSwitchContext+0x114>)
    2a24:	681b      	ldr	r3, [r3, #0]
    2a26:	2b00      	cmp	r3, #0
    2a28:	d003      	beq.n	2a32 <vTaskSwitchContext+0x16>
    2a2a:	4b42      	ldr	r3, [pc, #264]	; (2b34 <vTaskSwitchContext+0x118>)
    2a2c:	2201      	movs	r2, #1
    2a2e:	601a      	str	r2, [r3, #0]
    2a30:	e07a      	b.n	2b28 <vTaskSwitchContext+0x10c>
    2a32:	4b40      	ldr	r3, [pc, #256]	; (2b34 <vTaskSwitchContext+0x118>)
    2a34:	2200      	movs	r2, #0
    2a36:	601a      	str	r2, [r3, #0]
    2a38:	f008 fe3a 	bl	b6b0 <ulMainGetRunTimeCounterValue>
    2a3c:	4602      	mov	r2, r0
    2a3e:	4b3e      	ldr	r3, [pc, #248]	; (2b38 <vTaskSwitchContext+0x11c>)
    2a40:	601a      	str	r2, [r3, #0]
    2a42:	4b3d      	ldr	r3, [pc, #244]	; (2b38 <vTaskSwitchContext+0x11c>)
    2a44:	681a      	ldr	r2, [r3, #0]
    2a46:	4b3d      	ldr	r3, [pc, #244]	; (2b3c <vTaskSwitchContext+0x120>)
    2a48:	681b      	ldr	r3, [r3, #0]
    2a4a:	429a      	cmp	r2, r3
    2a4c:	d909      	bls.n	2a62 <vTaskSwitchContext+0x46>
    2a4e:	4b3c      	ldr	r3, [pc, #240]	; (2b40 <vTaskSwitchContext+0x124>)
    2a50:	681b      	ldr	r3, [r3, #0]
    2a52:	6f59      	ldr	r1, [r3, #116]	; 0x74
    2a54:	4a38      	ldr	r2, [pc, #224]	; (2b38 <vTaskSwitchContext+0x11c>)
    2a56:	6810      	ldr	r0, [r2, #0]
    2a58:	4a38      	ldr	r2, [pc, #224]	; (2b3c <vTaskSwitchContext+0x120>)
    2a5a:	6812      	ldr	r2, [r2, #0]
    2a5c:	1a82      	subs	r2, r0, r2
    2a5e:	440a      	add	r2, r1
    2a60:	675a      	str	r2, [r3, #116]	; 0x74
    2a62:	4b35      	ldr	r3, [pc, #212]	; (2b38 <vTaskSwitchContext+0x11c>)
    2a64:	681b      	ldr	r3, [r3, #0]
    2a66:	4a35      	ldr	r2, [pc, #212]	; (2b3c <vTaskSwitchContext+0x120>)
    2a68:	6013      	str	r3, [r2, #0]
    2a6a:	4b35      	ldr	r3, [pc, #212]	; (2b40 <vTaskSwitchContext+0x124>)
    2a6c:	681b      	ldr	r3, [r3, #0]
    2a6e:	6d5b      	ldr	r3, [r3, #84]	; 0x54
    2a70:	60fb      	str	r3, [r7, #12]
    2a72:	f04f 33a5 	mov.w	r3, #2779096485	; 0xa5a5a5a5
    2a76:	60bb      	str	r3, [r7, #8]
    2a78:	68fb      	ldr	r3, [r7, #12]
    2a7a:	681a      	ldr	r2, [r3, #0]
    2a7c:	68bb      	ldr	r3, [r7, #8]
    2a7e:	429a      	cmp	r2, r3
    2a80:	d111      	bne.n	2aa6 <vTaskSwitchContext+0x8a>
    2a82:	68fb      	ldr	r3, [r7, #12]
    2a84:	3304      	adds	r3, #4
    2a86:	681a      	ldr	r2, [r3, #0]
    2a88:	68bb      	ldr	r3, [r7, #8]
    2a8a:	429a      	cmp	r2, r3
    2a8c:	d10b      	bne.n	2aa6 <vTaskSwitchContext+0x8a>
    2a8e:	68fb      	ldr	r3, [r7, #12]
    2a90:	3308      	adds	r3, #8
    2a92:	681a      	ldr	r2, [r3, #0]
    2a94:	68bb      	ldr	r3, [r7, #8]
    2a96:	429a      	cmp	r2, r3
    2a98:	d105      	bne.n	2aa6 <vTaskSwitchContext+0x8a>
    2a9a:	68fb      	ldr	r3, [r7, #12]
    2a9c:	330c      	adds	r3, #12
    2a9e:	681a      	ldr	r2, [r3, #0]
    2aa0:	68bb      	ldr	r3, [r7, #8]
    2aa2:	429a      	cmp	r2, r3
    2aa4:	d017      	beq.n	2ad6 <vTaskSwitchContext+0xba>
    2aa6:	4b26      	ldr	r3, [pc, #152]	; (2b40 <vTaskSwitchContext+0x124>)
    2aa8:	681a      	ldr	r2, [r3, #0]
    2aaa:	4b25      	ldr	r3, [pc, #148]	; (2b40 <vTaskSwitchContext+0x124>)
    2aac:	681b      	ldr	r3, [r3, #0]
    2aae:	3358      	adds	r3, #88	; 0x58
    2ab0:	4619      	mov	r1, r3
    2ab2:	4610      	mov	r0, r2
    2ab4:	f008 fe3a 	bl	b72c <vApplicationStackOverflowHook>
    2ab8:	e00d      	b.n	2ad6 <vTaskSwitchContext+0xba>
    2aba:	4b22      	ldr	r3, [pc, #136]	; (2b44 <vTaskSwitchContext+0x128>)
    2abc:	681b      	ldr	r3, [r3, #0]
    2abe:	2b00      	cmp	r3, #0
    2ac0:	d104      	bne.n	2acc <vTaskSwitchContext+0xb0>
    2ac2:	f04f 0028 	mov.w	r0, #40	; 0x28
    2ac6:	f380 8811 	msr	BASEPRI, r0
    2aca:	e7fe      	b.n	2aca <vTaskSwitchContext+0xae>
    2acc:	4b1d      	ldr	r3, [pc, #116]	; (2b44 <vTaskSwitchContext+0x128>)
    2ace:	681b      	ldr	r3, [r3, #0]
    2ad0:	3b01      	subs	r3, #1
    2ad2:	4a1c      	ldr	r2, [pc, #112]	; (2b44 <vTaskSwitchContext+0x128>)
    2ad4:	6013      	str	r3, [r2, #0]
    2ad6:	4b1b      	ldr	r3, [pc, #108]	; (2b44 <vTaskSwitchContext+0x128>)
    2ad8:	681a      	ldr	r2, [r3, #0]
    2ada:	491b      	ldr	r1, [pc, #108]	; (2b48 <vTaskSwitchContext+0x12c>)
    2adc:	4613      	mov	r3, r2
    2ade:	009b      	lsls	r3, r3, #2
    2ae0:	4413      	add	r3, r2
    2ae2:	009b      	lsls	r3, r3, #2
    2ae4:	440b      	add	r3, r1
    2ae6:	681b      	ldr	r3, [r3, #0]
    2ae8:	2b00      	cmp	r3, #0
    2aea:	d0e6      	beq.n	2aba <vTaskSwitchContext+0x9e>
    2aec:	4b15      	ldr	r3, [pc, #84]	; (2b44 <vTaskSwitchContext+0x128>)
    2aee:	681a      	ldr	r2, [r3, #0]
    2af0:	4613      	mov	r3, r2
    2af2:	009b      	lsls	r3, r3, #2
    2af4:	4413      	add	r3, r2
    2af6:	009b      	lsls	r3, r3, #2
    2af8:	4a13      	ldr	r2, [pc, #76]	; (2b48 <vTaskSwitchContext+0x12c>)
    2afa:	4413      	add	r3, r2
    2afc:	607b      	str	r3, [r7, #4]
    2afe:	687b      	ldr	r3, [r7, #4]
    2b00:	685b      	ldr	r3, [r3, #4]
    2b02:	685a      	ldr	r2, [r3, #4]
    2b04:	687b      	ldr	r3, [r7, #4]
    2b06:	605a      	str	r2, [r3, #4]
    2b08:	687b      	ldr	r3, [r7, #4]
    2b0a:	685a      	ldr	r2, [r3, #4]
    2b0c:	687b      	ldr	r3, [r7, #4]
    2b0e:	3308      	adds	r3, #8
    2b10:	429a      	cmp	r2, r3
    2b12:	d104      	bne.n	2b1e <vTaskSwitchContext+0x102>
    2b14:	687b      	ldr	r3, [r7, #4]
    2b16:	685b      	ldr	r3, [r3, #4]
    2b18:	685a      	ldr	r2, [r3, #4]
    2b1a:	687b      	ldr	r3, [r7, #4]
    2b1c:	605a      	str	r2, [r3, #4]
    2b1e:	687b      	ldr	r3, [r7, #4]
    2b20:	685b      	ldr	r3, [r3, #4]
    2b22:	68db      	ldr	r3, [r3, #12]
    2b24:	4a06      	ldr	r2, [pc, #24]	; (2b40 <vTaskSwitchContext+0x124>)
    2b26:	6013      	str	r3, [r2, #0]
    2b28:	bf00      	nop
    2b2a:	3710      	adds	r7, #16
    2b2c:	46bd      	mov	sp, r7
    2b2e:	bd80      	pop	{r7, pc}
    2b30:	1000014c 	.word	0x1000014c
    2b34:	1000013c 	.word	0x1000013c
    2b38:	10000154 	.word	0x10000154
    2b3c:	10000150 	.word	0x10000150
    2b40:	10000050 	.word	0x10000050
    2b44:	10000130 	.word	0x10000130
    2b48:	10000054 	.word	0x10000054

00002b4c <uxTaskResetEventItemValue>:
    2b4c:	b480      	push	{r7}
    2b4e:	b083      	sub	sp, #12
    2b50:	af00      	add	r7, sp, #0
    2b52:	4b09      	ldr	r3, [pc, #36]	; (2b78 <uxTaskResetEventItemValue+0x2c>)
    2b54:	681b      	ldr	r3, [r3, #0]
    2b56:	6bdb      	ldr	r3, [r3, #60]	; 0x3c
    2b58:	607b      	str	r3, [r7, #4]
    2b5a:	4b07      	ldr	r3, [pc, #28]	; (2b78 <uxTaskResetEventItemValue+0x2c>)
    2b5c:	681b      	ldr	r3, [r3, #0]
    2b5e:	4a06      	ldr	r2, [pc, #24]	; (2b78 <uxTaskResetEventItemValue+0x2c>)
    2b60:	6812      	ldr	r2, [r2, #0]
    2b62:	6d12      	ldr	r2, [r2, #80]	; 0x50
    2b64:	f1c2 0205 	rsb	r2, r2, #5
    2b68:	63da      	str	r2, [r3, #60]	; 0x3c
    2b6a:	687b      	ldr	r3, [r7, #4]
    2b6c:	4618      	mov	r0, r3
    2b6e:	370c      	adds	r7, #12
    2b70:	46bd      	mov	sp, r7
    2b72:	bc80      	pop	{r7}
    2b74:	4770      	bx	lr
    2b76:	bf00      	nop
    2b78:	10000050 	.word	0x10000050

00002b7c <xTaskGetCurrentTaskHandle>:
    2b7c:	b480      	push	{r7}
    2b7e:	b083      	sub	sp, #12
    2b80:	af00      	add	r7, sp, #0
    2b82:	4b04      	ldr	r3, [pc, #16]	; (2b94 <xTaskGetCurrentTaskHandle+0x18>)
    2b84:	681b      	ldr	r3, [r3, #0]
    2b86:	607b      	str	r3, [r7, #4]
    2b88:	687b      	ldr	r3, [r7, #4]
    2b8a:	4618      	mov	r0, r3
    2b8c:	370c      	adds	r7, #12
    2b8e:	46bd      	mov	sp, r7
    2b90:	bc80      	pop	{r7}
    2b92:	4770      	bx	lr
    2b94:	10000050 	.word	0x10000050

00002b98 <vTaskSetTimeOutState>:
    2b98:	b480      	push	{r7}
    2b9a:	b083      	sub	sp, #12
    2b9c:	af00      	add	r7, sp, #0
    2b9e:	6078      	str	r0, [r7, #4]
    2ba0:	687b      	ldr	r3, [r7, #4]
    2ba2:	2b00      	cmp	r3, #0
    2ba4:	d104      	bne.n	2bb0 <vTaskSetTimeOutState+0x18>
    2ba6:	f04f 0028 	mov.w	r0, #40	; 0x28
    2baa:	f380 8811 	msr	BASEPRI, r0
    2bae:	e7fe      	b.n	2bae <vTaskSetTimeOutState+0x16>
    2bb0:	4b06      	ldr	r3, [pc, #24]	; (2bcc <vTaskSetTimeOutState+0x34>)
    2bb2:	681a      	ldr	r2, [r3, #0]
    2bb4:	687b      	ldr	r3, [r7, #4]
    2bb6:	601a      	str	r2, [r3, #0]
    2bb8:	4b05      	ldr	r3, [pc, #20]	; (2bd0 <vTaskSetTimeOutState+0x38>)
    2bba:	681a      	ldr	r2, [r3, #0]
    2bbc:	687b      	ldr	r3, [r7, #4]
    2bbe:	605a      	str	r2, [r3, #4]
    2bc0:	bf00      	nop
    2bc2:	370c      	adds	r7, #12
    2bc4:	46bd      	mov	sp, r7
    2bc6:	bc80      	pop	{r7}
    2bc8:	4770      	bx	lr
    2bca:	bf00      	nop
    2bcc:	10000140 	.word	0x10000140
    2bd0:	1000012c 	.word	0x1000012c

00002bd4 <xTaskCheckForTimeOut>:
    2bd4:	b580      	push	{r7, lr}
    2bd6:	b084      	sub	sp, #16
    2bd8:	af00      	add	r7, sp, #0
    2bda:	6078      	str	r0, [r7, #4]
    2bdc:	6039      	str	r1, [r7, #0]
    2bde:	687b      	ldr	r3, [r7, #4]
    2be0:	2b00      	cmp	r3, #0
    2be2:	d104      	bne.n	2bee <xTaskCheckForTimeOut+0x1a>
    2be4:	f04f 0028 	mov.w	r0, #40	; 0x28
    2be8:	f380 8811 	msr	BASEPRI, r0
    2bec:	e7fe      	b.n	2bec <xTaskCheckForTimeOut+0x18>
    2bee:	683b      	ldr	r3, [r7, #0]
    2bf0:	2b00      	cmp	r3, #0
    2bf2:	d104      	bne.n	2bfe <xTaskCheckForTimeOut+0x2a>
    2bf4:	f04f 0028 	mov.w	r0, #40	; 0x28
    2bf8:	f380 8811 	msr	BASEPRI, r0
    2bfc:	e7fe      	b.n	2bfc <xTaskCheckForTimeOut+0x28>
    2bfe:	f005 f8db 	bl	7db8 <vPortEnterCritical>
    2c02:	4b1c      	ldr	r3, [pc, #112]	; (2c74 <xTaskCheckForTimeOut+0xa0>)
    2c04:	681b      	ldr	r3, [r3, #0]
    2c06:	60bb      	str	r3, [r7, #8]
    2c08:	683b      	ldr	r3, [r7, #0]
    2c0a:	681b      	ldr	r3, [r3, #0]
    2c0c:	f1b3 3fff 	cmp.w	r3, #4294967295
    2c10:	d102      	bne.n	2c18 <xTaskCheckForTimeOut+0x44>
    2c12:	2300      	movs	r3, #0
    2c14:	60fb      	str	r3, [r7, #12]
    2c16:	e026      	b.n	2c66 <xTaskCheckForTimeOut+0x92>
    2c18:	687b      	ldr	r3, [r7, #4]
    2c1a:	681a      	ldr	r2, [r3, #0]
    2c1c:	4b16      	ldr	r3, [pc, #88]	; (2c78 <xTaskCheckForTimeOut+0xa4>)
    2c1e:	681b      	ldr	r3, [r3, #0]
    2c20:	429a      	cmp	r2, r3
    2c22:	d007      	beq.n	2c34 <xTaskCheckForTimeOut+0x60>
    2c24:	687b      	ldr	r3, [r7, #4]
    2c26:	685a      	ldr	r2, [r3, #4]
    2c28:	68bb      	ldr	r3, [r7, #8]
    2c2a:	429a      	cmp	r2, r3
    2c2c:	d802      	bhi.n	2c34 <xTaskCheckForTimeOut+0x60>
    2c2e:	2301      	movs	r3, #1
    2c30:	60fb      	str	r3, [r7, #12]
    2c32:	e018      	b.n	2c66 <xTaskCheckForTimeOut+0x92>
    2c34:	687b      	ldr	r3, [r7, #4]
    2c36:	685b      	ldr	r3, [r3, #4]
    2c38:	68ba      	ldr	r2, [r7, #8]
    2c3a:	1ad2      	subs	r2, r2, r3
    2c3c:	683b      	ldr	r3, [r7, #0]
    2c3e:	681b      	ldr	r3, [r3, #0]
    2c40:	429a      	cmp	r2, r3
    2c42:	d20e      	bcs.n	2c62 <xTaskCheckForTimeOut+0x8e>
    2c44:	683b      	ldr	r3, [r7, #0]
    2c46:	681a      	ldr	r2, [r3, #0]
    2c48:	687b      	ldr	r3, [r7, #4]
    2c4a:	6859      	ldr	r1, [r3, #4]
    2c4c:	68bb      	ldr	r3, [r7, #8]
    2c4e:	1acb      	subs	r3, r1, r3
    2c50:	441a      	add	r2, r3
    2c52:	683b      	ldr	r3, [r7, #0]
    2c54:	601a      	str	r2, [r3, #0]
    2c56:	6878      	ldr	r0, [r7, #4]
    2c58:	f7ff ff9e 	bl	2b98 <vTaskSetTimeOutState>
    2c5c:	2300      	movs	r3, #0
    2c5e:	60fb      	str	r3, [r7, #12]
    2c60:	e001      	b.n	2c66 <xTaskCheckForTimeOut+0x92>
    2c62:	2301      	movs	r3, #1
    2c64:	60fb      	str	r3, [r7, #12]
    2c66:	f005 f8c5 	bl	7df4 <vPortExitCritical>
    2c6a:	68fb      	ldr	r3, [r7, #12]
    2c6c:	4618      	mov	r0, r3
    2c6e:	3710      	adds	r7, #16
    2c70:	46bd      	mov	sp, r7
    2c72:	bd80      	pop	{r7, pc}
    2c74:	1000012c 	.word	0x1000012c
    2c78:	10000140 	.word	0x10000140

00002c7c <vTaskMissedYield>:
    2c7c:	b480      	push	{r7}
    2c7e:	af00      	add	r7, sp, #0
    2c80:	4b03      	ldr	r3, [pc, #12]	; (2c90 <vTaskMissedYield+0x14>)
    2c82:	2201      	movs	r2, #1
    2c84:	601a      	str	r2, [r3, #0]
    2c86:	bf00      	nop
    2c88:	46bd      	mov	sp, r7
    2c8a:	bc80      	pop	{r7}
    2c8c:	4770      	bx	lr
    2c8e:	bf00      	nop
    2c90:	1000013c 	.word	0x1000013c

00002c94 <xTaskGetSchedulerState>:
    2c94:	b480      	push	{r7}
    2c96:	b083      	sub	sp, #12
    2c98:	af00      	add	r7, sp, #0
    2c9a:	4b0b      	ldr	r3, [pc, #44]	; (2cc8 <xTaskGetSchedulerState+0x34>)
    2c9c:	681b      	ldr	r3, [r3, #0]
    2c9e:	2b00      	cmp	r3, #0
    2ca0:	d102      	bne.n	2ca8 <xTaskGetSchedulerState+0x14>
    2ca2:	2301      	movs	r3, #1
    2ca4:	607b      	str	r3, [r7, #4]
    2ca6:	e008      	b.n	2cba <xTaskGetSchedulerState+0x26>
    2ca8:	4b08      	ldr	r3, [pc, #32]	; (2ccc <xTaskGetSchedulerState+0x38>)
    2caa:	681b      	ldr	r3, [r3, #0]
    2cac:	2b00      	cmp	r3, #0
    2cae:	d102      	bne.n	2cb6 <xTaskGetSchedulerState+0x22>
    2cb0:	2302      	movs	r3, #2
    2cb2:	607b      	str	r3, [r7, #4]
    2cb4:	e001      	b.n	2cba <xTaskGetSchedulerState+0x26>
    2cb6:	2300      	movs	r3, #0
    2cb8:	607b      	str	r3, [r7, #4]
    2cba:	687b      	ldr	r3, [r7, #4]
    2cbc:	4618      	mov	r0, r3
    2cbe:	370c      	adds	r7, #12
    2cc0:	46bd      	mov	sp, r7
    2cc2:	bc80      	pop	{r7}
    2cc4:	4770      	bx	lr
    2cc6:	bf00      	nop
    2cc8:	10000134 	.word	0x10000134
    2ccc:	1000014c 	.word	0x1000014c

00002cd0 <vTaskPriorityInherit>:
    2cd0:	b580      	push	{r7, lr}
    2cd2:	b084      	sub	sp, #16
    2cd4:	af00      	add	r7, sp, #0
    2cd6:	6078      	str	r0, [r7, #4]
    2cd8:	687b      	ldr	r3, [r7, #4]
    2cda:	60fb      	str	r3, [r7, #12]
    2cdc:	687b      	ldr	r3, [r7, #4]
    2cde:	2b00      	cmp	r3, #0
    2ce0:	d04a      	beq.n	2d78 <vTaskPriorityInherit+0xa8>
    2ce2:	68fb      	ldr	r3, [r7, #12]
    2ce4:	6d1a      	ldr	r2, [r3, #80]	; 0x50
    2ce6:	4b26      	ldr	r3, [pc, #152]	; (2d80 <vTaskPriorityInherit+0xb0>)
    2ce8:	681b      	ldr	r3, [r3, #0]
    2cea:	6d1b      	ldr	r3, [r3, #80]	; 0x50
    2cec:	429a      	cmp	r2, r3
    2cee:	d243      	bcs.n	2d78 <vTaskPriorityInherit+0xa8>
    2cf0:	68fb      	ldr	r3, [r7, #12]
    2cf2:	6bdb      	ldr	r3, [r3, #60]	; 0x3c
    2cf4:	2b00      	cmp	r3, #0
    2cf6:	db06      	blt.n	2d06 <vTaskPriorityInherit+0x36>
    2cf8:	4b21      	ldr	r3, [pc, #132]	; (2d80 <vTaskPriorityInherit+0xb0>)
    2cfa:	681b      	ldr	r3, [r3, #0]
    2cfc:	6d1b      	ldr	r3, [r3, #80]	; 0x50
    2cfe:	f1c3 0205 	rsb	r2, r3, #5
    2d02:	68fb      	ldr	r3, [r7, #12]
    2d04:	63da      	str	r2, [r3, #60]	; 0x3c
    2d06:	68fb      	ldr	r3, [r7, #12]
    2d08:	6b99      	ldr	r1, [r3, #56]	; 0x38
    2d0a:	68fb      	ldr	r3, [r7, #12]
    2d0c:	6d1a      	ldr	r2, [r3, #80]	; 0x50
    2d0e:	4613      	mov	r3, r2
    2d10:	009b      	lsls	r3, r3, #2
    2d12:	4413      	add	r3, r2
    2d14:	009b      	lsls	r3, r3, #2
    2d16:	4a1b      	ldr	r2, [pc, #108]	; (2d84 <vTaskPriorityInherit+0xb4>)
    2d18:	4413      	add	r3, r2
    2d1a:	4299      	cmp	r1, r3
    2d1c:	d101      	bne.n	2d22 <vTaskPriorityInherit+0x52>
    2d1e:	2301      	movs	r3, #1
    2d20:	e000      	b.n	2d24 <vTaskPriorityInherit+0x54>
    2d22:	2300      	movs	r3, #0
    2d24:	2b00      	cmp	r3, #0
    2d26:	d022      	beq.n	2d6e <vTaskPriorityInherit+0x9e>
    2d28:	68fb      	ldr	r3, [r7, #12]
    2d2a:	3328      	adds	r3, #40	; 0x28
    2d2c:	4618      	mov	r0, r3
    2d2e:	f005 fae5 	bl	82fc <uxListRemove>
    2d32:	4b13      	ldr	r3, [pc, #76]	; (2d80 <vTaskPriorityInherit+0xb0>)
    2d34:	681b      	ldr	r3, [r3, #0]
    2d36:	6d1a      	ldr	r2, [r3, #80]	; 0x50
    2d38:	68fb      	ldr	r3, [r7, #12]
    2d3a:	651a      	str	r2, [r3, #80]	; 0x50
    2d3c:	68fb      	ldr	r3, [r7, #12]
    2d3e:	6d1a      	ldr	r2, [r3, #80]	; 0x50
    2d40:	4b11      	ldr	r3, [pc, #68]	; (2d88 <vTaskPriorityInherit+0xb8>)
    2d42:	681b      	ldr	r3, [r3, #0]
    2d44:	429a      	cmp	r2, r3
    2d46:	d903      	bls.n	2d50 <vTaskPriorityInherit+0x80>
    2d48:	68fb      	ldr	r3, [r7, #12]
    2d4a:	6d1b      	ldr	r3, [r3, #80]	; 0x50
    2d4c:	4a0e      	ldr	r2, [pc, #56]	; (2d88 <vTaskPriorityInherit+0xb8>)
    2d4e:	6013      	str	r3, [r2, #0]
    2d50:	68fb      	ldr	r3, [r7, #12]
    2d52:	6d1a      	ldr	r2, [r3, #80]	; 0x50
    2d54:	4613      	mov	r3, r2
    2d56:	009b      	lsls	r3, r3, #2
    2d58:	4413      	add	r3, r2
    2d5a:	009b      	lsls	r3, r3, #2
    2d5c:	4a09      	ldr	r2, [pc, #36]	; (2d84 <vTaskPriorityInherit+0xb4>)
    2d5e:	441a      	add	r2, r3
    2d60:	68fb      	ldr	r3, [r7, #12]
    2d62:	3328      	adds	r3, #40	; 0x28
    2d64:	4619      	mov	r1, r3
    2d66:	4610      	mov	r0, r2
    2d68:	f005 fa6c 	bl	8244 <vListInsertEnd>
    2d6c:	e004      	b.n	2d78 <vTaskPriorityInherit+0xa8>
    2d6e:	4b04      	ldr	r3, [pc, #16]	; (2d80 <vTaskPriorityInherit+0xb0>)
    2d70:	681b      	ldr	r3, [r3, #0]
    2d72:	6d1a      	ldr	r2, [r3, #80]	; 0x50
    2d74:	68fb      	ldr	r3, [r7, #12]
    2d76:	651a      	str	r2, [r3, #80]	; 0x50
    2d78:	bf00      	nop
    2d7a:	3710      	adds	r7, #16
    2d7c:	46bd      	mov	sp, r7
    2d7e:	bd80      	pop	{r7, pc}
    2d80:	10000050 	.word	0x10000050
    2d84:	10000054 	.word	0x10000054
    2d88:	10000130 	.word	0x10000130

00002d8c <xTaskPriorityDisinherit>:
    2d8c:	b580      	push	{r7, lr}
    2d8e:	b084      	sub	sp, #16
    2d90:	af00      	add	r7, sp, #0
    2d92:	6078      	str	r0, [r7, #4]
    2d94:	687b      	ldr	r3, [r7, #4]
    2d96:	60bb      	str	r3, [r7, #8]
    2d98:	2300      	movs	r3, #0
    2d9a:	60fb      	str	r3, [r7, #12]
    2d9c:	687b      	ldr	r3, [r7, #4]
    2d9e:	2b00      	cmp	r3, #0
    2da0:	d04a      	beq.n	2e38 <xTaskPriorityDisinherit+0xac>
    2da2:	4b28      	ldr	r3, [pc, #160]	; (2e44 <xTaskPriorityDisinherit+0xb8>)
    2da4:	681b      	ldr	r3, [r3, #0]
    2da6:	68ba      	ldr	r2, [r7, #8]
    2da8:	429a      	cmp	r2, r3
    2daa:	d004      	beq.n	2db6 <xTaskPriorityDisinherit+0x2a>
    2dac:	f04f 0028 	mov.w	r0, #40	; 0x28
    2db0:	f380 8811 	msr	BASEPRI, r0
    2db4:	e7fe      	b.n	2db4 <xTaskPriorityDisinherit+0x28>
    2db6:	68bb      	ldr	r3, [r7, #8]
    2db8:	6f1b      	ldr	r3, [r3, #112]	; 0x70
    2dba:	2b00      	cmp	r3, #0
    2dbc:	d104      	bne.n	2dc8 <xTaskPriorityDisinherit+0x3c>
    2dbe:	f04f 0028 	mov.w	r0, #40	; 0x28
    2dc2:	f380 8811 	msr	BASEPRI, r0
    2dc6:	e7fe      	b.n	2dc6 <xTaskPriorityDisinherit+0x3a>
    2dc8:	68bb      	ldr	r3, [r7, #8]
    2dca:	6f1b      	ldr	r3, [r3, #112]	; 0x70
    2dcc:	1e5a      	subs	r2, r3, #1
    2dce:	68bb      	ldr	r3, [r7, #8]
    2dd0:	671a      	str	r2, [r3, #112]	; 0x70
    2dd2:	68bb      	ldr	r3, [r7, #8]
    2dd4:	6d1a      	ldr	r2, [r3, #80]	; 0x50
    2dd6:	68bb      	ldr	r3, [r7, #8]
    2dd8:	6edb      	ldr	r3, [r3, #108]	; 0x6c
    2dda:	429a      	cmp	r2, r3
    2ddc:	d02c      	beq.n	2e38 <xTaskPriorityDisinherit+0xac>
    2dde:	68bb      	ldr	r3, [r7, #8]
    2de0:	6f1b      	ldr	r3, [r3, #112]	; 0x70
    2de2:	2b00      	cmp	r3, #0
    2de4:	d128      	bne.n	2e38 <xTaskPriorityDisinherit+0xac>
    2de6:	68bb      	ldr	r3, [r7, #8]
    2de8:	3328      	adds	r3, #40	; 0x28
    2dea:	4618      	mov	r0, r3
    2dec:	f005 fa86 	bl	82fc <uxListRemove>
    2df0:	68bb      	ldr	r3, [r7, #8]
    2df2:	6eda      	ldr	r2, [r3, #108]	; 0x6c
    2df4:	68bb      	ldr	r3, [r7, #8]
    2df6:	651a      	str	r2, [r3, #80]	; 0x50
    2df8:	68bb      	ldr	r3, [r7, #8]
    2dfa:	6d1b      	ldr	r3, [r3, #80]	; 0x50
    2dfc:	f1c3 0205 	rsb	r2, r3, #5
    2e00:	68bb      	ldr	r3, [r7, #8]
    2e02:	63da      	str	r2, [r3, #60]	; 0x3c
    2e04:	68bb      	ldr	r3, [r7, #8]
    2e06:	6d1a      	ldr	r2, [r3, #80]	; 0x50
    2e08:	4b0f      	ldr	r3, [pc, #60]	; (2e48 <xTaskPriorityDisinherit+0xbc>)
    2e0a:	681b      	ldr	r3, [r3, #0]
    2e0c:	429a      	cmp	r2, r3
    2e0e:	d903      	bls.n	2e18 <xTaskPriorityDisinherit+0x8c>
    2e10:	68bb      	ldr	r3, [r7, #8]
    2e12:	6d1b      	ldr	r3, [r3, #80]	; 0x50
    2e14:	4a0c      	ldr	r2, [pc, #48]	; (2e48 <xTaskPriorityDisinherit+0xbc>)
    2e16:	6013      	str	r3, [r2, #0]
    2e18:	68bb      	ldr	r3, [r7, #8]
    2e1a:	6d1a      	ldr	r2, [r3, #80]	; 0x50
    2e1c:	4613      	mov	r3, r2
    2e1e:	009b      	lsls	r3, r3, #2
    2e20:	4413      	add	r3, r2
    2e22:	009b      	lsls	r3, r3, #2
    2e24:	4a09      	ldr	r2, [pc, #36]	; (2e4c <xTaskPriorityDisinherit+0xc0>)
    2e26:	441a      	add	r2, r3
    2e28:	68bb      	ldr	r3, [r7, #8]
    2e2a:	3328      	adds	r3, #40	; 0x28
    2e2c:	4619      	mov	r1, r3
    2e2e:	4610      	mov	r0, r2
    2e30:	f005 fa08 	bl	8244 <vListInsertEnd>
    2e34:	2301      	movs	r3, #1
    2e36:	60fb      	str	r3, [r7, #12]
    2e38:	68fb      	ldr	r3, [r7, #12]
    2e3a:	4618      	mov	r0, r3
    2e3c:	3710      	adds	r7, #16
    2e3e:	46bd      	mov	sp, r7
    2e40:	bd80      	pop	{r7, pc}
    2e42:	bf00      	nop
    2e44:	10000050 	.word	0x10000050
    2e48:	10000130 	.word	0x10000130
    2e4c:	10000054 	.word	0x10000054

00002e50 <xTaskGenericCreate>:
    2e50:	b580      	push	{r7, lr}
    2e52:	b08a      	sub	sp, #40	; 0x28
    2e54:	af02      	add	r7, sp, #8
    2e56:	60f8      	str	r0, [r7, #12]
    2e58:	60b9      	str	r1, [r7, #8]
    2e5a:	603b      	str	r3, [r7, #0]
    2e5c:	4613      	mov	r3, r2
    2e5e:	80fb      	strh	r3, [r7, #6]
    2e60:	68fb      	ldr	r3, [r7, #12]
    2e62:	2b00      	cmp	r3, #0
    2e64:	d104      	bne.n	2e70 <xTaskGenericCreate+0x20>
    2e66:	f04f 0028 	mov.w	r0, #40	; 0x28
    2e6a:	f380 8811 	msr	BASEPRI, r0
    2e6e:	e7fe      	b.n	2e6e <xTaskGenericCreate+0x1e>
    2e70:	6abb      	ldr	r3, [r7, #40]	; 0x28
    2e72:	f023 4300 	bic.w	r3, r3, #2147483648	; 0x80000000
    2e76:	2b04      	cmp	r3, #4
    2e78:	d904      	bls.n	2e84 <xTaskGenericCreate+0x34>
    2e7a:	f04f 0028 	mov.w	r0, #40	; 0x28
    2e7e:	f380 8811 	msr	BASEPRI, r0
    2e82:	e7fe      	b.n	2e82 <xTaskGenericCreate+0x32>
    2e84:	88fb      	ldrh	r3, [r7, #6]
    2e86:	6b39      	ldr	r1, [r7, #48]	; 0x30
    2e88:	4618      	mov	r0, r3
    2e8a:	f000 fa4f 	bl	332c <prvAllocateTCBAndStack>
    2e8e:	6178      	str	r0, [r7, #20]
    2e90:	697b      	ldr	r3, [r7, #20]
    2e92:	2b00      	cmp	r3, #0
    2e94:	f000 808c 	beq.w	2fb0 <xTaskGenericCreate+0x160>
    2e98:	6abb      	ldr	r3, [r7, #40]	; 0x28
    2e9a:	2b00      	cmp	r3, #0
    2e9c:	da02      	bge.n	2ea4 <xTaskGenericCreate+0x54>
    2e9e:	2301      	movs	r3, #1
    2ea0:	61bb      	str	r3, [r7, #24]
    2ea2:	e001      	b.n	2ea8 <xTaskGenericCreate+0x58>
    2ea4:	2300      	movs	r3, #0
    2ea6:	61bb      	str	r3, [r7, #24]
    2ea8:	6abb      	ldr	r3, [r7, #40]	; 0x28
    2eaa:	f023 4300 	bic.w	r3, r3, #2147483648	; 0x80000000
    2eae:	62bb      	str	r3, [r7, #40]	; 0x28
    2eb0:	6b3b      	ldr	r3, [r7, #48]	; 0x30
    2eb2:	2b00      	cmp	r3, #0
    2eb4:	d003      	beq.n	2ebe <xTaskGenericCreate+0x6e>
    2eb6:	697b      	ldr	r3, [r7, #20]
    2eb8:	2201      	movs	r2, #1
    2eba:	625a      	str	r2, [r3, #36]	; 0x24
    2ebc:	e002      	b.n	2ec4 <xTaskGenericCreate+0x74>
    2ebe:	697b      	ldr	r3, [r7, #20]
    2ec0:	2200      	movs	r2, #0
    2ec2:	625a      	str	r2, [r3, #36]	; 0x24
    2ec4:	697b      	ldr	r3, [r7, #20]
    2ec6:	6d5a      	ldr	r2, [r3, #84]	; 0x54
    2ec8:	88fb      	ldrh	r3, [r7, #6]
    2eca:	f103 4380 	add.w	r3, r3, #1073741824	; 0x40000000
    2ece:	3b01      	subs	r3, #1
    2ed0:	009b      	lsls	r3, r3, #2
    2ed2:	4413      	add	r3, r2
    2ed4:	613b      	str	r3, [r7, #16]
    2ed6:	693b      	ldr	r3, [r7, #16]
    2ed8:	f023 0307 	bic.w	r3, r3, #7
    2edc:	613b      	str	r3, [r7, #16]
    2ede:	693b      	ldr	r3, [r7, #16]
    2ee0:	f003 0307 	and.w	r3, r3, #7
    2ee4:	2b00      	cmp	r3, #0
    2ee6:	d004      	beq.n	2ef2 <xTaskGenericCreate+0xa2>
    2ee8:	f04f 0028 	mov.w	r0, #40	; 0x28
    2eec:	f380 8811 	msr	BASEPRI, r0
    2ef0:	e7fe      	b.n	2ef0 <xTaskGenericCreate+0xa0>
    2ef2:	88fb      	ldrh	r3, [r7, #6]
    2ef4:	9300      	str	r3, [sp, #0]
    2ef6:	6b7b      	ldr	r3, [r7, #52]	; 0x34
    2ef8:	6aba      	ldr	r2, [r7, #40]	; 0x28
    2efa:	68b9      	ldr	r1, [r7, #8]
    2efc:	6978      	ldr	r0, [r7, #20]
    2efe:	f000 f8bb 	bl	3078 <prvInitialiseTCBVariables>
    2f02:	69bb      	ldr	r3, [r7, #24]
    2f04:	683a      	ldr	r2, [r7, #0]
    2f06:	68f9      	ldr	r1, [r7, #12]
    2f08:	6938      	ldr	r0, [r7, #16]
    2f0a:	f7fd f9bb 	bl	284 <pxPortInitialiseStack>
    2f0e:	4602      	mov	r2, r0
    2f10:	697b      	ldr	r3, [r7, #20]
    2f12:	601a      	str	r2, [r3, #0]
    2f14:	6afb      	ldr	r3, [r7, #44]	; 0x2c
    2f16:	2b00      	cmp	r3, #0
    2f18:	d002      	beq.n	2f20 <xTaskGenericCreate+0xd0>
    2f1a:	6afb      	ldr	r3, [r7, #44]	; 0x2c
    2f1c:	697a      	ldr	r2, [r7, #20]
    2f1e:	601a      	str	r2, [r3, #0]
    2f20:	f004 ff4a 	bl	7db8 <vPortEnterCritical>
    2f24:	4b2f      	ldr	r3, [pc, #188]	; (2fe4 <xTaskGenericCreate+0x194>)
    2f26:	681b      	ldr	r3, [r3, #0]
    2f28:	3301      	adds	r3, #1
    2f2a:	4a2e      	ldr	r2, [pc, #184]	; (2fe4 <xTaskGenericCreate+0x194>)
    2f2c:	6013      	str	r3, [r2, #0]
    2f2e:	4b2e      	ldr	r3, [pc, #184]	; (2fe8 <xTaskGenericCreate+0x198>)
    2f30:	681b      	ldr	r3, [r3, #0]
    2f32:	2b00      	cmp	r3, #0
    2f34:	d109      	bne.n	2f4a <xTaskGenericCreate+0xfa>
    2f36:	4a2c      	ldr	r2, [pc, #176]	; (2fe8 <xTaskGenericCreate+0x198>)
    2f38:	697b      	ldr	r3, [r7, #20]
    2f3a:	6013      	str	r3, [r2, #0]
    2f3c:	4b29      	ldr	r3, [pc, #164]	; (2fe4 <xTaskGenericCreate+0x194>)
    2f3e:	681b      	ldr	r3, [r3, #0]
    2f40:	2b01      	cmp	r3, #1
    2f42:	d10f      	bne.n	2f64 <xTaskGenericCreate+0x114>
    2f44:	f000 f92c 	bl	31a0 <prvInitialiseTaskLists>
    2f48:	e00c      	b.n	2f64 <xTaskGenericCreate+0x114>
    2f4a:	4b28      	ldr	r3, [pc, #160]	; (2fec <xTaskGenericCreate+0x19c>)
    2f4c:	681b      	ldr	r3, [r3, #0]
    2f4e:	2b00      	cmp	r3, #0
    2f50:	d108      	bne.n	2f64 <xTaskGenericCreate+0x114>
    2f52:	4b25      	ldr	r3, [pc, #148]	; (2fe8 <xTaskGenericCreate+0x198>)
    2f54:	681b      	ldr	r3, [r3, #0]
    2f56:	6d1a      	ldr	r2, [r3, #80]	; 0x50
    2f58:	6abb      	ldr	r3, [r7, #40]	; 0x28
    2f5a:	429a      	cmp	r2, r3
    2f5c:	d802      	bhi.n	2f64 <xTaskGenericCreate+0x114>
    2f5e:	4a22      	ldr	r2, [pc, #136]	; (2fe8 <xTaskGenericCreate+0x198>)
    2f60:	697b      	ldr	r3, [r7, #20]
    2f62:	6013      	str	r3, [r2, #0]
    2f64:	4b22      	ldr	r3, [pc, #136]	; (2ff0 <xTaskGenericCreate+0x1a0>)
    2f66:	681b      	ldr	r3, [r3, #0]
    2f68:	3301      	adds	r3, #1
    2f6a:	4a21      	ldr	r2, [pc, #132]	; (2ff0 <xTaskGenericCreate+0x1a0>)
    2f6c:	6013      	str	r3, [r2, #0]
    2f6e:	4b20      	ldr	r3, [pc, #128]	; (2ff0 <xTaskGenericCreate+0x1a0>)
    2f70:	681a      	ldr	r2, [r3, #0]
    2f72:	697b      	ldr	r3, [r7, #20]
    2f74:	665a      	str	r2, [r3, #100]	; 0x64
    2f76:	697b      	ldr	r3, [r7, #20]
    2f78:	6d1a      	ldr	r2, [r3, #80]	; 0x50
    2f7a:	4b1e      	ldr	r3, [pc, #120]	; (2ff4 <xTaskGenericCreate+0x1a4>)
    2f7c:	681b      	ldr	r3, [r3, #0]
    2f7e:	429a      	cmp	r2, r3
    2f80:	d903      	bls.n	2f8a <xTaskGenericCreate+0x13a>
    2f82:	697b      	ldr	r3, [r7, #20]
    2f84:	6d1b      	ldr	r3, [r3, #80]	; 0x50
    2f86:	4a1b      	ldr	r2, [pc, #108]	; (2ff4 <xTaskGenericCreate+0x1a4>)
    2f88:	6013      	str	r3, [r2, #0]
    2f8a:	697b      	ldr	r3, [r7, #20]
    2f8c:	6d1a      	ldr	r2, [r3, #80]	; 0x50
    2f8e:	4613      	mov	r3, r2
    2f90:	009b      	lsls	r3, r3, #2
    2f92:	4413      	add	r3, r2
    2f94:	009b      	lsls	r3, r3, #2
    2f96:	4a18      	ldr	r2, [pc, #96]	; (2ff8 <xTaskGenericCreate+0x1a8>)
    2f98:	441a      	add	r2, r3
    2f9a:	697b      	ldr	r3, [r7, #20]
    2f9c:	3328      	adds	r3, #40	; 0x28
    2f9e:	4619      	mov	r1, r3
    2fa0:	4610      	mov	r0, r2
    2fa2:	f005 f94f 	bl	8244 <vListInsertEnd>
    2fa6:	2301      	movs	r3, #1
    2fa8:	61fb      	str	r3, [r7, #28]
    2faa:	f004 ff23 	bl	7df4 <vPortExitCritical>
    2fae:	e002      	b.n	2fb6 <xTaskGenericCreate+0x166>
    2fb0:	f04f 33ff 	mov.w	r3, #4294967295
    2fb4:	61fb      	str	r3, [r7, #28]
    2fb6:	69fb      	ldr	r3, [r7, #28]
    2fb8:	2b01      	cmp	r3, #1
    2fba:	d10d      	bne.n	2fd8 <xTaskGenericCreate+0x188>
    2fbc:	4b0b      	ldr	r3, [pc, #44]	; (2fec <xTaskGenericCreate+0x19c>)
    2fbe:	681b      	ldr	r3, [r3, #0]
    2fc0:	2b00      	cmp	r3, #0
    2fc2:	d009      	beq.n	2fd8 <xTaskGenericCreate+0x188>
    2fc4:	4b08      	ldr	r3, [pc, #32]	; (2fe8 <xTaskGenericCreate+0x198>)
    2fc6:	681b      	ldr	r3, [r3, #0]
    2fc8:	6d1a      	ldr	r2, [r3, #80]	; 0x50
    2fca:	6abb      	ldr	r3, [r7, #40]	; 0x28
    2fcc:	429a      	cmp	r2, r3
    2fce:	d203      	bcs.n	2fd8 <xTaskGenericCreate+0x188>
    2fd0:	4b0a      	ldr	r3, [pc, #40]	; (2ffc <xTaskGenericCreate+0x1ac>)
    2fd2:	f04f 5280 	mov.w	r2, #268435456	; 0x10000000
    2fd6:	601a      	str	r2, [r3, #0]
    2fd8:	69fb      	ldr	r3, [r7, #28]
    2fda:	4618      	mov	r0, r3
    2fdc:	3720      	adds	r7, #32
    2fde:	46bd      	mov	sp, r7
    2fe0:	bd80      	pop	{r7, pc}
    2fe2:	bf00      	nop
    2fe4:	10000128 	.word	0x10000128
    2fe8:	10000050 	.word	0x10000050
    2fec:	10000134 	.word	0x10000134
    2ff0:	10000144 	.word	0x10000144
    2ff4:	10000130 	.word	0x10000130
    2ff8:	10000054 	.word	0x10000054
    2ffc:	e000ed04 	.word	0xe000ed04

00003000 <uxTaskGetTaskNumber>:
    3000:	b480      	push	{r7}
    3002:	b085      	sub	sp, #20
    3004:	af00      	add	r7, sp, #0
    3006:	6078      	str	r0, [r7, #4]
    3008:	687b      	ldr	r3, [r7, #4]
    300a:	2b00      	cmp	r3, #0
    300c:	d005      	beq.n	301a <uxTaskGetTaskNumber+0x1a>
    300e:	687b      	ldr	r3, [r7, #4]
    3010:	60bb      	str	r3, [r7, #8]
    3012:	68bb      	ldr	r3, [r7, #8]
    3014:	6e9b      	ldr	r3, [r3, #104]	; 0x68
    3016:	60fb      	str	r3, [r7, #12]
    3018:	e001      	b.n	301e <uxTaskGetTaskNumber+0x1e>
    301a:	2300      	movs	r3, #0
    301c:	60fb      	str	r3, [r7, #12]
    301e:	68fb      	ldr	r3, [r7, #12]
    3020:	4618      	mov	r0, r3
    3022:	3714      	adds	r7, #20
    3024:	46bd      	mov	sp, r7
    3026:	bc80      	pop	{r7}
    3028:	4770      	bx	lr
    302a:	bf00      	nop

0000302c <vTaskSetTaskNumber>:
    302c:	b480      	push	{r7}
    302e:	b085      	sub	sp, #20
    3030:	af00      	add	r7, sp, #0
    3032:	6078      	str	r0, [r7, #4]
    3034:	6039      	str	r1, [r7, #0]
    3036:	687b      	ldr	r3, [r7, #4]
    3038:	2b00      	cmp	r3, #0
    303a:	d004      	beq.n	3046 <vTaskSetTaskNumber+0x1a>
    303c:	687b      	ldr	r3, [r7, #4]
    303e:	60fb      	str	r3, [r7, #12]
    3040:	68fb      	ldr	r3, [r7, #12]
    3042:	683a      	ldr	r2, [r7, #0]
    3044:	669a      	str	r2, [r3, #104]	; 0x68
    3046:	bf00      	nop
    3048:	3714      	adds	r7, #20
    304a:	46bd      	mov	sp, r7
    304c:	bc80      	pop	{r7}
    304e:	4770      	bx	lr

00003050 <pvTaskIncrementMutexHeldCount>:
    3050:	b480      	push	{r7}
    3052:	af00      	add	r7, sp, #0
    3054:	4b07      	ldr	r3, [pc, #28]	; (3074 <pvTaskIncrementMutexHeldCount+0x24>)
    3056:	681b      	ldr	r3, [r3, #0]
    3058:	2b00      	cmp	r3, #0
    305a:	d004      	beq.n	3066 <pvTaskIncrementMutexHeldCount+0x16>
    305c:	4b05      	ldr	r3, [pc, #20]	; (3074 <pvTaskIncrementMutexHeldCount+0x24>)
    305e:	681b      	ldr	r3, [r3, #0]
    3060:	6f1a      	ldr	r2, [r3, #112]	; 0x70
    3062:	3201      	adds	r2, #1
    3064:	671a      	str	r2, [r3, #112]	; 0x70
    3066:	4b03      	ldr	r3, [pc, #12]	; (3074 <pvTaskIncrementMutexHeldCount+0x24>)
    3068:	681b      	ldr	r3, [r3, #0]
    306a:	4618      	mov	r0, r3
    306c:	46bd      	mov	sp, r7
    306e:	bc80      	pop	{r7}
    3070:	4770      	bx	lr
    3072:	bf00      	nop
    3074:	10000050 	.word	0x10000050

00003078 <prvInitialiseTCBVariables>:
    3078:	b580      	push	{r7, lr}
    307a:	b086      	sub	sp, #24
    307c:	af00      	add	r7, sp, #0
    307e:	60f8      	str	r0, [r7, #12]
    3080:	60b9      	str	r1, [r7, #8]
    3082:	607a      	str	r2, [r7, #4]
    3084:	603b      	str	r3, [r7, #0]
    3086:	2300      	movs	r3, #0
    3088:	617b      	str	r3, [r7, #20]
    308a:	e012      	b.n	30b2 <prvInitialiseTCBVariables+0x3a>
    308c:	68ba      	ldr	r2, [r7, #8]
    308e:	697b      	ldr	r3, [r7, #20]
    3090:	4413      	add	r3, r2
    3092:	7819      	ldrb	r1, [r3, #0]
    3094:	68fa      	ldr	r2, [r7, #12]
    3096:	697b      	ldr	r3, [r7, #20]
    3098:	4413      	add	r3, r2
    309a:	3358      	adds	r3, #88	; 0x58
    309c:	460a      	mov	r2, r1
    309e:	701a      	strb	r2, [r3, #0]
    30a0:	68ba      	ldr	r2, [r7, #8]
    30a2:	697b      	ldr	r3, [r7, #20]
    30a4:	4413      	add	r3, r2
    30a6:	781b      	ldrb	r3, [r3, #0]
    30a8:	2b00      	cmp	r3, #0
    30aa:	d006      	beq.n	30ba <prvInitialiseTCBVariables+0x42>
    30ac:	697b      	ldr	r3, [r7, #20]
    30ae:	3301      	adds	r3, #1
    30b0:	617b      	str	r3, [r7, #20]
    30b2:	697b      	ldr	r3, [r7, #20]
    30b4:	2b0b      	cmp	r3, #11
    30b6:	d9e9      	bls.n	308c <prvInitialiseTCBVariables+0x14>
    30b8:	e000      	b.n	30bc <prvInitialiseTCBVariables+0x44>
    30ba:	bf00      	nop
    30bc:	68fb      	ldr	r3, [r7, #12]
    30be:	2200      	movs	r2, #0
    30c0:	f883 2063 	strb.w	r2, [r3, #99]	; 0x63
    30c4:	687b      	ldr	r3, [r7, #4]
    30c6:	2b04      	cmp	r3, #4
    30c8:	d901      	bls.n	30ce <prvInitialiseTCBVariables+0x56>
    30ca:	2304      	movs	r3, #4
    30cc:	607b      	str	r3, [r7, #4]
    30ce:	68fb      	ldr	r3, [r7, #12]
    30d0:	687a      	ldr	r2, [r7, #4]
    30d2:	651a      	str	r2, [r3, #80]	; 0x50
    30d4:	68fb      	ldr	r3, [r7, #12]
    30d6:	687a      	ldr	r2, [r7, #4]
    30d8:	66da      	str	r2, [r3, #108]	; 0x6c
    30da:	68fb      	ldr	r3, [r7, #12]
    30dc:	2200      	movs	r2, #0
    30de:	671a      	str	r2, [r3, #112]	; 0x70
    30e0:	68fb      	ldr	r3, [r7, #12]
    30e2:	3328      	adds	r3, #40	; 0x28
    30e4:	4618      	mov	r0, r3
    30e6:	f005 f8a1 	bl	822c <vListInitialiseItem>
    30ea:	68fb      	ldr	r3, [r7, #12]
    30ec:	333c      	adds	r3, #60	; 0x3c
    30ee:	4618      	mov	r0, r3
    30f0:	f005 f89c 	bl	822c <vListInitialiseItem>
    30f4:	68fb      	ldr	r3, [r7, #12]
    30f6:	68fa      	ldr	r2, [r7, #12]
    30f8:	635a      	str	r2, [r3, #52]	; 0x34
    30fa:	687b      	ldr	r3, [r7, #4]
    30fc:	f1c3 0205 	rsb	r2, r3, #5
    3100:	68fb      	ldr	r3, [r7, #12]
    3102:	63da      	str	r2, [r3, #60]	; 0x3c
    3104:	68fb      	ldr	r3, [r7, #12]
    3106:	68fa      	ldr	r2, [r7, #12]
    3108:	649a      	str	r2, [r3, #72]	; 0x48
    310a:	68fb      	ldr	r3, [r7, #12]
    310c:	2200      	movs	r2, #0
    310e:	675a      	str	r2, [r3, #116]	; 0x74
    3110:	68fb      	ldr	r3, [r7, #12]
    3112:	1d18      	adds	r0, r3, #4
    3114:	68fb      	ldr	r3, [r7, #12]
    3116:	6d5a      	ldr	r2, [r3, #84]	; 0x54
    3118:	8c3b      	ldrh	r3, [r7, #32]
    311a:	6839      	ldr	r1, [r7, #0]
    311c:	f7fd f916 	bl	34c <vPortStoreTaskMPUSettings>
    3120:	68fb      	ldr	r3, [r7, #12]
    3122:	2200      	movs	r2, #0
    3124:	679a      	str	r2, [r3, #120]	; 0x78
    3126:	68fb      	ldr	r3, [r7, #12]
    3128:	2200      	movs	r2, #0
    312a:	f883 207c 	strb.w	r2, [r3, #124]	; 0x7c
    312e:	bf00      	nop
    3130:	3718      	adds	r7, #24
    3132:	46bd      	mov	sp, r7
    3134:	bd80      	pop	{r7, pc}
    3136:	bf00      	nop

00003138 <prvTaskIsTaskSuspended>:
    3138:	b480      	push	{r7}
    313a:	b085      	sub	sp, #20
    313c:	af00      	add	r7, sp, #0
    313e:	6078      	str	r0, [r7, #4]
    3140:	2300      	movs	r3, #0
    3142:	60fb      	str	r3, [r7, #12]
    3144:	687b      	ldr	r3, [r7, #4]
    3146:	60bb      	str	r3, [r7, #8]
    3148:	687b      	ldr	r3, [r7, #4]
    314a:	2b00      	cmp	r3, #0
    314c:	d104      	bne.n	3158 <prvTaskIsTaskSuspended+0x20>
    314e:	f04f 0028 	mov.w	r0, #40	; 0x28
    3152:	f380 8811 	msr	BASEPRI, r0
    3156:	e7fe      	b.n	3156 <prvTaskIsTaskSuspended+0x1e>
    3158:	68bb      	ldr	r3, [r7, #8]
    315a:	6b9b      	ldr	r3, [r3, #56]	; 0x38
    315c:	4a0e      	ldr	r2, [pc, #56]	; (3198 <prvTaskIsTaskSuspended+0x60>)
    315e:	4293      	cmp	r3, r2
    3160:	d101      	bne.n	3166 <prvTaskIsTaskSuspended+0x2e>
    3162:	2301      	movs	r3, #1
    3164:	e000      	b.n	3168 <prvTaskIsTaskSuspended+0x30>
    3166:	2300      	movs	r3, #0
    3168:	2b00      	cmp	r3, #0
    316a:	d00f      	beq.n	318c <prvTaskIsTaskSuspended+0x54>
    316c:	68bb      	ldr	r3, [r7, #8]
    316e:	6cdb      	ldr	r3, [r3, #76]	; 0x4c
    3170:	4a0a      	ldr	r2, [pc, #40]	; (319c <prvTaskIsTaskSuspended+0x64>)
    3172:	4293      	cmp	r3, r2
    3174:	d00a      	beq.n	318c <prvTaskIsTaskSuspended+0x54>
    3176:	68bb      	ldr	r3, [r7, #8]
    3178:	6cdb      	ldr	r3, [r3, #76]	; 0x4c
    317a:	2b00      	cmp	r3, #0
    317c:	d101      	bne.n	3182 <prvTaskIsTaskSuspended+0x4a>
    317e:	2301      	movs	r3, #1
    3180:	e000      	b.n	3184 <prvTaskIsTaskSuspended+0x4c>
    3182:	2300      	movs	r3, #0
    3184:	2b00      	cmp	r3, #0
    3186:	d001      	beq.n	318c <prvTaskIsTaskSuspended+0x54>
    3188:	2301      	movs	r3, #1
    318a:	60fb      	str	r3, [r7, #12]
    318c:	68fb      	ldr	r3, [r7, #12]
    318e:	4618      	mov	r0, r3
    3190:	3714      	adds	r7, #20
    3192:	46bd      	mov	sp, r7
    3194:	bc80      	pop	{r7}
    3196:	4770      	bx	lr
    3198:	10000114 	.word	0x10000114
    319c:	100000e8 	.word	0x100000e8

000031a0 <prvInitialiseTaskLists>:
    31a0:	b580      	push	{r7, lr}
    31a2:	b082      	sub	sp, #8
    31a4:	af00      	add	r7, sp, #0
    31a6:	2300      	movs	r3, #0
    31a8:	607b      	str	r3, [r7, #4]
    31aa:	e00c      	b.n	31c6 <prvInitialiseTaskLists+0x26>
    31ac:	687a      	ldr	r2, [r7, #4]
    31ae:	4613      	mov	r3, r2
    31b0:	009b      	lsls	r3, r3, #2
    31b2:	4413      	add	r3, r2
    31b4:	009b      	lsls	r3, r3, #2
    31b6:	4a12      	ldr	r2, [pc, #72]	; (3200 <prvInitialiseTaskLists+0x60>)
    31b8:	4413      	add	r3, r2
    31ba:	4618      	mov	r0, r3
    31bc:	f005 f816 	bl	81ec <vListInitialise>
    31c0:	687b      	ldr	r3, [r7, #4]
    31c2:	3301      	adds	r3, #1
    31c4:	607b      	str	r3, [r7, #4]
    31c6:	687b      	ldr	r3, [r7, #4]
    31c8:	2b04      	cmp	r3, #4
    31ca:	d9ef      	bls.n	31ac <prvInitialiseTaskLists+0xc>
    31cc:	480d      	ldr	r0, [pc, #52]	; (3204 <prvInitialiseTaskLists+0x64>)
    31ce:	f005 f80d 	bl	81ec <vListInitialise>
    31d2:	480d      	ldr	r0, [pc, #52]	; (3208 <prvInitialiseTaskLists+0x68>)
    31d4:	f005 f80a 	bl	81ec <vListInitialise>
    31d8:	480c      	ldr	r0, [pc, #48]	; (320c <prvInitialiseTaskLists+0x6c>)
    31da:	f005 f807 	bl	81ec <vListInitialise>
    31de:	480c      	ldr	r0, [pc, #48]	; (3210 <prvInitialiseTaskLists+0x70>)
    31e0:	f005 f804 	bl	81ec <vListInitialise>
    31e4:	480b      	ldr	r0, [pc, #44]	; (3214 <prvInitialiseTaskLists+0x74>)
    31e6:	f005 f801 	bl	81ec <vListInitialise>
    31ea:	4b0b      	ldr	r3, [pc, #44]	; (3218 <prvInitialiseTaskLists+0x78>)
    31ec:	4a05      	ldr	r2, [pc, #20]	; (3204 <prvInitialiseTaskLists+0x64>)
    31ee:	601a      	str	r2, [r3, #0]
    31f0:	4b0a      	ldr	r3, [pc, #40]	; (321c <prvInitialiseTaskLists+0x7c>)
    31f2:	4a05      	ldr	r2, [pc, #20]	; (3208 <prvInitialiseTaskLists+0x68>)
    31f4:	601a      	str	r2, [r3, #0]
    31f6:	bf00      	nop
    31f8:	3708      	adds	r7, #8
    31fa:	46bd      	mov	sp, r7
    31fc:	bd80      	pop	{r7, pc}
    31fe:	bf00      	nop
    3200:	10000054 	.word	0x10000054
    3204:	100000b8 	.word	0x100000b8
    3208:	100000cc 	.word	0x100000cc
    320c:	100000e8 	.word	0x100000e8
    3210:	100000fc 	.word	0x100000fc
    3214:	10000114 	.word	0x10000114
    3218:	100000e0 	.word	0x100000e0
    321c:	100000e4 	.word	0x100000e4

00003220 <prvDeleteTCB>:
    3220:	b580      	push	{r7, lr}
    3222:	b082      	sub	sp, #8
    3224:	af00      	add	r7, sp, #0
    3226:	6078      	str	r0, [r7, #4]
    3228:	687b      	ldr	r3, [r7, #4]
    322a:	6a5b      	ldr	r3, [r3, #36]	; 0x24
    322c:	2b00      	cmp	r3, #0
    322e:	d104      	bne.n	323a <prvDeleteTCB+0x1a>
    3230:	687b      	ldr	r3, [r7, #4]
    3232:	6d5b      	ldr	r3, [r3, #84]	; 0x54
    3234:	4618      	mov	r0, r3
    3236:	f7fc ffdb 	bl	1f0 <vPortFree>
    323a:	6878      	ldr	r0, [r7, #4]
    323c:	f7fc ffd8 	bl	1f0 <vPortFree>
    3240:	bf00      	nop
    3242:	3708      	adds	r7, #8
    3244:	46bd      	mov	sp, r7
    3246:	bd80      	pop	{r7, pc}

00003248 <prvCheckTasksWaitingTermination>:
    3248:	b580      	push	{r7, lr}
    324a:	b082      	sub	sp, #8
    324c:	af00      	add	r7, sp, #0
    324e:	e028      	b.n	32a2 <prvCheckTasksWaitingTermination+0x5a>
    3250:	f7fe fcea 	bl	1c28 <vTaskSuspendAll>
    3254:	4b17      	ldr	r3, [pc, #92]	; (32b4 <prvCheckTasksWaitingTermination+0x6c>)
    3256:	681b      	ldr	r3, [r3, #0]
    3258:	2b00      	cmp	r3, #0
    325a:	bf0c      	ite	eq
    325c:	2301      	moveq	r3, #1
    325e:	2300      	movne	r3, #0
    3260:	b2db      	uxtb	r3, r3
    3262:	607b      	str	r3, [r7, #4]
    3264:	f7fe fcee 	bl	1c44 <xTaskResumeAll>
    3268:	687b      	ldr	r3, [r7, #4]
    326a:	2b00      	cmp	r3, #0
    326c:	d119      	bne.n	32a2 <prvCheckTasksWaitingTermination+0x5a>
    326e:	f004 fda3 	bl	7db8 <vPortEnterCritical>
    3272:	4b10      	ldr	r3, [pc, #64]	; (32b4 <prvCheckTasksWaitingTermination+0x6c>)
    3274:	68db      	ldr	r3, [r3, #12]
    3276:	68db      	ldr	r3, [r3, #12]
    3278:	603b      	str	r3, [r7, #0]
    327a:	683b      	ldr	r3, [r7, #0]
    327c:	3328      	adds	r3, #40	; 0x28
    327e:	4618      	mov	r0, r3
    3280:	f005 f83c 	bl	82fc <uxListRemove>
    3284:	4b0c      	ldr	r3, [pc, #48]	; (32b8 <prvCheckTasksWaitingTermination+0x70>)
    3286:	681b      	ldr	r3, [r3, #0]
    3288:	3b01      	subs	r3, #1
    328a:	4a0b      	ldr	r2, [pc, #44]	; (32b8 <prvCheckTasksWaitingTermination+0x70>)
    328c:	6013      	str	r3, [r2, #0]
    328e:	4b0b      	ldr	r3, [pc, #44]	; (32bc <prvCheckTasksWaitingTermination+0x74>)
    3290:	681b      	ldr	r3, [r3, #0]
    3292:	3b01      	subs	r3, #1
    3294:	4a09      	ldr	r2, [pc, #36]	; (32bc <prvCheckTasksWaitingTermination+0x74>)
    3296:	6013      	str	r3, [r2, #0]
    3298:	f004 fdac 	bl	7df4 <vPortExitCritical>
    329c:	6838      	ldr	r0, [r7, #0]
    329e:	f7ff ffbf 	bl	3220 <prvDeleteTCB>
    32a2:	4b06      	ldr	r3, [pc, #24]	; (32bc <prvCheckTasksWaitingTermination+0x74>)
    32a4:	681b      	ldr	r3, [r3, #0]
    32a6:	2b00      	cmp	r3, #0
    32a8:	d1d2      	bne.n	3250 <prvCheckTasksWaitingTermination+0x8>
    32aa:	bf00      	nop
    32ac:	3708      	adds	r7, #8
    32ae:	46bd      	mov	sp, r7
    32b0:	bd80      	pop	{r7, pc}
    32b2:	bf00      	nop
    32b4:	100000fc 	.word	0x100000fc
    32b8:	10000128 	.word	0x10000128
    32bc:	10000110 	.word	0x10000110

000032c0 <prvAddCurrentTaskToDelayedList>:
    32c0:	b580      	push	{r7, lr}
    32c2:	b082      	sub	sp, #8
    32c4:	af00      	add	r7, sp, #0
    32c6:	6078      	str	r0, [r7, #4]
    32c8:	4b13      	ldr	r3, [pc, #76]	; (3318 <prvAddCurrentTaskToDelayedList+0x58>)
    32ca:	681b      	ldr	r3, [r3, #0]
    32cc:	687a      	ldr	r2, [r7, #4]
    32ce:	629a      	str	r2, [r3, #40]	; 0x28
    32d0:	4b12      	ldr	r3, [pc, #72]	; (331c <prvAddCurrentTaskToDelayedList+0x5c>)
    32d2:	681b      	ldr	r3, [r3, #0]
    32d4:	687a      	ldr	r2, [r7, #4]
    32d6:	429a      	cmp	r2, r3
    32d8:	d209      	bcs.n	32ee <prvAddCurrentTaskToDelayedList+0x2e>
    32da:	4b11      	ldr	r3, [pc, #68]	; (3320 <prvAddCurrentTaskToDelayedList+0x60>)
    32dc:	681a      	ldr	r2, [r3, #0]
    32de:	4b0e      	ldr	r3, [pc, #56]	; (3318 <prvAddCurrentTaskToDelayedList+0x58>)
    32e0:	681b      	ldr	r3, [r3, #0]
    32e2:	3328      	adds	r3, #40	; 0x28
    32e4:	4619      	mov	r1, r3
    32e6:	4610      	mov	r0, r2
    32e8:	f004 ffd0 	bl	828c <vListInsert>
    32ec:	e010      	b.n	3310 <prvAddCurrentTaskToDelayedList+0x50>
    32ee:	4b0d      	ldr	r3, [pc, #52]	; (3324 <prvAddCurrentTaskToDelayedList+0x64>)
    32f0:	681a      	ldr	r2, [r3, #0]
    32f2:	4b09      	ldr	r3, [pc, #36]	; (3318 <prvAddCurrentTaskToDelayedList+0x58>)
    32f4:	681b      	ldr	r3, [r3, #0]
    32f6:	3328      	adds	r3, #40	; 0x28
    32f8:	4619      	mov	r1, r3
    32fa:	4610      	mov	r0, r2
    32fc:	f004 ffc6 	bl	828c <vListInsert>
    3300:	4b09      	ldr	r3, [pc, #36]	; (3328 <prvAddCurrentTaskToDelayedList+0x68>)
    3302:	681b      	ldr	r3, [r3, #0]
    3304:	687a      	ldr	r2, [r7, #4]
    3306:	429a      	cmp	r2, r3
    3308:	d202      	bcs.n	3310 <prvAddCurrentTaskToDelayedList+0x50>
    330a:	4a07      	ldr	r2, [pc, #28]	; (3328 <prvAddCurrentTaskToDelayedList+0x68>)
    330c:	687b      	ldr	r3, [r7, #4]
    330e:	6013      	str	r3, [r2, #0]
    3310:	bf00      	nop
    3312:	3708      	adds	r7, #8
    3314:	46bd      	mov	sp, r7
    3316:	bd80      	pop	{r7, pc}
    3318:	10000050 	.word	0x10000050
    331c:	1000012c 	.word	0x1000012c
    3320:	100000e4 	.word	0x100000e4
    3324:	100000e0 	.word	0x100000e0
    3328:	10000148 	.word	0x10000148

0000332c <prvAllocateTCBAndStack>:
    332c:	b580      	push	{r7, lr}
    332e:	b084      	sub	sp, #16
    3330:	af00      	add	r7, sp, #0
    3332:	4603      	mov	r3, r0
    3334:	6039      	str	r1, [r7, #0]
    3336:	80fb      	strh	r3, [r7, #6]
    3338:	683b      	ldr	r3, [r7, #0]
    333a:	2b00      	cmp	r3, #0
    333c:	d106      	bne.n	334c <prvAllocateTCBAndStack+0x20>
    333e:	88fb      	ldrh	r3, [r7, #6]
    3340:	009b      	lsls	r3, r3, #2
    3342:	4618      	mov	r0, r3
    3344:	f7fc fec2 	bl	cc <pvPortMalloc>
    3348:	4603      	mov	r3, r0
    334a:	e000      	b.n	334e <prvAllocateTCBAndStack+0x22>
    334c:	683b      	ldr	r3, [r7, #0]
    334e:	60bb      	str	r3, [r7, #8]
    3350:	68bb      	ldr	r3, [r7, #8]
    3352:	2b00      	cmp	r3, #0
    3354:	d00e      	beq.n	3374 <prvAllocateTCBAndStack+0x48>
    3356:	2080      	movs	r0, #128	; 0x80
    3358:	f7fc feb8 	bl	cc <pvPortMalloc>
    335c:	60f8      	str	r0, [r7, #12]
    335e:	68fb      	ldr	r3, [r7, #12]
    3360:	2b00      	cmp	r3, #0
    3362:	d003      	beq.n	336c <prvAllocateTCBAndStack+0x40>
    3364:	68fb      	ldr	r3, [r7, #12]
    3366:	68ba      	ldr	r2, [r7, #8]
    3368:	655a      	str	r2, [r3, #84]	; 0x54
    336a:	e005      	b.n	3378 <prvAllocateTCBAndStack+0x4c>
    336c:	68b8      	ldr	r0, [r7, #8]
    336e:	f7fc ff3f 	bl	1f0 <vPortFree>
    3372:	e001      	b.n	3378 <prvAllocateTCBAndStack+0x4c>
    3374:	2300      	movs	r3, #0
    3376:	60fb      	str	r3, [r7, #12]
    3378:	68fb      	ldr	r3, [r7, #12]
    337a:	2b00      	cmp	r3, #0
    337c:	d007      	beq.n	338e <prvAllocateTCBAndStack+0x62>
    337e:	68fb      	ldr	r3, [r7, #12]
    3380:	6d58      	ldr	r0, [r3, #84]	; 0x54
    3382:	88fb      	ldrh	r3, [r7, #6]
    3384:	009b      	lsls	r3, r3, #2
    3386:	461a      	mov	r2, r3
    3388:	21a5      	movs	r1, #165	; 0xa5
    338a:	f00a fcc5 	bl	dd18 <memset>
    338e:	68fb      	ldr	r3, [r7, #12]
    3390:	4618      	mov	r0, r3
    3392:	3710      	adds	r7, #16
    3394:	46bd      	mov	sp, r7
    3396:	bd80      	pop	{r7, pc}

00003398 <prvListTaskWithinSingleList>:
    3398:	b590      	push	{r4, r7, lr}
    339a:	b08b      	sub	sp, #44	; 0x2c
    339c:	af00      	add	r7, sp, #0
    339e:	60f8      	str	r0, [r7, #12]
    33a0:	60b9      	str	r1, [r7, #8]
    33a2:	4613      	mov	r3, r2
    33a4:	71fb      	strb	r3, [r7, #7]
    33a6:	2300      	movs	r3, #0
    33a8:	627b      	str	r3, [r7, #36]	; 0x24
    33aa:	68bb      	ldr	r3, [r7, #8]
    33ac:	681b      	ldr	r3, [r3, #0]
    33ae:	2b00      	cmp	r3, #0
    33b0:	d079      	beq.n	34a6 <prvListTaskWithinSingleList+0x10e>
    33b2:	68bb      	ldr	r3, [r7, #8]
    33b4:	623b      	str	r3, [r7, #32]
    33b6:	6a3b      	ldr	r3, [r7, #32]
    33b8:	685b      	ldr	r3, [r3, #4]
    33ba:	685a      	ldr	r2, [r3, #4]
    33bc:	6a3b      	ldr	r3, [r7, #32]
    33be:	605a      	str	r2, [r3, #4]
    33c0:	6a3b      	ldr	r3, [r7, #32]
    33c2:	685a      	ldr	r2, [r3, #4]
    33c4:	6a3b      	ldr	r3, [r7, #32]
    33c6:	3308      	adds	r3, #8
    33c8:	429a      	cmp	r2, r3
    33ca:	d104      	bne.n	33d6 <prvListTaskWithinSingleList+0x3e>
    33cc:	6a3b      	ldr	r3, [r7, #32]
    33ce:	685b      	ldr	r3, [r3, #4]
    33d0:	685a      	ldr	r2, [r3, #4]
    33d2:	6a3b      	ldr	r3, [r7, #32]
    33d4:	605a      	str	r2, [r3, #4]
    33d6:	6a3b      	ldr	r3, [r7, #32]
    33d8:	685b      	ldr	r3, [r3, #4]
    33da:	68db      	ldr	r3, [r3, #12]
    33dc:	61fb      	str	r3, [r7, #28]
    33de:	68bb      	ldr	r3, [r7, #8]
    33e0:	61bb      	str	r3, [r7, #24]
    33e2:	69bb      	ldr	r3, [r7, #24]
    33e4:	685b      	ldr	r3, [r3, #4]
    33e6:	685a      	ldr	r2, [r3, #4]
    33e8:	69bb      	ldr	r3, [r7, #24]
    33ea:	605a      	str	r2, [r3, #4]
    33ec:	69bb      	ldr	r3, [r7, #24]
    33ee:	685a      	ldr	r2, [r3, #4]
    33f0:	69bb      	ldr	r3, [r7, #24]
    33f2:	3308      	adds	r3, #8
    33f4:	429a      	cmp	r2, r3
    33f6:	d104      	bne.n	3402 <prvListTaskWithinSingleList+0x6a>
    33f8:	69bb      	ldr	r3, [r7, #24]
    33fa:	685b      	ldr	r3, [r3, #4]
    33fc:	685a      	ldr	r2, [r3, #4]
    33fe:	69bb      	ldr	r3, [r7, #24]
    3400:	605a      	str	r2, [r3, #4]
    3402:	69bb      	ldr	r3, [r7, #24]
    3404:	685b      	ldr	r3, [r3, #4]
    3406:	68db      	ldr	r3, [r3, #12]
    3408:	617b      	str	r3, [r7, #20]
    340a:	6a7b      	ldr	r3, [r7, #36]	; 0x24
    340c:	015b      	lsls	r3, r3, #5
    340e:	68fa      	ldr	r2, [r7, #12]
    3410:	4413      	add	r3, r2
    3412:	697a      	ldr	r2, [r7, #20]
    3414:	601a      	str	r2, [r3, #0]
    3416:	6a7b      	ldr	r3, [r7, #36]	; 0x24
    3418:	015b      	lsls	r3, r3, #5
    341a:	68fa      	ldr	r2, [r7, #12]
    341c:	4413      	add	r3, r2
    341e:	697a      	ldr	r2, [r7, #20]
    3420:	3258      	adds	r2, #88	; 0x58
    3422:	605a      	str	r2, [r3, #4]
    3424:	6a7b      	ldr	r3, [r7, #36]	; 0x24
    3426:	015b      	lsls	r3, r3, #5
    3428:	68fa      	ldr	r2, [r7, #12]
    342a:	4413      	add	r3, r2
    342c:	697a      	ldr	r2, [r7, #20]
    342e:	6e52      	ldr	r2, [r2, #100]	; 0x64
    3430:	609a      	str	r2, [r3, #8]
    3432:	6a7b      	ldr	r3, [r7, #36]	; 0x24
    3434:	015b      	lsls	r3, r3, #5
    3436:	68fa      	ldr	r2, [r7, #12]
    3438:	4413      	add	r3, r2
    343a:	79fa      	ldrb	r2, [r7, #7]
    343c:	731a      	strb	r2, [r3, #12]
    343e:	6a7b      	ldr	r3, [r7, #36]	; 0x24
    3440:	015b      	lsls	r3, r3, #5
    3442:	68fa      	ldr	r2, [r7, #12]
    3444:	4413      	add	r3, r2
    3446:	697a      	ldr	r2, [r7, #20]
    3448:	6d12      	ldr	r2, [r2, #80]	; 0x50
    344a:	611a      	str	r2, [r3, #16]
    344c:	79fb      	ldrb	r3, [r7, #7]
    344e:	2b03      	cmp	r3, #3
    3450:	d109      	bne.n	3466 <prvListTaskWithinSingleList+0xce>
    3452:	697b      	ldr	r3, [r7, #20]
    3454:	6cdb      	ldr	r3, [r3, #76]	; 0x4c
    3456:	2b00      	cmp	r3, #0
    3458:	d005      	beq.n	3466 <prvListTaskWithinSingleList+0xce>
    345a:	6a7b      	ldr	r3, [r7, #36]	; 0x24
    345c:	015b      	lsls	r3, r3, #5
    345e:	68fa      	ldr	r2, [r7, #12]
    3460:	4413      	add	r3, r2
    3462:	2202      	movs	r2, #2
    3464:	731a      	strb	r2, [r3, #12]
    3466:	6a7b      	ldr	r3, [r7, #36]	; 0x24
    3468:	015b      	lsls	r3, r3, #5
    346a:	68fa      	ldr	r2, [r7, #12]
    346c:	4413      	add	r3, r2
    346e:	697a      	ldr	r2, [r7, #20]
    3470:	6ed2      	ldr	r2, [r2, #108]	; 0x6c
    3472:	615a      	str	r2, [r3, #20]
    3474:	6a7b      	ldr	r3, [r7, #36]	; 0x24
    3476:	015b      	lsls	r3, r3, #5
    3478:	68fa      	ldr	r2, [r7, #12]
    347a:	4413      	add	r3, r2
    347c:	697a      	ldr	r2, [r7, #20]
    347e:	6f52      	ldr	r2, [r2, #116]	; 0x74
    3480:	619a      	str	r2, [r3, #24]
    3482:	6a7b      	ldr	r3, [r7, #36]	; 0x24
    3484:	015b      	lsls	r3, r3, #5
    3486:	68fa      	ldr	r2, [r7, #12]
    3488:	18d4      	adds	r4, r2, r3
    348a:	697b      	ldr	r3, [r7, #20]
    348c:	6d5b      	ldr	r3, [r3, #84]	; 0x54
    348e:	4618      	mov	r0, r3
    3490:	f000 f80e 	bl	34b0 <prvTaskCheckFreeStackSpace>
    3494:	4603      	mov	r3, r0
    3496:	83a3      	strh	r3, [r4, #28]
    3498:	6a7b      	ldr	r3, [r7, #36]	; 0x24
    349a:	3301      	adds	r3, #1
    349c:	627b      	str	r3, [r7, #36]	; 0x24
    349e:	697a      	ldr	r2, [r7, #20]
    34a0:	69fb      	ldr	r3, [r7, #28]
    34a2:	429a      	cmp	r2, r3
    34a4:	d19b      	bne.n	33de <prvListTaskWithinSingleList+0x46>
    34a6:	6a7b      	ldr	r3, [r7, #36]	; 0x24
    34a8:	4618      	mov	r0, r3
    34aa:	372c      	adds	r7, #44	; 0x2c
    34ac:	46bd      	mov	sp, r7
    34ae:	bd90      	pop	{r4, r7, pc}

000034b0 <prvTaskCheckFreeStackSpace>:
    34b0:	b480      	push	{r7}
    34b2:	b085      	sub	sp, #20
    34b4:	af00      	add	r7, sp, #0
    34b6:	6078      	str	r0, [r7, #4]
    34b8:	2300      	movs	r3, #0
    34ba:	60fb      	str	r3, [r7, #12]
    34bc:	e005      	b.n	34ca <prvTaskCheckFreeStackSpace+0x1a>
    34be:	687b      	ldr	r3, [r7, #4]
    34c0:	3301      	adds	r3, #1
    34c2:	607b      	str	r3, [r7, #4]
    34c4:	68fb      	ldr	r3, [r7, #12]
    34c6:	3301      	adds	r3, #1
    34c8:	60fb      	str	r3, [r7, #12]
    34ca:	687b      	ldr	r3, [r7, #4]
    34cc:	781b      	ldrb	r3, [r3, #0]
    34ce:	2ba5      	cmp	r3, #165	; 0xa5
    34d0:	d0f5      	beq.n	34be <prvTaskCheckFreeStackSpace+0xe>
    34d2:	68fb      	ldr	r3, [r7, #12]
    34d4:	089b      	lsrs	r3, r3, #2
    34d6:	60fb      	str	r3, [r7, #12]
    34d8:	68fb      	ldr	r3, [r7, #12]
    34da:	b29b      	uxth	r3, r3
    34dc:	4618      	mov	r0, r3
    34de:	3714      	adds	r7, #20
    34e0:	46bd      	mov	sp, r7
    34e2:	bc80      	pop	{r7}
    34e4:	4770      	bx	lr
    34e6:	bf00      	nop

000034e8 <xTimerCreate>:
    34e8:	b580      	push	{r7, lr}
    34ea:	b086      	sub	sp, #24
    34ec:	af00      	add	r7, sp, #0
    34ee:	60f8      	str	r0, [r7, #12]
    34f0:	60b9      	str	r1, [r7, #8]
    34f2:	607a      	str	r2, [r7, #4]
    34f4:	603b      	str	r3, [r7, #0]
    34f6:	68bb      	ldr	r3, [r7, #8]
    34f8:	2b00      	cmp	r3, #0
    34fa:	d102      	bne.n	3502 <xTimerCreate+0x1a>
    34fc:	2300      	movs	r3, #0
    34fe:	617b      	str	r3, [r7, #20]
    3500:	e01c      	b.n	353c <xTimerCreate+0x54>
    3502:	202c      	movs	r0, #44	; 0x2c
    3504:	f7fc fde2 	bl	cc <pvPortMalloc>
    3508:	6178      	str	r0, [r7, #20]
    350a:	697b      	ldr	r3, [r7, #20]
    350c:	2b00      	cmp	r3, #0
    350e:	d015      	beq.n	353c <xTimerCreate+0x54>
    3510:	f000 f904 	bl	371c <prvCheckForValidListAndQueue>
    3514:	697b      	ldr	r3, [r7, #20]
    3516:	68fa      	ldr	r2, [r7, #12]
    3518:	601a      	str	r2, [r3, #0]
    351a:	697b      	ldr	r3, [r7, #20]
    351c:	68ba      	ldr	r2, [r7, #8]
    351e:	619a      	str	r2, [r3, #24]
    3520:	697b      	ldr	r3, [r7, #20]
    3522:	687a      	ldr	r2, [r7, #4]
    3524:	61da      	str	r2, [r3, #28]
    3526:	697b      	ldr	r3, [r7, #20]
    3528:	683a      	ldr	r2, [r7, #0]
    352a:	621a      	str	r2, [r3, #32]
    352c:	697b      	ldr	r3, [r7, #20]
    352e:	6a3a      	ldr	r2, [r7, #32]
    3530:	625a      	str	r2, [r3, #36]	; 0x24
    3532:	697b      	ldr	r3, [r7, #20]
    3534:	3304      	adds	r3, #4
    3536:	4618      	mov	r0, r3
    3538:	f004 fe78 	bl	822c <vListInitialiseItem>
    353c:	68bb      	ldr	r3, [r7, #8]
    353e:	2b00      	cmp	r3, #0
    3540:	d104      	bne.n	354c <xTimerCreate+0x64>
    3542:	f04f 0028 	mov.w	r0, #40	; 0x28
    3546:	f380 8811 	msr	BASEPRI, r0
    354a:	e7fe      	b.n	354a <xTimerCreate+0x62>
    354c:	697b      	ldr	r3, [r7, #20]
    354e:	4618      	mov	r0, r3
    3550:	3718      	adds	r7, #24
    3552:	46bd      	mov	sp, r7
    3554:	bd80      	pop	{r7, pc}
    3556:	bf00      	nop

00003558 <pvTimerGetTimerID>:
    3558:	b580      	push	{r7, lr}
    355a:	b084      	sub	sp, #16
    355c:	af00      	add	r7, sp, #0
    355e:	6078      	str	r0, [r7, #4]
    3560:	687b      	ldr	r3, [r7, #4]
    3562:	60fb      	str	r3, [r7, #12]
    3564:	687b      	ldr	r3, [r7, #4]
    3566:	2b00      	cmp	r3, #0
    3568:	d104      	bne.n	3574 <pvTimerGetTimerID+0x1c>
    356a:	f04f 0028 	mov.w	r0, #40	; 0x28
    356e:	f380 8811 	msr	BASEPRI, r0
    3572:	e7fe      	b.n	3572 <pvTimerGetTimerID+0x1a>
    3574:	f004 fc20 	bl	7db8 <vPortEnterCritical>
    3578:	68fb      	ldr	r3, [r7, #12]
    357a:	6a1b      	ldr	r3, [r3, #32]
    357c:	60bb      	str	r3, [r7, #8]
    357e:	f004 fc39 	bl	7df4 <vPortExitCritical>
    3582:	68bb      	ldr	r3, [r7, #8]
    3584:	4618      	mov	r0, r3
    3586:	3710      	adds	r7, #16
    3588:	46bd      	mov	sp, r7
    358a:	bd80      	pop	{r7, pc}

0000358c <vTimerSetTimerID>:
    358c:	b580      	push	{r7, lr}
    358e:	b084      	sub	sp, #16
    3590:	af00      	add	r7, sp, #0
    3592:	6078      	str	r0, [r7, #4]
    3594:	6039      	str	r1, [r7, #0]
    3596:	687b      	ldr	r3, [r7, #4]
    3598:	60fb      	str	r3, [r7, #12]
    359a:	687b      	ldr	r3, [r7, #4]
    359c:	2b00      	cmp	r3, #0
    359e:	d104      	bne.n	35aa <vTimerSetTimerID+0x1e>
    35a0:	f04f 0028 	mov.w	r0, #40	; 0x28
    35a4:	f380 8811 	msr	BASEPRI, r0
    35a8:	e7fe      	b.n	35a8 <vTimerSetTimerID+0x1c>
    35aa:	f004 fc05 	bl	7db8 <vPortEnterCritical>
    35ae:	68fb      	ldr	r3, [r7, #12]
    35b0:	683a      	ldr	r2, [r7, #0]
    35b2:	621a      	str	r2, [r3, #32]
    35b4:	f004 fc1e 	bl	7df4 <vPortExitCritical>
    35b8:	bf00      	nop
    35ba:	3710      	adds	r7, #16
    35bc:	46bd      	mov	sp, r7
    35be:	bd80      	pop	{r7, pc}

000035c0 <xTimerIsTimerActive>:
    35c0:	b580      	push	{r7, lr}
    35c2:	b084      	sub	sp, #16
    35c4:	af00      	add	r7, sp, #0
    35c6:	6078      	str	r0, [r7, #4]
    35c8:	687b      	ldr	r3, [r7, #4]
    35ca:	60fb      	str	r3, [r7, #12]
    35cc:	687b      	ldr	r3, [r7, #4]
    35ce:	2b00      	cmp	r3, #0
    35d0:	d104      	bne.n	35dc <xTimerIsTimerActive+0x1c>
    35d2:	f04f 0028 	mov.w	r0, #40	; 0x28
    35d6:	f380 8811 	msr	BASEPRI, r0
    35da:	e7fe      	b.n	35da <xTimerIsTimerActive+0x1a>
    35dc:	f004 fbec 	bl	7db8 <vPortEnterCritical>
    35e0:	68fb      	ldr	r3, [r7, #12]
    35e2:	695b      	ldr	r3, [r3, #20]
    35e4:	2b00      	cmp	r3, #0
    35e6:	bf14      	ite	ne
    35e8:	2301      	movne	r3, #1
    35ea:	2300      	moveq	r3, #0
    35ec:	b2db      	uxtb	r3, r3
    35ee:	60bb      	str	r3, [r7, #8]
    35f0:	f004 fc00 	bl	7df4 <vPortExitCritical>
    35f4:	68bb      	ldr	r3, [r7, #8]
    35f6:	4618      	mov	r0, r3
    35f8:	3710      	adds	r7, #16
    35fa:	46bd      	mov	sp, r7
    35fc:	bd80      	pop	{r7, pc}
    35fe:	bf00      	nop

00003600 <pcTimerGetTimerName>:
    3600:	b480      	push	{r7}
    3602:	b085      	sub	sp, #20
    3604:	af00      	add	r7, sp, #0
    3606:	6078      	str	r0, [r7, #4]
    3608:	687b      	ldr	r3, [r7, #4]
    360a:	60fb      	str	r3, [r7, #12]
    360c:	687b      	ldr	r3, [r7, #4]
    360e:	2b00      	cmp	r3, #0
    3610:	d104      	bne.n	361c <pcTimerGetTimerName+0x1c>
    3612:	f04f 0028 	mov.w	r0, #40	; 0x28
    3616:	f380 8811 	msr	BASEPRI, r0
    361a:	e7fe      	b.n	361a <pcTimerGetTimerName+0x1a>
    361c:	68fb      	ldr	r3, [r7, #12]
    361e:	681b      	ldr	r3, [r3, #0]
    3620:	4618      	mov	r0, r3
    3622:	3714      	adds	r7, #20
    3624:	46bd      	mov	sp, r7
    3626:	bc80      	pop	{r7}
    3628:	4770      	bx	lr
    362a:	bf00      	nop

0000362c <xTimerCreateTimerTask>:
    362c:	b580      	push	{r7, lr}
    362e:	b086      	sub	sp, #24
    3630:	af04      	add	r7, sp, #16
    3632:	2300      	movs	r3, #0
    3634:	607b      	str	r3, [r7, #4]
    3636:	f000 f871 	bl	371c <prvCheckForValidListAndQueue>
    363a:	4b10      	ldr	r3, [pc, #64]	; (367c <xTimerCreateTimerTask+0x50>)
    363c:	681b      	ldr	r3, [r3, #0]
    363e:	2b00      	cmp	r3, #0
    3640:	d00e      	beq.n	3660 <xTimerCreateTimerTask+0x34>
    3642:	2300      	movs	r3, #0
    3644:	9303      	str	r3, [sp, #12]
    3646:	2300      	movs	r3, #0
    3648:	9302      	str	r3, [sp, #8]
    364a:	2300      	movs	r3, #0
    364c:	9301      	str	r3, [sp, #4]
    364e:	4b0c      	ldr	r3, [pc, #48]	; (3680 <xTimerCreateTimerTask+0x54>)
    3650:	9300      	str	r3, [sp, #0]
    3652:	2300      	movs	r3, #0
    3654:	225a      	movs	r2, #90	; 0x5a
    3656:	490b      	ldr	r1, [pc, #44]	; (3684 <xTimerCreateTimerTask+0x58>)
    3658:	480b      	ldr	r0, [pc, #44]	; (3688 <xTimerCreateTimerTask+0x5c>)
    365a:	f7ff fbf9 	bl	2e50 <xTaskGenericCreate>
    365e:	6078      	str	r0, [r7, #4]
    3660:	687b      	ldr	r3, [r7, #4]
    3662:	2b00      	cmp	r3, #0
    3664:	d104      	bne.n	3670 <xTimerCreateTimerTask+0x44>
    3666:	f04f 0028 	mov.w	r0, #40	; 0x28
    366a:	f380 8811 	msr	BASEPRI, r0
    366e:	e7fe      	b.n	366e <xTimerCreateTimerTask+0x42>
    3670:	687b      	ldr	r3, [r7, #4]
    3672:	4618      	mov	r0, r3
    3674:	3708      	adds	r7, #8
    3676:	46bd      	mov	sp, r7
    3678:	bd80      	pop	{r7, pc}
    367a:	bf00      	nop
    367c:	10000188 	.word	0x10000188
    3680:	80000002 	.word	0x80000002
    3684:	0000e640 	.word	0x0000e640
    3688:	0000379d 	.word	0x0000379d

0000368c <xTimerGenericCommand>:
    368c:	b580      	push	{r7, lr}
    368e:	b088      	sub	sp, #32
    3690:	af00      	add	r7, sp, #0
    3692:	60f8      	str	r0, [r7, #12]
    3694:	60b9      	str	r1, [r7, #8]
    3696:	607a      	str	r2, [r7, #4]
    3698:	603b      	str	r3, [r7, #0]
    369a:	2300      	movs	r3, #0
    369c:	61fb      	str	r3, [r7, #28]
    369e:	68fb      	ldr	r3, [r7, #12]
    36a0:	2b00      	cmp	r3, #0
    36a2:	d104      	bne.n	36ae <xTimerGenericCommand+0x22>
    36a4:	f04f 0028 	mov.w	r0, #40	; 0x28
    36a8:	f380 8811 	msr	BASEPRI, r0
    36ac:	e7fe      	b.n	36ac <xTimerGenericCommand+0x20>
    36ae:	4b1a      	ldr	r3, [pc, #104]	; (3718 <xTimerGenericCommand+0x8c>)
    36b0:	681b      	ldr	r3, [r3, #0]
    36b2:	2b00      	cmp	r3, #0
    36b4:	d02a      	beq.n	370c <xTimerGenericCommand+0x80>
    36b6:	68bb      	ldr	r3, [r7, #8]
    36b8:	613b      	str	r3, [r7, #16]
    36ba:	687b      	ldr	r3, [r7, #4]
    36bc:	617b      	str	r3, [r7, #20]
    36be:	68fb      	ldr	r3, [r7, #12]
    36c0:	61bb      	str	r3, [r7, #24]
    36c2:	68bb      	ldr	r3, [r7, #8]
    36c4:	2b05      	cmp	r3, #5
    36c6:	dc18      	bgt.n	36fa <xTimerGenericCommand+0x6e>
    36c8:	f7ff fae4 	bl	2c94 <xTaskGetSchedulerState>
    36cc:	4603      	mov	r3, r0
    36ce:	2b02      	cmp	r3, #2
    36d0:	d109      	bne.n	36e6 <xTimerGenericCommand+0x5a>
    36d2:	4b11      	ldr	r3, [pc, #68]	; (3718 <xTimerGenericCommand+0x8c>)
    36d4:	6818      	ldr	r0, [r3, #0]
    36d6:	f107 0110 	add.w	r1, r7, #16
    36da:	2300      	movs	r3, #0
    36dc:	6aba      	ldr	r2, [r7, #40]	; 0x28
    36de:	f7fd f837 	bl	750 <xQueueGenericSend>
    36e2:	61f8      	str	r0, [r7, #28]
    36e4:	e012      	b.n	370c <xTimerGenericCommand+0x80>
    36e6:	4b0c      	ldr	r3, [pc, #48]	; (3718 <xTimerGenericCommand+0x8c>)
    36e8:	6818      	ldr	r0, [r3, #0]
    36ea:	f107 0110 	add.w	r1, r7, #16
    36ee:	2300      	movs	r3, #0
    36f0:	2200      	movs	r2, #0
    36f2:	f7fd f82d 	bl	750 <xQueueGenericSend>
    36f6:	61f8      	str	r0, [r7, #28]
    36f8:	e008      	b.n	370c <xTimerGenericCommand+0x80>
    36fa:	4b07      	ldr	r3, [pc, #28]	; (3718 <xTimerGenericCommand+0x8c>)
    36fc:	6818      	ldr	r0, [r3, #0]
    36fe:	f107 0110 	add.w	r1, r7, #16
    3702:	2300      	movs	r3, #0
    3704:	683a      	ldr	r2, [r7, #0]
    3706:	f7fd fa7b 	bl	c00 <xQueueGenericSendFromISR>
    370a:	61f8      	str	r0, [r7, #28]
    370c:	69fb      	ldr	r3, [r7, #28]
    370e:	4618      	mov	r0, r3
    3710:	3720      	adds	r7, #32
    3712:	46bd      	mov	sp, r7
    3714:	bd80      	pop	{r7, pc}
    3716:	bf00      	nop
    3718:	10000188 	.word	0x10000188

0000371c <prvCheckForValidListAndQueue>:
    371c:	b580      	push	{r7, lr}
    371e:	af00      	add	r7, sp, #0
    3720:	f004 fb4a 	bl	7db8 <vPortEnterCritical>
    3724:	4b17      	ldr	r3, [pc, #92]	; (3784 <prvCheckForValidListAndQueue+0x68>)
    3726:	681b      	ldr	r3, [r3, #0]
    3728:	2b00      	cmp	r3, #0
    372a:	d126      	bne.n	377a <prvCheckForValidListAndQueue+0x5e>
    372c:	4816      	ldr	r0, [pc, #88]	; (3788 <prvCheckForValidListAndQueue+0x6c>)
    372e:	f004 fd5d 	bl	81ec <vListInitialise>
    3732:	4816      	ldr	r0, [pc, #88]	; (378c <prvCheckForValidListAndQueue+0x70>)
    3734:	f004 fd5a 	bl	81ec <vListInitialise>
    3738:	4b15      	ldr	r3, [pc, #84]	; (3790 <prvCheckForValidListAndQueue+0x74>)
    373a:	4a13      	ldr	r2, [pc, #76]	; (3788 <prvCheckForValidListAndQueue+0x6c>)
    373c:	601a      	str	r2, [r3, #0]
    373e:	4b15      	ldr	r3, [pc, #84]	; (3794 <prvCheckForValidListAndQueue+0x78>)
    3740:	4a12      	ldr	r2, [pc, #72]	; (378c <prvCheckForValidListAndQueue+0x70>)
    3742:	601a      	str	r2, [r3, #0]
    3744:	2200      	movs	r2, #0
    3746:	210c      	movs	r1, #12
    3748:	200a      	movs	r0, #10
    374a:	f7fd fd03 	bl	1154 <xQueueGenericCreate>
    374e:	4602      	mov	r2, r0
    3750:	4b0c      	ldr	r3, [pc, #48]	; (3784 <prvCheckForValidListAndQueue+0x68>)
    3752:	601a      	str	r2, [r3, #0]
    3754:	4b0b      	ldr	r3, [pc, #44]	; (3784 <prvCheckForValidListAndQueue+0x68>)
    3756:	681b      	ldr	r3, [r3, #0]
    3758:	2b00      	cmp	r3, #0
    375a:	d104      	bne.n	3766 <prvCheckForValidListAndQueue+0x4a>
    375c:	f04f 0028 	mov.w	r0, #40	; 0x28
    3760:	f380 8811 	msr	BASEPRI, r0
    3764:	e7fe      	b.n	3764 <prvCheckForValidListAndQueue+0x48>
    3766:	4b07      	ldr	r3, [pc, #28]	; (3784 <prvCheckForValidListAndQueue+0x68>)
    3768:	681b      	ldr	r3, [r3, #0]
    376a:	2b00      	cmp	r3, #0
    376c:	d005      	beq.n	377a <prvCheckForValidListAndQueue+0x5e>
    376e:	4b05      	ldr	r3, [pc, #20]	; (3784 <prvCheckForValidListAndQueue+0x68>)
    3770:	681b      	ldr	r3, [r3, #0]
    3772:	4909      	ldr	r1, [pc, #36]	; (3798 <prvCheckForValidListAndQueue+0x7c>)
    3774:	4618      	mov	r0, r3
    3776:	f7fd fca3 	bl	10c0 <vQueueAddToRegistry>
    377a:	f004 fb3b 	bl	7df4 <vPortExitCritical>
    377e:	bf00      	nop
    3780:	bd80      	pop	{r7, pc}
    3782:	bf00      	nop
    3784:	10000188 	.word	0x10000188
    3788:	10000158 	.word	0x10000158
    378c:	1000016c 	.word	0x1000016c
    3790:	10000180 	.word	0x10000180
    3794:	10000184 	.word	0x10000184
    3798:	0000e648 	.word	0x0000e648

0000379c <prvTimerTask>:
    379c:	b580      	push	{r7, lr}
    379e:	b084      	sub	sp, #16
    37a0:	af00      	add	r7, sp, #0
    37a2:	6078      	str	r0, [r7, #4]
    37a4:	f107 0308 	add.w	r3, r7, #8
    37a8:	4618      	mov	r0, r3
    37aa:	f000 f987 	bl	3abc <prvGetNextExpireTime>
    37ae:	60f8      	str	r0, [r7, #12]
    37b0:	68bb      	ldr	r3, [r7, #8]
    37b2:	4619      	mov	r1, r3
    37b4:	68f8      	ldr	r0, [r7, #12]
    37b6:	f000 f9a5 	bl	3b04 <prvProcessTimerOrBlockTask>
    37ba:	f000 f801 	bl	37c0 <prvProcessReceivedCommands>
    37be:	e7f1      	b.n	37a4 <prvTimerTask+0x8>

000037c0 <prvProcessReceivedCommands>:
    37c0:	b580      	push	{r7, lr}
    37c2:	b08a      	sub	sp, #40	; 0x28
    37c4:	af02      	add	r7, sp, #8
    37c6:	e070      	b.n	38aa <prvProcessReceivedCommands+0xea>
    37c8:	68bb      	ldr	r3, [r7, #8]
    37ca:	2b00      	cmp	r3, #0
    37cc:	db6d      	blt.n	38aa <prvProcessReceivedCommands+0xea>
    37ce:	693b      	ldr	r3, [r7, #16]
    37d0:	61fb      	str	r3, [r7, #28]
    37d2:	69fb      	ldr	r3, [r7, #28]
    37d4:	695b      	ldr	r3, [r3, #20]
    37d6:	2b00      	cmp	r3, #0
    37d8:	d004      	beq.n	37e4 <prvProcessReceivedCommands+0x24>
    37da:	69fb      	ldr	r3, [r7, #28]
    37dc:	3304      	adds	r3, #4
    37de:	4618      	mov	r0, r3
    37e0:	f004 fd8c 	bl	82fc <uxListRemove>
    37e4:	1d3b      	adds	r3, r7, #4
    37e6:	4618      	mov	r0, r3
    37e8:	f000 f948 	bl	3a7c <prvSampleTimeNow>
    37ec:	61b8      	str	r0, [r7, #24]
    37ee:	68bb      	ldr	r3, [r7, #8]
    37f0:	2b09      	cmp	r3, #9
    37f2:	d859      	bhi.n	38a8 <prvProcessReceivedCommands+0xe8>
    37f4:	a201      	add	r2, pc, #4	; (adr r2, 37fc <prvProcessReceivedCommands+0x3c>)
    37f6:	f852 f023 	ldr.w	pc, [r2, r3, lsl #2]
    37fa:	bf00      	nop
    37fc:	00003825 	.word	0x00003825
    3800:	00003825 	.word	0x00003825
    3804:	00003825 	.word	0x00003825
    3808:	000038ab 	.word	0x000038ab
    380c:	00003875 	.word	0x00003875
    3810:	000038a1 	.word	0x000038a1
    3814:	00003825 	.word	0x00003825
    3818:	00003825 	.word	0x00003825
    381c:	000038ab 	.word	0x000038ab
    3820:	00003875 	.word	0x00003875
    3824:	68fa      	ldr	r2, [r7, #12]
    3826:	69fb      	ldr	r3, [r7, #28]
    3828:	699b      	ldr	r3, [r3, #24]
    382a:	18d1      	adds	r1, r2, r3
    382c:	68fb      	ldr	r3, [r7, #12]
    382e:	69ba      	ldr	r2, [r7, #24]
    3830:	69f8      	ldr	r0, [r7, #28]
    3832:	f000 f84b 	bl	38cc <prvInsertTimerInActiveList>
    3836:	4603      	mov	r3, r0
    3838:	2b01      	cmp	r3, #1
    383a:	d136      	bne.n	38aa <prvProcessReceivedCommands+0xea>
    383c:	69fb      	ldr	r3, [r7, #28]
    383e:	6a5b      	ldr	r3, [r3, #36]	; 0x24
    3840:	69f8      	ldr	r0, [r7, #28]
    3842:	4798      	blx	r3
    3844:	69fb      	ldr	r3, [r7, #28]
    3846:	69db      	ldr	r3, [r3, #28]
    3848:	2b01      	cmp	r3, #1
    384a:	d12e      	bne.n	38aa <prvProcessReceivedCommands+0xea>
    384c:	68fa      	ldr	r2, [r7, #12]
    384e:	69fb      	ldr	r3, [r7, #28]
    3850:	699b      	ldr	r3, [r3, #24]
    3852:	441a      	add	r2, r3
    3854:	2300      	movs	r3, #0
    3856:	9300      	str	r3, [sp, #0]
    3858:	2300      	movs	r3, #0
    385a:	2100      	movs	r1, #0
    385c:	69f8      	ldr	r0, [r7, #28]
    385e:	f7ff ff15 	bl	368c <xTimerGenericCommand>
    3862:	6178      	str	r0, [r7, #20]
    3864:	697b      	ldr	r3, [r7, #20]
    3866:	2b00      	cmp	r3, #0
    3868:	d11f      	bne.n	38aa <prvProcessReceivedCommands+0xea>
    386a:	f04f 0028 	mov.w	r0, #40	; 0x28
    386e:	f380 8811 	msr	BASEPRI, r0
    3872:	e7fe      	b.n	3872 <prvProcessReceivedCommands+0xb2>
    3874:	68fa      	ldr	r2, [r7, #12]
    3876:	69fb      	ldr	r3, [r7, #28]
    3878:	619a      	str	r2, [r3, #24]
    387a:	69fb      	ldr	r3, [r7, #28]
    387c:	699b      	ldr	r3, [r3, #24]
    387e:	2b00      	cmp	r3, #0
    3880:	d104      	bne.n	388c <prvProcessReceivedCommands+0xcc>
    3882:	f04f 0028 	mov.w	r0, #40	; 0x28
    3886:	f380 8811 	msr	BASEPRI, r0
    388a:	e7fe      	b.n	388a <prvProcessReceivedCommands+0xca>
    388c:	69fb      	ldr	r3, [r7, #28]
    388e:	699a      	ldr	r2, [r3, #24]
    3890:	69bb      	ldr	r3, [r7, #24]
    3892:	18d1      	adds	r1, r2, r3
    3894:	69bb      	ldr	r3, [r7, #24]
    3896:	69ba      	ldr	r2, [r7, #24]
    3898:	69f8      	ldr	r0, [r7, #28]
    389a:	f000 f817 	bl	38cc <prvInsertTimerInActiveList>
    389e:	e004      	b.n	38aa <prvProcessReceivedCommands+0xea>
    38a0:	69f8      	ldr	r0, [r7, #28]
    38a2:	f7fc fca5 	bl	1f0 <vPortFree>
    38a6:	e000      	b.n	38aa <prvProcessReceivedCommands+0xea>
    38a8:	bf00      	nop
    38aa:	4b07      	ldr	r3, [pc, #28]	; (38c8 <prvProcessReceivedCommands+0x108>)
    38ac:	6818      	ldr	r0, [r3, #0]
    38ae:	f107 0108 	add.w	r1, r7, #8
    38b2:	2300      	movs	r3, #0
    38b4:	2200      	movs	r2, #0
    38b6:	f7fd f86b 	bl	990 <xQueueGenericReceive>
    38ba:	4603      	mov	r3, r0
    38bc:	2b00      	cmp	r3, #0
    38be:	d183      	bne.n	37c8 <prvProcessReceivedCommands+0x8>
    38c0:	bf00      	nop
    38c2:	3720      	adds	r7, #32
    38c4:	46bd      	mov	sp, r7
    38c6:	bd80      	pop	{r7, pc}
    38c8:	10000188 	.word	0x10000188

000038cc <prvInsertTimerInActiveList>:
    38cc:	b580      	push	{r7, lr}
    38ce:	b086      	sub	sp, #24
    38d0:	af00      	add	r7, sp, #0
    38d2:	60f8      	str	r0, [r7, #12]
    38d4:	60b9      	str	r1, [r7, #8]
    38d6:	607a      	str	r2, [r7, #4]
    38d8:	603b      	str	r3, [r7, #0]
    38da:	2300      	movs	r3, #0
    38dc:	617b      	str	r3, [r7, #20]
    38de:	68fb      	ldr	r3, [r7, #12]
    38e0:	68ba      	ldr	r2, [r7, #8]
    38e2:	605a      	str	r2, [r3, #4]
    38e4:	68fb      	ldr	r3, [r7, #12]
    38e6:	68fa      	ldr	r2, [r7, #12]
    38e8:	611a      	str	r2, [r3, #16]
    38ea:	68ba      	ldr	r2, [r7, #8]
    38ec:	687b      	ldr	r3, [r7, #4]
    38ee:	429a      	cmp	r2, r3
    38f0:	d812      	bhi.n	3918 <prvInsertTimerInActiveList+0x4c>
    38f2:	687a      	ldr	r2, [r7, #4]
    38f4:	683b      	ldr	r3, [r7, #0]
    38f6:	1ad2      	subs	r2, r2, r3
    38f8:	68fb      	ldr	r3, [r7, #12]
    38fa:	699b      	ldr	r3, [r3, #24]
    38fc:	429a      	cmp	r2, r3
    38fe:	d302      	bcc.n	3906 <prvInsertTimerInActiveList+0x3a>
    3900:	2301      	movs	r3, #1
    3902:	617b      	str	r3, [r7, #20]
    3904:	e01b      	b.n	393e <prvInsertTimerInActiveList+0x72>
    3906:	4b10      	ldr	r3, [pc, #64]	; (3948 <prvInsertTimerInActiveList+0x7c>)
    3908:	681a      	ldr	r2, [r3, #0]
    390a:	68fb      	ldr	r3, [r7, #12]
    390c:	3304      	adds	r3, #4
    390e:	4619      	mov	r1, r3
    3910:	4610      	mov	r0, r2
    3912:	f004 fcbb 	bl	828c <vListInsert>
    3916:	e012      	b.n	393e <prvInsertTimerInActiveList+0x72>
    3918:	687a      	ldr	r2, [r7, #4]
    391a:	683b      	ldr	r3, [r7, #0]
    391c:	429a      	cmp	r2, r3
    391e:	d206      	bcs.n	392e <prvInsertTimerInActiveList+0x62>
    3920:	68ba      	ldr	r2, [r7, #8]
    3922:	683b      	ldr	r3, [r7, #0]
    3924:	429a      	cmp	r2, r3
    3926:	d302      	bcc.n	392e <prvInsertTimerInActiveList+0x62>
    3928:	2301      	movs	r3, #1
    392a:	617b      	str	r3, [r7, #20]
    392c:	e007      	b.n	393e <prvInsertTimerInActiveList+0x72>
    392e:	4b07      	ldr	r3, [pc, #28]	; (394c <prvInsertTimerInActiveList+0x80>)
    3930:	681a      	ldr	r2, [r3, #0]
    3932:	68fb      	ldr	r3, [r7, #12]
    3934:	3304      	adds	r3, #4
    3936:	4619      	mov	r1, r3
    3938:	4610      	mov	r0, r2
    393a:	f004 fca7 	bl	828c <vListInsert>
    393e:	697b      	ldr	r3, [r7, #20]
    3940:	4618      	mov	r0, r3
    3942:	3718      	adds	r7, #24
    3944:	46bd      	mov	sp, r7
    3946:	bd80      	pop	{r7, pc}
    3948:	10000184 	.word	0x10000184
    394c:	10000180 	.word	0x10000180

00003950 <prvProcessExpiredTimer>:
    3950:	b580      	push	{r7, lr}
    3952:	b086      	sub	sp, #24
    3954:	af02      	add	r7, sp, #8
    3956:	6078      	str	r0, [r7, #4]
    3958:	6039      	str	r1, [r7, #0]
    395a:	4b19      	ldr	r3, [pc, #100]	; (39c0 <prvProcessExpiredTimer+0x70>)
    395c:	681b      	ldr	r3, [r3, #0]
    395e:	68db      	ldr	r3, [r3, #12]
    3960:	68db      	ldr	r3, [r3, #12]
    3962:	60fb      	str	r3, [r7, #12]
    3964:	68fb      	ldr	r3, [r7, #12]
    3966:	3304      	adds	r3, #4
    3968:	4618      	mov	r0, r3
    396a:	f004 fcc7 	bl	82fc <uxListRemove>
    396e:	68fb      	ldr	r3, [r7, #12]
    3970:	69db      	ldr	r3, [r3, #28]
    3972:	2b01      	cmp	r3, #1
    3974:	d11c      	bne.n	39b0 <prvProcessExpiredTimer+0x60>
    3976:	68fb      	ldr	r3, [r7, #12]
    3978:	699a      	ldr	r2, [r3, #24]
    397a:	687b      	ldr	r3, [r7, #4]
    397c:	18d1      	adds	r1, r2, r3
    397e:	687b      	ldr	r3, [r7, #4]
    3980:	683a      	ldr	r2, [r7, #0]
    3982:	68f8      	ldr	r0, [r7, #12]
    3984:	f7ff ffa2 	bl	38cc <prvInsertTimerInActiveList>
    3988:	4603      	mov	r3, r0
    398a:	2b01      	cmp	r3, #1
    398c:	d110      	bne.n	39b0 <prvProcessExpiredTimer+0x60>
    398e:	2300      	movs	r3, #0
    3990:	9300      	str	r3, [sp, #0]
    3992:	2300      	movs	r3, #0
    3994:	687a      	ldr	r2, [r7, #4]
    3996:	2100      	movs	r1, #0
    3998:	68f8      	ldr	r0, [r7, #12]
    399a:	f7ff fe77 	bl	368c <xTimerGenericCommand>
    399e:	60b8      	str	r0, [r7, #8]
    39a0:	68bb      	ldr	r3, [r7, #8]
    39a2:	2b00      	cmp	r3, #0
    39a4:	d104      	bne.n	39b0 <prvProcessExpiredTimer+0x60>
    39a6:	f04f 0028 	mov.w	r0, #40	; 0x28
    39aa:	f380 8811 	msr	BASEPRI, r0
    39ae:	e7fe      	b.n	39ae <prvProcessExpiredTimer+0x5e>
    39b0:	68fb      	ldr	r3, [r7, #12]
    39b2:	6a5b      	ldr	r3, [r3, #36]	; 0x24
    39b4:	68f8      	ldr	r0, [r7, #12]
    39b6:	4798      	blx	r3
    39b8:	bf00      	nop
    39ba:	3710      	adds	r7, #16
    39bc:	46bd      	mov	sp, r7
    39be:	bd80      	pop	{r7, pc}
    39c0:	10000180 	.word	0x10000180

000039c4 <prvSwitchTimerLists>:
    39c4:	b580      	push	{r7, lr}
    39c6:	b088      	sub	sp, #32
    39c8:	af02      	add	r7, sp, #8
    39ca:	e03f      	b.n	3a4c <prvSwitchTimerLists+0x88>
    39cc:	4b29      	ldr	r3, [pc, #164]	; (3a74 <prvSwitchTimerLists+0xb0>)
    39ce:	681b      	ldr	r3, [r3, #0]
    39d0:	68db      	ldr	r3, [r3, #12]
    39d2:	681b      	ldr	r3, [r3, #0]
    39d4:	617b      	str	r3, [r7, #20]
    39d6:	4b27      	ldr	r3, [pc, #156]	; (3a74 <prvSwitchTimerLists+0xb0>)
    39d8:	681b      	ldr	r3, [r3, #0]
    39da:	68db      	ldr	r3, [r3, #12]
    39dc:	68db      	ldr	r3, [r3, #12]
    39de:	613b      	str	r3, [r7, #16]
    39e0:	693b      	ldr	r3, [r7, #16]
    39e2:	3304      	adds	r3, #4
    39e4:	4618      	mov	r0, r3
    39e6:	f004 fc89 	bl	82fc <uxListRemove>
    39ea:	693b      	ldr	r3, [r7, #16]
    39ec:	6a5b      	ldr	r3, [r3, #36]	; 0x24
    39ee:	6938      	ldr	r0, [r7, #16]
    39f0:	4798      	blx	r3
    39f2:	693b      	ldr	r3, [r7, #16]
    39f4:	69db      	ldr	r3, [r3, #28]
    39f6:	2b01      	cmp	r3, #1
    39f8:	d128      	bne.n	3a4c <prvSwitchTimerLists+0x88>
    39fa:	693b      	ldr	r3, [r7, #16]
    39fc:	699a      	ldr	r2, [r3, #24]
    39fe:	697b      	ldr	r3, [r7, #20]
    3a00:	4413      	add	r3, r2
    3a02:	60fb      	str	r3, [r7, #12]
    3a04:	68fa      	ldr	r2, [r7, #12]
    3a06:	697b      	ldr	r3, [r7, #20]
    3a08:	429a      	cmp	r2, r3
    3a0a:	d90e      	bls.n	3a2a <prvSwitchTimerLists+0x66>
    3a0c:	693b      	ldr	r3, [r7, #16]
    3a0e:	68fa      	ldr	r2, [r7, #12]
    3a10:	605a      	str	r2, [r3, #4]
    3a12:	693b      	ldr	r3, [r7, #16]
    3a14:	693a      	ldr	r2, [r7, #16]
    3a16:	611a      	str	r2, [r3, #16]
    3a18:	4b16      	ldr	r3, [pc, #88]	; (3a74 <prvSwitchTimerLists+0xb0>)
    3a1a:	681a      	ldr	r2, [r3, #0]
    3a1c:	693b      	ldr	r3, [r7, #16]
    3a1e:	3304      	adds	r3, #4
    3a20:	4619      	mov	r1, r3
    3a22:	4610      	mov	r0, r2
    3a24:	f004 fc32 	bl	828c <vListInsert>
    3a28:	e010      	b.n	3a4c <prvSwitchTimerLists+0x88>
    3a2a:	2300      	movs	r3, #0
    3a2c:	9300      	str	r3, [sp, #0]
    3a2e:	2300      	movs	r3, #0
    3a30:	697a      	ldr	r2, [r7, #20]
    3a32:	2100      	movs	r1, #0
    3a34:	6938      	ldr	r0, [r7, #16]
    3a36:	f7ff fe29 	bl	368c <xTimerGenericCommand>
    3a3a:	60b8      	str	r0, [r7, #8]
    3a3c:	68bb      	ldr	r3, [r7, #8]
    3a3e:	2b00      	cmp	r3, #0
    3a40:	d104      	bne.n	3a4c <prvSwitchTimerLists+0x88>
    3a42:	f04f 0028 	mov.w	r0, #40	; 0x28
    3a46:	f380 8811 	msr	BASEPRI, r0
    3a4a:	e7fe      	b.n	3a4a <prvSwitchTimerLists+0x86>
    3a4c:	4b09      	ldr	r3, [pc, #36]	; (3a74 <prvSwitchTimerLists+0xb0>)
    3a4e:	681b      	ldr	r3, [r3, #0]
    3a50:	681b      	ldr	r3, [r3, #0]
    3a52:	2b00      	cmp	r3, #0
    3a54:	d1ba      	bne.n	39cc <prvSwitchTimerLists+0x8>
    3a56:	4b07      	ldr	r3, [pc, #28]	; (3a74 <prvSwitchTimerLists+0xb0>)
    3a58:	681b      	ldr	r3, [r3, #0]
    3a5a:	607b      	str	r3, [r7, #4]
    3a5c:	4b06      	ldr	r3, [pc, #24]	; (3a78 <prvSwitchTimerLists+0xb4>)
    3a5e:	681b      	ldr	r3, [r3, #0]
    3a60:	4a04      	ldr	r2, [pc, #16]	; (3a74 <prvSwitchTimerLists+0xb0>)
    3a62:	6013      	str	r3, [r2, #0]
    3a64:	4a04      	ldr	r2, [pc, #16]	; (3a78 <prvSwitchTimerLists+0xb4>)
    3a66:	687b      	ldr	r3, [r7, #4]
    3a68:	6013      	str	r3, [r2, #0]
    3a6a:	bf00      	nop
    3a6c:	3718      	adds	r7, #24
    3a6e:	46bd      	mov	sp, r7
    3a70:	bd80      	pop	{r7, pc}
    3a72:	bf00      	nop
    3a74:	10000180 	.word	0x10000180
    3a78:	10000184 	.word	0x10000184

00003a7c <prvSampleTimeNow>:
    3a7c:	b580      	push	{r7, lr}
    3a7e:	b084      	sub	sp, #16
    3a80:	af00      	add	r7, sp, #0
    3a82:	6078      	str	r0, [r7, #4]
    3a84:	f7fe f96a 	bl	1d5c <xTaskGetTickCount>
    3a88:	60f8      	str	r0, [r7, #12]
    3a8a:	4b0b      	ldr	r3, [pc, #44]	; (3ab8 <prvSampleTimeNow+0x3c>)
    3a8c:	681b      	ldr	r3, [r3, #0]
    3a8e:	68fa      	ldr	r2, [r7, #12]
    3a90:	429a      	cmp	r2, r3
    3a92:	d205      	bcs.n	3aa0 <prvSampleTimeNow+0x24>
    3a94:	f7ff ff96 	bl	39c4 <prvSwitchTimerLists>
    3a98:	687b      	ldr	r3, [r7, #4]
    3a9a:	2201      	movs	r2, #1
    3a9c:	601a      	str	r2, [r3, #0]
    3a9e:	e002      	b.n	3aa6 <prvSampleTimeNow+0x2a>
    3aa0:	687b      	ldr	r3, [r7, #4]
    3aa2:	2200      	movs	r2, #0
    3aa4:	601a      	str	r2, [r3, #0]
    3aa6:	4a04      	ldr	r2, [pc, #16]	; (3ab8 <prvSampleTimeNow+0x3c>)
    3aa8:	68fb      	ldr	r3, [r7, #12]
    3aaa:	6013      	str	r3, [r2, #0]
    3aac:	68fb      	ldr	r3, [r7, #12]
    3aae:	4618      	mov	r0, r3
    3ab0:	3710      	adds	r7, #16
    3ab2:	46bd      	mov	sp, r7
    3ab4:	bd80      	pop	{r7, pc}
    3ab6:	bf00      	nop
    3ab8:	1000018c 	.word	0x1000018c

00003abc <prvGetNextExpireTime>:
    3abc:	b480      	push	{r7}
    3abe:	b085      	sub	sp, #20
    3ac0:	af00      	add	r7, sp, #0
    3ac2:	6078      	str	r0, [r7, #4]
    3ac4:	4b0e      	ldr	r3, [pc, #56]	; (3b00 <prvGetNextExpireTime+0x44>)
    3ac6:	681b      	ldr	r3, [r3, #0]
    3ac8:	681b      	ldr	r3, [r3, #0]
    3aca:	2b00      	cmp	r3, #0
    3acc:	bf0c      	ite	eq
    3ace:	2301      	moveq	r3, #1
    3ad0:	2300      	movne	r3, #0
    3ad2:	b2db      	uxtb	r3, r3
    3ad4:	461a      	mov	r2, r3
    3ad6:	687b      	ldr	r3, [r7, #4]
    3ad8:	601a      	str	r2, [r3, #0]
    3ada:	687b      	ldr	r3, [r7, #4]
    3adc:	681b      	ldr	r3, [r3, #0]
    3ade:	2b00      	cmp	r3, #0
    3ae0:	d105      	bne.n	3aee <prvGetNextExpireTime+0x32>
    3ae2:	4b07      	ldr	r3, [pc, #28]	; (3b00 <prvGetNextExpireTime+0x44>)
    3ae4:	681b      	ldr	r3, [r3, #0]
    3ae6:	68db      	ldr	r3, [r3, #12]
    3ae8:	681b      	ldr	r3, [r3, #0]
    3aea:	60fb      	str	r3, [r7, #12]
    3aec:	e001      	b.n	3af2 <prvGetNextExpireTime+0x36>
    3aee:	2300      	movs	r3, #0
    3af0:	60fb      	str	r3, [r7, #12]
    3af2:	68fb      	ldr	r3, [r7, #12]
    3af4:	4618      	mov	r0, r3
    3af6:	3714      	adds	r7, #20
    3af8:	46bd      	mov	sp, r7
    3afa:	bc80      	pop	{r7}
    3afc:	4770      	bx	lr
    3afe:	bf00      	nop
    3b00:	10000180 	.word	0x10000180

00003b04 <prvProcessTimerOrBlockTask>:
    3b04:	b580      	push	{r7, lr}
    3b06:	b084      	sub	sp, #16
    3b08:	af00      	add	r7, sp, #0
    3b0a:	6078      	str	r0, [r7, #4]
    3b0c:	6039      	str	r1, [r7, #0]
    3b0e:	f7fe f88b 	bl	1c28 <vTaskSuspendAll>
    3b12:	f107 0308 	add.w	r3, r7, #8
    3b16:	4618      	mov	r0, r3
    3b18:	f7ff ffb0 	bl	3a7c <prvSampleTimeNow>
    3b1c:	60f8      	str	r0, [r7, #12]
    3b1e:	68bb      	ldr	r3, [r7, #8]
    3b20:	2b00      	cmp	r3, #0
    3b22:	d12c      	bne.n	3b7e <prvProcessTimerOrBlockTask+0x7a>
    3b24:	683b      	ldr	r3, [r7, #0]
    3b26:	2b00      	cmp	r3, #0
    3b28:	d10a      	bne.n	3b40 <prvProcessTimerOrBlockTask+0x3c>
    3b2a:	687a      	ldr	r2, [r7, #4]
    3b2c:	68fb      	ldr	r3, [r7, #12]
    3b2e:	429a      	cmp	r2, r3
    3b30:	d806      	bhi.n	3b40 <prvProcessTimerOrBlockTask+0x3c>
    3b32:	f7fe f887 	bl	1c44 <xTaskResumeAll>
    3b36:	68f9      	ldr	r1, [r7, #12]
    3b38:	6878      	ldr	r0, [r7, #4]
    3b3a:	f7ff ff09 	bl	3950 <prvProcessExpiredTimer>
    3b3e:	e020      	b.n	3b82 <prvProcessTimerOrBlockTask+0x7e>
    3b40:	683b      	ldr	r3, [r7, #0]
    3b42:	2b00      	cmp	r3, #0
    3b44:	d008      	beq.n	3b58 <prvProcessTimerOrBlockTask+0x54>
    3b46:	4b11      	ldr	r3, [pc, #68]	; (3b8c <prvProcessTimerOrBlockTask+0x88>)
    3b48:	681b      	ldr	r3, [r3, #0]
    3b4a:	681b      	ldr	r3, [r3, #0]
    3b4c:	2b00      	cmp	r3, #0
    3b4e:	bf0c      	ite	eq
    3b50:	2301      	moveq	r3, #1
    3b52:	2300      	movne	r3, #0
    3b54:	b2db      	uxtb	r3, r3
    3b56:	603b      	str	r3, [r7, #0]
    3b58:	4b0d      	ldr	r3, [pc, #52]	; (3b90 <prvProcessTimerOrBlockTask+0x8c>)
    3b5a:	6818      	ldr	r0, [r3, #0]
    3b5c:	687a      	ldr	r2, [r7, #4]
    3b5e:	68fb      	ldr	r3, [r7, #12]
    3b60:	1ad3      	subs	r3, r2, r3
    3b62:	683a      	ldr	r2, [r7, #0]
    3b64:	4619      	mov	r1, r3
    3b66:	f7fd fb45 	bl	11f4 <vQueueWaitForMessageRestricted>
    3b6a:	f7fe f86b 	bl	1c44 <xTaskResumeAll>
    3b6e:	4603      	mov	r3, r0
    3b70:	2b00      	cmp	r3, #0
    3b72:	d106      	bne.n	3b82 <prvProcessTimerOrBlockTask+0x7e>
    3b74:	4b07      	ldr	r3, [pc, #28]	; (3b94 <prvProcessTimerOrBlockTask+0x90>)
    3b76:	f04f 5280 	mov.w	r2, #268435456	; 0x10000000
    3b7a:	601a      	str	r2, [r3, #0]
    3b7c:	e001      	b.n	3b82 <prvProcessTimerOrBlockTask+0x7e>
    3b7e:	f7fe f861 	bl	1c44 <xTaskResumeAll>
    3b82:	bf00      	nop
    3b84:	3710      	adds	r7, #16
    3b86:	46bd      	mov	sp, r7
    3b88:	bd80      	pop	{r7, pc}
    3b8a:	bf00      	nop
    3b8c:	10000184 	.word	0x10000184
    3b90:	10000188 	.word	0x10000188
    3b94:	e000ed04 	.word	0xe000ed04

Disassembly of section .text:

00003b98 <vMyInfotainmentTaskStart-0x4000>:
	...

00007b98 <vMyInfotainmentTaskStart>:
    7b98:	b5f0      	push	{r4, r5, r6, r7, lr}
    7b9a:	b085      	sub	sp, #20
    7b9c:	af04      	add	r7, sp, #16
    7b9e:	4b0e      	ldr	r3, [pc, #56]	; (7bd8 <vMyInfotainmentTaskStart+0x40>)
    7ba0:	6818      	ldr	r0, [r3, #0]
    7ba2:	4b0d      	ldr	r3, [pc, #52]	; (7bd8 <vMyInfotainmentTaskStart+0x40>)
    7ba4:	685c      	ldr	r4, [r3, #4]
    7ba6:	4b0c      	ldr	r3, [pc, #48]	; (7bd8 <vMyInfotainmentTaskStart+0x40>)
    7ba8:	891b      	ldrh	r3, [r3, #8]
    7baa:	b29d      	uxth	r5, r3
    7bac:	4b0a      	ldr	r3, [pc, #40]	; (7bd8 <vMyInfotainmentTaskStart+0x40>)
    7bae:	68de      	ldr	r6, [r3, #12]
    7bb0:	4b09      	ldr	r3, [pc, #36]	; (7bd8 <vMyInfotainmentTaskStart+0x40>)
    7bb2:	691b      	ldr	r3, [r3, #16]
    7bb4:	4a08      	ldr	r2, [pc, #32]	; (7bd8 <vMyInfotainmentTaskStart+0x40>)
    7bb6:	6952      	ldr	r2, [r2, #20]
    7bb8:	4908      	ldr	r1, [pc, #32]	; (7bdc <vMyInfotainmentTaskStart+0x44>)
    7bba:	9103      	str	r1, [sp, #12]
    7bbc:	9202      	str	r2, [sp, #8]
    7bbe:	4a08      	ldr	r2, [pc, #32]	; (7be0 <vMyInfotainmentTaskStart+0x48>)
    7bc0:	9201      	str	r2, [sp, #4]
    7bc2:	9300      	str	r3, [sp, #0]
    7bc4:	4633      	mov	r3, r6
    7bc6:	462a      	mov	r2, r5
    7bc8:	4621      	mov	r1, r4
    7bca:	f000 f94b 	bl	7e64 <MPU_xTaskGenericCreate>
    7bce:	bf00      	nop
    7bd0:	3704      	adds	r7, #4
    7bd2:	46bd      	mov	sp, r7
    7bd4:	bdf0      	pop	{r4, r5, r6, r7, pc}
    7bd6:	bf00      	nop
    7bd8:	10004c18 	.word	0x10004c18
    7bdc:	10004c30 	.word	0x10004c30
    7be0:	10000400 	.word	0x10000400

00007be4 <prvInfotainmentTask>:
    7be4:	b590      	push	{r4, r7, lr}
    7be6:	b089      	sub	sp, #36	; 0x24
    7be8:	af00      	add	r7, sp, #0
    7bea:	2300      	movs	r3, #0
    7bec:	61fb      	str	r3, [r7, #28]
    7bee:	2100      	movs	r1, #0
    7bf0:	484b      	ldr	r0, [pc, #300]	; (7d20 <prvInfotainmentTask+0x13c>)
    7bf2:	f000 faa3 	bl	813c <MPU_FreeRTOS_open>
    7bf6:	4603      	mov	r3, r0
    7bf8:	61fb      	str	r3, [r7, #28]
    7bfa:	69fb      	ldr	r3, [r7, #28]
    7bfc:	2b00      	cmp	r3, #0
    7bfe:	d104      	bne.n	7c0a <prvInfotainmentTask+0x26>
    7c00:	f04f 0028 	mov.w	r0, #40	; 0x28
    7c04:	f380 8811 	msr	BASEPRI, r0
    7c08:	e7fe      	b.n	7c08 <prvInfotainmentTask+0x24>
    7c0a:	4a46      	ldr	r2, [pc, #280]	; (7d24 <prvInfotainmentTask+0x140>)
    7c0c:	69fb      	ldr	r3, [r7, #28]
    7c0e:	6013      	str	r3, [r2, #0]
    7c10:	f3ef 8014 	mrs	r0, CONTROL
    7c14:	f040 0001 	orr.w	r0, r0, #1
    7c18:	f380 8814 	msr	CONTROL, r0
    7c1c:	2232      	movs	r2, #50	; 0x32
    7c1e:	2103      	movs	r1, #3
    7c20:	69f8      	ldr	r0, [r7, #28]
    7c22:	f000 faa7 	bl	8174 <MPU_FreeRTOS_ioctl>
    7c26:	61b8      	str	r0, [r7, #24]
    7c28:	69bb      	ldr	r3, [r7, #24]
    7c2a:	2b00      	cmp	r3, #0
    7c2c:	d104      	bne.n	7c38 <prvInfotainmentTask+0x54>
    7c2e:	f04f 0028 	mov.w	r0, #40	; 0x28
    7c32:	f380 8811 	msr	BASEPRI, r0
    7c36:	e7fe      	b.n	7c36 <prvInfotainmentTask+0x52>
    7c38:	2232      	movs	r2, #50	; 0x32
    7c3a:	2104      	movs	r1, #4
    7c3c:	69f8      	ldr	r0, [r7, #28]
    7c3e:	f000 fa99 	bl	8174 <MPU_FreeRTOS_ioctl>
    7c42:	61b8      	str	r0, [r7, #24]
    7c44:	69bb      	ldr	r3, [r7, #24]
    7c46:	2b00      	cmp	r3, #0
    7c48:	d104      	bne.n	7c54 <prvInfotainmentTask+0x70>
    7c4a:	f04f 0028 	mov.w	r0, #40	; 0x28
    7c4e:	f380 8811 	msr	BASEPRI, r0
    7c52:	e7fe      	b.n	7c52 <prvInfotainmentTask+0x6e>
    7c54:	221e      	movs	r2, #30
    7c56:	2166      	movs	r1, #102	; 0x66
    7c58:	69f8      	ldr	r0, [r7, #28]
    7c5a:	f000 fa8b 	bl	8174 <MPU_FreeRTOS_ioctl>
    7c5e:	61b8      	str	r0, [r7, #24]
    7c60:	69bb      	ldr	r3, [r7, #24]
    7c62:	2b00      	cmp	r3, #0
    7c64:	d104      	bne.n	7c70 <prvInfotainmentTask+0x8c>
    7c66:	f04f 0028 	mov.w	r0, #40	; 0x28
    7c6a:	f380 8811 	msr	BASEPRI, r0
    7c6e:	e7fe      	b.n	7c6e <prvInfotainmentTask+0x8a>
    7c70:	2237      	movs	r2, #55	; 0x37
    7c72:	492d      	ldr	r1, [pc, #180]	; (7d28 <prvInfotainmentTask+0x144>)
    7c74:	69f8      	ldr	r0, [r7, #28]
    7c76:	f000 fa9b 	bl	81b0 <MPU_FreeRTOS_write>
    7c7a:	4c2c      	ldr	r4, [pc, #176]	; (7d2c <prvInfotainmentTask+0x148>)
    7c7c:	4b2b      	ldr	r3, [pc, #172]	; (7d2c <prvInfotainmentTask+0x148>)
    7c7e:	4618      	mov	r0, r3
    7c80:	f006 f901 	bl	de86 <strlen>
    7c84:	4603      	mov	r3, r0
    7c86:	461a      	mov	r2, r3
    7c88:	4621      	mov	r1, r4
    7c8a:	69f8      	ldr	r0, [r7, #28]
    7c8c:	f000 fa90 	bl	81b0 <MPU_FreeRTOS_write>
    7c90:	2237      	movs	r2, #55	; 0x37
    7c92:	4927      	ldr	r1, [pc, #156]	; (7d30 <prvInfotainmentTask+0x14c>)
    7c94:	69f8      	ldr	r0, [r7, #28]
    7c96:	f000 fa8b 	bl	81b0 <MPU_FreeRTOS_write>
    7c9a:	220c      	movs	r2, #12
    7c9c:	4925      	ldr	r1, [pc, #148]	; (7d34 <prvInfotainmentTask+0x150>)
    7c9e:	69f8      	ldr	r0, [r7, #28]
    7ca0:	f000 fa86 	bl	81b0 <MPU_FreeRTOS_write>
    7ca4:	220c      	movs	r2, #12
    7ca6:	4924      	ldr	r1, [pc, #144]	; (7d38 <prvInfotainmentTask+0x154>)
    7ca8:	69f8      	ldr	r0, [r7, #28]
    7caa:	f000 fa81 	bl	81b0 <MPU_FreeRTOS_write>
    7cae:	220c      	movs	r2, #12
    7cb0:	4922      	ldr	r1, [pc, #136]	; (7d3c <prvInfotainmentTask+0x158>)
    7cb2:	69f8      	ldr	r0, [r7, #28]
    7cb4:	f000 fa7c 	bl	81b0 <MPU_FreeRTOS_write>
    7cb8:	220c      	movs	r2, #12
    7cba:	4921      	ldr	r1, [pc, #132]	; (7d40 <prvInfotainmentTask+0x15c>)
    7cbc:	69f8      	ldr	r0, [r7, #28]
    7cbe:	f000 fa77 	bl	81b0 <MPU_FreeRTOS_write>
    7cc2:	220c      	movs	r2, #12
    7cc4:	491f      	ldr	r1, [pc, #124]	; (7d44 <prvInfotainmentTask+0x160>)
    7cc6:	69f8      	ldr	r0, [r7, #28]
    7cc8:	f000 fa72 	bl	81b0 <MPU_FreeRTOS_write>
    7ccc:	220c      	movs	r2, #12
    7cce:	491e      	ldr	r1, [pc, #120]	; (7d48 <prvInfotainmentTask+0x164>)
    7cd0:	69f8      	ldr	r0, [r7, #28]
    7cd2:	f000 fa6d 	bl	81b0 <MPU_FreeRTOS_write>
    7cd6:	220c      	movs	r2, #12
    7cd8:	491c      	ldr	r1, [pc, #112]	; (7d4c <prvInfotainmentTask+0x168>)
    7cda:	69f8      	ldr	r0, [r7, #28]
    7cdc:	f000 fa68 	bl	81b0 <MPU_FreeRTOS_write>
    7ce0:	220c      	movs	r2, #12
    7ce2:	491b      	ldr	r1, [pc, #108]	; (7d50 <prvInfotainmentTask+0x16c>)
    7ce4:	69f8      	ldr	r0, [r7, #28]
    7ce6:	f000 fa63 	bl	81b0 <MPU_FreeRTOS_write>
    7cea:	220c      	movs	r2, #12
    7cec:	4919      	ldr	r1, [pc, #100]	; (7d54 <prvInfotainmentTask+0x170>)
    7cee:	69f8      	ldr	r0, [r7, #28]
    7cf0:	f000 fa5e 	bl	81b0 <MPU_FreeRTOS_write>
    7cf4:	220c      	movs	r2, #12
    7cf6:	4918      	ldr	r1, [pc, #96]	; (7d58 <prvInfotainmentTask+0x174>)
    7cf8:	69f8      	ldr	r0, [r7, #28]
    7cfa:	f000 fa59 	bl	81b0 <MPU_FreeRTOS_write>
    7cfe:	220c      	movs	r2, #12
    7d00:	4916      	ldr	r1, [pc, #88]	; (7d5c <prvInfotainmentTask+0x178>)
    7d02:	69f8      	ldr	r0, [r7, #28]
    7d04:	f000 fa54 	bl	81b0 <MPU_FreeRTOS_write>
    7d08:	220c      	movs	r2, #12
    7d0a:	4915      	ldr	r1, [pc, #84]	; (7d60 <prvInfotainmentTask+0x17c>)
    7d0c:	69f8      	ldr	r0, [r7, #28]
    7d0e:	f000 fa4f 	bl	81b0 <MPU_FreeRTOS_write>
    7d12:	2210      	movs	r2, #16
    7d14:	4913      	ldr	r1, [pc, #76]	; (7d64 <prvInfotainmentTask+0x180>)
    7d16:	69f8      	ldr	r0, [r7, #28]
    7d18:	f000 fa4a 	bl	81b0 <MPU_FreeRTOS_write>
    7d1c:	e7fe      	b.n	7d1c <prvInfotainmentTask+0x138>
    7d1e:	bf00      	nop
    7d20:	0000e4e0 	.word	0x0000e4e0
    7d24:	10000404 	.word	0x10000404
    7d28:	0000e4e8 	.word	0x0000e4e8
    7d2c:	0000e4c0 	.word	0x0000e4c0
    7d30:	0000e52c 	.word	0x0000e52c
    7d34:	0000e570 	.word	0x0000e570
    7d38:	0000e57c 	.word	0x0000e57c
    7d3c:	0000e588 	.word	0x0000e588
    7d40:	0000e594 	.word	0x0000e594
    7d44:	0000e5a0 	.word	0x0000e5a0
    7d48:	0000e5ac 	.word	0x0000e5ac
    7d4c:	0000e5b8 	.word	0x0000e5b8
    7d50:	0000e5c4 	.word	0x0000e5c4
    7d54:	0000e5d0 	.word	0x0000e5d0
    7d58:	0000e5dc 	.word	0x0000e5dc
    7d5c:	0000e5e8 	.word	0x0000e5e8
    7d60:	0000e5f4 	.word	0x0000e5f4
    7d64:	0000e600 	.word	0x0000e600

00007d68 <prvHeapInit>:
    7d68:	b480      	push	{r7}
    7d6a:	b083      	sub	sp, #12
    7d6c:	af00      	add	r7, sp, #0
    7d6e:	4b0f      	ldr	r3, [pc, #60]	; (7dac <prvHeapInit+0x44>)
    7d70:	f023 0307 	bic.w	r3, r3, #7
    7d74:	607b      	str	r3, [r7, #4]
    7d76:	4a0e      	ldr	r2, [pc, #56]	; (7db0 <prvHeapInit+0x48>)
    7d78:	687b      	ldr	r3, [r7, #4]
    7d7a:	6013      	str	r3, [r2, #0]
    7d7c:	4b0c      	ldr	r3, [pc, #48]	; (7db0 <prvHeapInit+0x48>)
    7d7e:	2200      	movs	r2, #0
    7d80:	605a      	str	r2, [r3, #4]
    7d82:	4b0c      	ldr	r3, [pc, #48]	; (7db4 <prvHeapInit+0x4c>)
    7d84:	f643 32f8 	movw	r2, #15352	; 0x3bf8
    7d88:	605a      	str	r2, [r3, #4]
    7d8a:	4b0a      	ldr	r3, [pc, #40]	; (7db4 <prvHeapInit+0x4c>)
    7d8c:	2200      	movs	r2, #0
    7d8e:	601a      	str	r2, [r3, #0]
    7d90:	687b      	ldr	r3, [r7, #4]
    7d92:	603b      	str	r3, [r7, #0]
    7d94:	683b      	ldr	r3, [r7, #0]
    7d96:	f643 32f8 	movw	r2, #15352	; 0x3bf8
    7d9a:	605a      	str	r2, [r3, #4]
    7d9c:	683b      	ldr	r3, [r7, #0]
    7d9e:	4a05      	ldr	r2, [pc, #20]	; (7db4 <prvHeapInit+0x4c>)
    7da0:	601a      	str	r2, [r3, #0]
    7da2:	bf00      	nop
    7da4:	370c      	adds	r7, #12
    7da6:	46bd      	mov	sp, r7
    7da8:	bc80      	pop	{r7}
    7daa:	4770      	bx	lr
    7dac:	10000410 	.word	0x10000410
    7db0:	10004008 	.word	0x10004008
    7db4:	10004010 	.word	0x10004010

00007db8 <vPortEnterCritical>:
    7db8:	b580      	push	{r7, lr}
    7dba:	b082      	sub	sp, #8
    7dbc:	af00      	add	r7, sp, #0
    7dbe:	f000 f845 	bl	7e4c <prvRaisePrivilege>
    7dc2:	6078      	str	r0, [r7, #4]
    7dc4:	f04f 0028 	mov.w	r0, #40	; 0x28
    7dc8:	f380 8811 	msr	BASEPRI, r0
    7dcc:	4b08      	ldr	r3, [pc, #32]	; (7df0 <vPortEnterCritical+0x38>)
    7dce:	681b      	ldr	r3, [r3, #0]
    7dd0:	3301      	adds	r3, #1
    7dd2:	4a07      	ldr	r2, [pc, #28]	; (7df0 <vPortEnterCritical+0x38>)
    7dd4:	6013      	str	r3, [r2, #0]
    7dd6:	687b      	ldr	r3, [r7, #4]
    7dd8:	2b01      	cmp	r3, #1
    7dda:	d005      	beq.n	7de8 <vPortEnterCritical+0x30>
    7ddc:	f3ef 8014 	mrs	r0, CONTROL
    7de0:	f040 0001 	orr.w	r0, r0, #1
    7de4:	f380 8814 	msr	CONTROL, r0
    7de8:	bf00      	nop
    7dea:	3708      	adds	r7, #8
    7dec:	46bd      	mov	sp, r7
    7dee:	bd80      	pop	{r7, pc}
    7df0:	10004c58 	.word	0x10004c58

00007df4 <vPortExitCritical>:
    7df4:	b580      	push	{r7, lr}
    7df6:	b082      	sub	sp, #8
    7df8:	af00      	add	r7, sp, #0
    7dfa:	f000 f827 	bl	7e4c <prvRaisePrivilege>
    7dfe:	6078      	str	r0, [r7, #4]
    7e00:	4b11      	ldr	r3, [pc, #68]	; (7e48 <vPortExitCritical+0x54>)
    7e02:	681b      	ldr	r3, [r3, #0]
    7e04:	2b00      	cmp	r3, #0
    7e06:	d104      	bne.n	7e12 <vPortExitCritical+0x1e>
    7e08:	f04f 0028 	mov.w	r0, #40	; 0x28
    7e0c:	f380 8811 	msr	BASEPRI, r0
    7e10:	e7fe      	b.n	7e10 <vPortExitCritical+0x1c>
    7e12:	4b0d      	ldr	r3, [pc, #52]	; (7e48 <vPortExitCritical+0x54>)
    7e14:	681b      	ldr	r3, [r3, #0]
    7e16:	3b01      	subs	r3, #1
    7e18:	4a0b      	ldr	r2, [pc, #44]	; (7e48 <vPortExitCritical+0x54>)
    7e1a:	6013      	str	r3, [r2, #0]
    7e1c:	4b0a      	ldr	r3, [pc, #40]	; (7e48 <vPortExitCritical+0x54>)
    7e1e:	681b      	ldr	r3, [r3, #0]
    7e20:	2b00      	cmp	r3, #0
    7e22:	d103      	bne.n	7e2c <vPortExitCritical+0x38>
    7e24:	f04f 0000 	mov.w	r0, #0
    7e28:	f380 8811 	msr	BASEPRI, r0
    7e2c:	687b      	ldr	r3, [r7, #4]
    7e2e:	2b01      	cmp	r3, #1
    7e30:	d005      	beq.n	7e3e <vPortExitCritical+0x4a>
    7e32:	f3ef 8014 	mrs	r0, CONTROL
    7e36:	f040 0001 	orr.w	r0, r0, #1
    7e3a:	f380 8814 	msr	CONTROL, r0
    7e3e:	bf00      	nop
    7e40:	3708      	adds	r7, #8
    7e42:	46bd      	mov	sp, r7
    7e44:	bd80      	pop	{r7, pc}
    7e46:	bf00      	nop
    7e48:	10004c58 	.word	0x10004c58

00007e4c <prvRaisePrivilege>:
    7e4c:	f3ef 8014 	mrs	r0, CONTROL
    7e50:	f010 0f01 	tst.w	r0, #1
    7e54:	bf1a      	itte	ne
    7e56:	2000      	movne	r0, #0
    7e58:	df02      	svcne	2
    7e5a:	2001      	moveq	r0, #1
    7e5c:	4770      	bx	lr
    7e5e:	2300      	movs	r3, #0
    7e60:	4618      	mov	r0, r3
    7e62:	bf00      	nop

00007e64 <MPU_xTaskGenericCreate>:
    7e64:	b580      	push	{r7, lr}
    7e66:	b08a      	sub	sp, #40	; 0x28
    7e68:	af04      	add	r7, sp, #16
    7e6a:	60f8      	str	r0, [r7, #12]
    7e6c:	60b9      	str	r1, [r7, #8]
    7e6e:	603b      	str	r3, [r7, #0]
    7e70:	4613      	mov	r3, r2
    7e72:	80fb      	strh	r3, [r7, #6]
    7e74:	f7ff ffea 	bl	7e4c <prvRaisePrivilege>
    7e78:	6178      	str	r0, [r7, #20]
    7e7a:	88fa      	ldrh	r2, [r7, #6]
    7e7c:	6afb      	ldr	r3, [r7, #44]	; 0x2c
    7e7e:	9303      	str	r3, [sp, #12]
    7e80:	6abb      	ldr	r3, [r7, #40]	; 0x28
    7e82:	9302      	str	r3, [sp, #8]
    7e84:	6a7b      	ldr	r3, [r7, #36]	; 0x24
    7e86:	9301      	str	r3, [sp, #4]
    7e88:	6a3b      	ldr	r3, [r7, #32]
    7e8a:	9300      	str	r3, [sp, #0]
    7e8c:	683b      	ldr	r3, [r7, #0]
    7e8e:	68b9      	ldr	r1, [r7, #8]
    7e90:	68f8      	ldr	r0, [r7, #12]
    7e92:	f7fa ffdd 	bl	2e50 <xTaskGenericCreate>
    7e96:	6138      	str	r0, [r7, #16]
    7e98:	697b      	ldr	r3, [r7, #20]
    7e9a:	2b01      	cmp	r3, #1
    7e9c:	d005      	beq.n	7eaa <MPU_xTaskGenericCreate+0x46>
    7e9e:	f3ef 8014 	mrs	r0, CONTROL
    7ea2:	f040 0001 	orr.w	r0, r0, #1
    7ea6:	f380 8814 	msr	CONTROL, r0
    7eaa:	693b      	ldr	r3, [r7, #16]
    7eac:	4618      	mov	r0, r3
    7eae:	3718      	adds	r7, #24
    7eb0:	46bd      	mov	sp, r7
    7eb2:	bd80      	pop	{r7, pc}

00007eb4 <MPU_vTaskDelay>:
    7eb4:	b580      	push	{r7, lr}
    7eb6:	b084      	sub	sp, #16
    7eb8:	af00      	add	r7, sp, #0
    7eba:	6078      	str	r0, [r7, #4]
    7ebc:	f7ff ffc6 	bl	7e4c <prvRaisePrivilege>
    7ec0:	60f8      	str	r0, [r7, #12]
    7ec2:	6878      	ldr	r0, [r7, #4]
    7ec4:	f7f9 fbcc 	bl	1660 <vTaskDelay>
    7ec8:	68fb      	ldr	r3, [r7, #12]
    7eca:	2b01      	cmp	r3, #1
    7ecc:	d005      	beq.n	7eda <MPU_vTaskDelay+0x26>
    7ece:	f3ef 8014 	mrs	r0, CONTROL
    7ed2:	f040 0001 	orr.w	r0, r0, #1
    7ed6:	f380 8814 	msr	CONTROL, r0
    7eda:	bf00      	nop
    7edc:	3710      	adds	r7, #16
    7ede:	46bd      	mov	sp, r7
    7ee0:	bd80      	pop	{r7, pc}
    7ee2:	bf00      	nop

00007ee4 <MPU_xTaskGetTickCount>:
    7ee4:	b580      	push	{r7, lr}
    7ee6:	b082      	sub	sp, #8
    7ee8:	af00      	add	r7, sp, #0
    7eea:	f7ff ffaf 	bl	7e4c <prvRaisePrivilege>
    7eee:	6078      	str	r0, [r7, #4]
    7ef0:	f7f9 ff34 	bl	1d5c <xTaskGetTickCount>
    7ef4:	6038      	str	r0, [r7, #0]
    7ef6:	687b      	ldr	r3, [r7, #4]
    7ef8:	2b01      	cmp	r3, #1
    7efa:	d005      	beq.n	7f08 <MPU_xTaskGetTickCount+0x24>
    7efc:	f3ef 8014 	mrs	r0, CONTROL
    7f00:	f040 0001 	orr.w	r0, r0, #1
    7f04:	f380 8814 	msr	CONTROL, r0
    7f08:	683b      	ldr	r3, [r7, #0]
    7f0a:	4618      	mov	r0, r3
    7f0c:	3708      	adds	r7, #8
    7f0e:	46bd      	mov	sp, r7
    7f10:	bd80      	pop	{r7, pc}
    7f12:	bf00      	nop

00007f14 <MPU_xQueueGenericCreate>:
    7f14:	b580      	push	{r7, lr}
    7f16:	b086      	sub	sp, #24
    7f18:	af00      	add	r7, sp, #0
    7f1a:	60f8      	str	r0, [r7, #12]
    7f1c:	60b9      	str	r1, [r7, #8]
    7f1e:	4613      	mov	r3, r2
    7f20:	71fb      	strb	r3, [r7, #7]
    7f22:	f7ff ff93 	bl	7e4c <prvRaisePrivilege>
    7f26:	6178      	str	r0, [r7, #20]
    7f28:	79fb      	ldrb	r3, [r7, #7]
    7f2a:	461a      	mov	r2, r3
    7f2c:	68b9      	ldr	r1, [r7, #8]
    7f2e:	68f8      	ldr	r0, [r7, #12]
    7f30:	f7f9 f910 	bl	1154 <xQueueGenericCreate>
    7f34:	6138      	str	r0, [r7, #16]
    7f36:	697b      	ldr	r3, [r7, #20]
    7f38:	2b01      	cmp	r3, #1
    7f3a:	d005      	beq.n	7f48 <MPU_xQueueGenericCreate+0x34>
    7f3c:	f3ef 8014 	mrs	r0, CONTROL
    7f40:	f040 0001 	orr.w	r0, r0, #1
    7f44:	f380 8814 	msr	CONTROL, r0
    7f48:	693b      	ldr	r3, [r7, #16]
    7f4a:	4618      	mov	r0, r3
    7f4c:	3718      	adds	r7, #24
    7f4e:	46bd      	mov	sp, r7
    7f50:	bd80      	pop	{r7, pc}
    7f52:	bf00      	nop

00007f54 <MPU_xQueueGenericReset>:
    7f54:	b580      	push	{r7, lr}
    7f56:	b084      	sub	sp, #16
    7f58:	af00      	add	r7, sp, #0
    7f5a:	6078      	str	r0, [r7, #4]
    7f5c:	6039      	str	r1, [r7, #0]
    7f5e:	f7ff ff75 	bl	7e4c <prvRaisePrivilege>
    7f62:	60f8      	str	r0, [r7, #12]
    7f64:	6839      	ldr	r1, [r7, #0]
    7f66:	6878      	ldr	r0, [r7, #4]
    7f68:	f7f9 f972 	bl	1250 <xQueueGenericReset>
    7f6c:	60b8      	str	r0, [r7, #8]
    7f6e:	68fb      	ldr	r3, [r7, #12]
    7f70:	2b01      	cmp	r3, #1
    7f72:	d005      	beq.n	7f80 <MPU_xQueueGenericReset+0x2c>
    7f74:	f3ef 8014 	mrs	r0, CONTROL
    7f78:	f040 0001 	orr.w	r0, r0, #1
    7f7c:	f380 8814 	msr	CONTROL, r0
    7f80:	68bb      	ldr	r3, [r7, #8]
    7f82:	4618      	mov	r0, r3
    7f84:	3710      	adds	r7, #16
    7f86:	46bd      	mov	sp, r7
    7f88:	bd80      	pop	{r7, pc}
    7f8a:	bf00      	nop

00007f8c <MPU_xQueueGenericSend>:
    7f8c:	b580      	push	{r7, lr}
    7f8e:	b086      	sub	sp, #24
    7f90:	af00      	add	r7, sp, #0
    7f92:	60f8      	str	r0, [r7, #12]
    7f94:	60b9      	str	r1, [r7, #8]
    7f96:	607a      	str	r2, [r7, #4]
    7f98:	603b      	str	r3, [r7, #0]
    7f9a:	f7ff ff57 	bl	7e4c <prvRaisePrivilege>
    7f9e:	6178      	str	r0, [r7, #20]
    7fa0:	683b      	ldr	r3, [r7, #0]
    7fa2:	687a      	ldr	r2, [r7, #4]
    7fa4:	68b9      	ldr	r1, [r7, #8]
    7fa6:	68f8      	ldr	r0, [r7, #12]
    7fa8:	f7f8 fbd2 	bl	750 <xQueueGenericSend>
    7fac:	6138      	str	r0, [r7, #16]
    7fae:	697b      	ldr	r3, [r7, #20]
    7fb0:	2b01      	cmp	r3, #1
    7fb2:	d005      	beq.n	7fc0 <MPU_xQueueGenericSend+0x34>
    7fb4:	f3ef 8014 	mrs	r0, CONTROL
    7fb8:	f040 0001 	orr.w	r0, r0, #1
    7fbc:	f380 8814 	msr	CONTROL, r0
    7fc0:	693b      	ldr	r3, [r7, #16]
    7fc2:	4618      	mov	r0, r3
    7fc4:	3718      	adds	r7, #24
    7fc6:	46bd      	mov	sp, r7
    7fc8:	bd80      	pop	{r7, pc}
    7fca:	bf00      	nop

00007fcc <MPU_uxQueueMessagesWaiting>:
    7fcc:	b580      	push	{r7, lr}
    7fce:	b084      	sub	sp, #16
    7fd0:	af00      	add	r7, sp, #0
    7fd2:	6078      	str	r0, [r7, #4]
    7fd4:	f7ff ff3a 	bl	7e4c <prvRaisePrivilege>
    7fd8:	60f8      	str	r0, [r7, #12]
    7fda:	6878      	ldr	r0, [r7, #4]
    7fdc:	f7f8 fdc2 	bl	b64 <uxQueueMessagesWaiting>
    7fe0:	60b8      	str	r0, [r7, #8]
    7fe2:	68fb      	ldr	r3, [r7, #12]
    7fe4:	2b01      	cmp	r3, #1
    7fe6:	d005      	beq.n	7ff4 <MPU_uxQueueMessagesWaiting+0x28>
    7fe8:	f3ef 8014 	mrs	r0, CONTROL
    7fec:	f040 0001 	orr.w	r0, r0, #1
    7ff0:	f380 8814 	msr	CONTROL, r0
    7ff4:	68bb      	ldr	r3, [r7, #8]
    7ff6:	4618      	mov	r0, r3
    7ff8:	3710      	adds	r7, #16
    7ffa:	46bd      	mov	sp, r7
    7ffc:	bd80      	pop	{r7, pc}
    7ffe:	bf00      	nop

00008000 <MPU_xQueueGenericReceive>:
    8000:	b580      	push	{r7, lr}
    8002:	b086      	sub	sp, #24
    8004:	af00      	add	r7, sp, #0
    8006:	60f8      	str	r0, [r7, #12]
    8008:	60b9      	str	r1, [r7, #8]
    800a:	607a      	str	r2, [r7, #4]
    800c:	603b      	str	r3, [r7, #0]
    800e:	f7ff ff1d 	bl	7e4c <prvRaisePrivilege>
    8012:	6178      	str	r0, [r7, #20]
    8014:	683b      	ldr	r3, [r7, #0]
    8016:	687a      	ldr	r2, [r7, #4]
    8018:	68b9      	ldr	r1, [r7, #8]
    801a:	68f8      	ldr	r0, [r7, #12]
    801c:	f7f8 fcb8 	bl	990 <xQueueGenericReceive>
    8020:	6138      	str	r0, [r7, #16]
    8022:	697b      	ldr	r3, [r7, #20]
    8024:	2b01      	cmp	r3, #1
    8026:	d005      	beq.n	8034 <MPU_xQueueGenericReceive+0x34>
    8028:	f3ef 8014 	mrs	r0, CONTROL
    802c:	f040 0001 	orr.w	r0, r0, #1
    8030:	f380 8814 	msr	CONTROL, r0
    8034:	693b      	ldr	r3, [r7, #16]
    8036:	4618      	mov	r0, r3
    8038:	3718      	adds	r7, #24
    803a:	46bd      	mov	sp, r7
    803c:	bd80      	pop	{r7, pc}
    803e:	bf00      	nop

00008040 <MPU_xQueueCreateMutex>:
    8040:	b580      	push	{r7, lr}
    8042:	b082      	sub	sp, #8
    8044:	af00      	add	r7, sp, #0
    8046:	f7ff ff01 	bl	7e4c <prvRaisePrivilege>
    804a:	6078      	str	r0, [r7, #4]
    804c:	2001      	movs	r0, #1
    804e:	f7f8 ff4d 	bl	eec <xQueueCreateMutex>
    8052:	6038      	str	r0, [r7, #0]
    8054:	687b      	ldr	r3, [r7, #4]
    8056:	2b01      	cmp	r3, #1
    8058:	d005      	beq.n	8066 <MPU_xQueueCreateMutex+0x26>
    805a:	f3ef 8014 	mrs	r0, CONTROL
    805e:	f040 0001 	orr.w	r0, r0, #1
    8062:	f380 8814 	msr	CONTROL, r0
    8066:	683b      	ldr	r3, [r7, #0]
    8068:	4618      	mov	r0, r3
    806a:	3708      	adds	r7, #8
    806c:	46bd      	mov	sp, r7
    806e:	bd80      	pop	{r7, pc}

00008070 <MPU_xQueueCreateCountingSemaphore>:
    8070:	b580      	push	{r7, lr}
    8072:	b084      	sub	sp, #16
    8074:	af00      	add	r7, sp, #0
    8076:	6078      	str	r0, [r7, #4]
    8078:	6039      	str	r1, [r7, #0]
    807a:	f7ff fee7 	bl	7e4c <prvRaisePrivilege>
    807e:	60f8      	str	r0, [r7, #12]
    8080:	6839      	ldr	r1, [r7, #0]
    8082:	6878      	ldr	r0, [r7, #4]
    8084:	f7f8 ff74 	bl	f70 <xQueueCreateCountingSemaphore>
    8088:	60b8      	str	r0, [r7, #8]
    808a:	68fb      	ldr	r3, [r7, #12]
    808c:	2b01      	cmp	r3, #1
    808e:	d005      	beq.n	809c <MPU_xQueueCreateCountingSemaphore+0x2c>
    8090:	f3ef 8014 	mrs	r0, CONTROL
    8094:	f040 0001 	orr.w	r0, r0, #1
    8098:	f380 8814 	msr	CONTROL, r0
    809c:	68bb      	ldr	r3, [r7, #8]
    809e:	4618      	mov	r0, r3
    80a0:	3710      	adds	r7, #16
    80a2:	46bd      	mov	sp, r7
    80a4:	bd80      	pop	{r7, pc}
    80a6:	bf00      	nop

000080a8 <MPU_vQueueDelete>:
    80a8:	b580      	push	{r7, lr}
    80aa:	b084      	sub	sp, #16
    80ac:	af00      	add	r7, sp, #0
    80ae:	6078      	str	r0, [r7, #4]
    80b0:	f7ff fecc 	bl	7e4c <prvRaisePrivilege>
    80b4:	60f8      	str	r0, [r7, #12]
    80b6:	6878      	ldr	r0, [r7, #4]
    80b8:	f7f8 fd8a 	bl	bd0 <vQueueDelete>
    80bc:	68fb      	ldr	r3, [r7, #12]
    80be:	2b01      	cmp	r3, #1
    80c0:	d005      	beq.n	80ce <MPU_vQueueDelete+0x26>
    80c2:	f3ef 8014 	mrs	r0, CONTROL
    80c6:	f040 0001 	orr.w	r0, r0, #1
    80ca:	f380 8814 	msr	CONTROL, r0
    80ce:	bf00      	nop
    80d0:	3710      	adds	r7, #16
    80d2:	46bd      	mov	sp, r7
    80d4:	bd80      	pop	{r7, pc}
    80d6:	bf00      	nop

000080d8 <MPU_pvPortMalloc>:
    80d8:	b580      	push	{r7, lr}
    80da:	b084      	sub	sp, #16
    80dc:	af00      	add	r7, sp, #0
    80de:	6078      	str	r0, [r7, #4]
    80e0:	f7ff feb4 	bl	7e4c <prvRaisePrivilege>
    80e4:	60f8      	str	r0, [r7, #12]
    80e6:	6878      	ldr	r0, [r7, #4]
    80e8:	f7f7 fff0 	bl	cc <pvPortMalloc>
    80ec:	60b8      	str	r0, [r7, #8]
    80ee:	68fb      	ldr	r3, [r7, #12]
    80f0:	2b01      	cmp	r3, #1
    80f2:	d005      	beq.n	8100 <MPU_pvPortMalloc+0x28>
    80f4:	f3ef 8014 	mrs	r0, CONTROL
    80f8:	f040 0001 	orr.w	r0, r0, #1
    80fc:	f380 8814 	msr	CONTROL, r0
    8100:	68bb      	ldr	r3, [r7, #8]
    8102:	4618      	mov	r0, r3
    8104:	3710      	adds	r7, #16
    8106:	46bd      	mov	sp, r7
    8108:	bd80      	pop	{r7, pc}
    810a:	bf00      	nop

0000810c <MPU_vPortFree>:
    810c:	b580      	push	{r7, lr}
    810e:	b084      	sub	sp, #16
    8110:	af00      	add	r7, sp, #0
    8112:	6078      	str	r0, [r7, #4]
    8114:	f7ff fe9a 	bl	7e4c <prvRaisePrivilege>
    8118:	60f8      	str	r0, [r7, #12]
    811a:	6878      	ldr	r0, [r7, #4]
    811c:	f7f8 f868 	bl	1f0 <vPortFree>
    8120:	68fb      	ldr	r3, [r7, #12]
    8122:	2b01      	cmp	r3, #1
    8124:	d005      	beq.n	8132 <MPU_vPortFree+0x26>
    8126:	f3ef 8014 	mrs	r0, CONTROL
    812a:	f040 0001 	orr.w	r0, r0, #1
    812e:	f380 8814 	msr	CONTROL, r0
    8132:	bf00      	nop
    8134:	3710      	adds	r7, #16
    8136:	46bd      	mov	sp, r7
    8138:	bd80      	pop	{r7, pc}
    813a:	bf00      	nop

0000813c <MPU_FreeRTOS_open>:
    813c:	b580      	push	{r7, lr}
    813e:	b084      	sub	sp, #16
    8140:	af00      	add	r7, sp, #0
    8142:	6078      	str	r0, [r7, #4]
    8144:	6039      	str	r1, [r7, #0]
    8146:	f7ff fe81 	bl	7e4c <prvRaisePrivilege>
    814a:	60f8      	str	r0, [r7, #12]
    814c:	6839      	ldr	r1, [r7, #0]
    814e:	6878      	ldr	r0, [r7, #4]
    8150:	f001 ff46 	bl	9fe0 <FreeRTOS_open>
    8154:	60b8      	str	r0, [r7, #8]
    8156:	68fb      	ldr	r3, [r7, #12]
    8158:	2b01      	cmp	r3, #1
    815a:	d005      	beq.n	8168 <MPU_FreeRTOS_open+0x2c>
    815c:	f3ef 8014 	mrs	r0, CONTROL
    8160:	f040 0001 	orr.w	r0, r0, #1
    8164:	f380 8814 	msr	CONTROL, r0
    8168:	68bb      	ldr	r3, [r7, #8]
    816a:	4618      	mov	r0, r3
    816c:	3710      	adds	r7, #16
    816e:	46bd      	mov	sp, r7
    8170:	bd80      	pop	{r7, pc}
    8172:	bf00      	nop

00008174 <MPU_FreeRTOS_ioctl>:
    8174:	b580      	push	{r7, lr}
    8176:	b086      	sub	sp, #24
    8178:	af00      	add	r7, sp, #0
    817a:	60f8      	str	r0, [r7, #12]
    817c:	60b9      	str	r1, [r7, #8]
    817e:	607a      	str	r2, [r7, #4]
    8180:	f7ff fe64 	bl	7e4c <prvRaisePrivilege>
    8184:	6178      	str	r0, [r7, #20]
    8186:	687a      	ldr	r2, [r7, #4]
    8188:	68b9      	ldr	r1, [r7, #8]
    818a:	68f8      	ldr	r0, [r7, #12]
    818c:	f001 ffac 	bl	a0e8 <FreeRTOS_ioctl>
    8190:	6138      	str	r0, [r7, #16]
    8192:	697b      	ldr	r3, [r7, #20]
    8194:	2b01      	cmp	r3, #1
    8196:	d005      	beq.n	81a4 <MPU_FreeRTOS_ioctl+0x30>
    8198:	f3ef 8014 	mrs	r0, CONTROL
    819c:	f040 0001 	orr.w	r0, r0, #1
    81a0:	f380 8814 	msr	CONTROL, r0
    81a4:	693b      	ldr	r3, [r7, #16]
    81a6:	4618      	mov	r0, r3
    81a8:	3718      	adds	r7, #24
    81aa:	46bd      	mov	sp, r7
    81ac:	bd80      	pop	{r7, pc}
    81ae:	bf00      	nop

000081b0 <MPU_FreeRTOS_write>:
    81b0:	b580      	push	{r7, lr}
    81b2:	b086      	sub	sp, #24
    81b4:	af00      	add	r7, sp, #0
    81b6:	60f8      	str	r0, [r7, #12]
    81b8:	60b9      	str	r1, [r7, #8]
    81ba:	607a      	str	r2, [r7, #4]
    81bc:	f7ff fe46 	bl	7e4c <prvRaisePrivilege>
    81c0:	6178      	str	r0, [r7, #20]
    81c2:	68fb      	ldr	r3, [r7, #12]
    81c4:	681b      	ldr	r3, [r3, #0]
    81c6:	687a      	ldr	r2, [r7, #4]
    81c8:	68b9      	ldr	r1, [r7, #8]
    81ca:	68f8      	ldr	r0, [r7, #12]
    81cc:	4798      	blx	r3
    81ce:	6138      	str	r0, [r7, #16]
    81d0:	697b      	ldr	r3, [r7, #20]
    81d2:	2b01      	cmp	r3, #1
    81d4:	d005      	beq.n	81e2 <MPU_FreeRTOS_write+0x32>
    81d6:	f3ef 8014 	mrs	r0, CONTROL
    81da:	f040 0001 	orr.w	r0, r0, #1
    81de:	f380 8814 	msr	CONTROL, r0
    81e2:	693b      	ldr	r3, [r7, #16]
    81e4:	4618      	mov	r0, r3
    81e6:	3718      	adds	r7, #24
    81e8:	46bd      	mov	sp, r7
    81ea:	bd80      	pop	{r7, pc}

000081ec <vListInitialise>:
    81ec:	b480      	push	{r7}
    81ee:	b083      	sub	sp, #12
    81f0:	af00      	add	r7, sp, #0
    81f2:	6078      	str	r0, [r7, #4]
    81f4:	687b      	ldr	r3, [r7, #4]
    81f6:	f103 0208 	add.w	r2, r3, #8
    81fa:	687b      	ldr	r3, [r7, #4]
    81fc:	605a      	str	r2, [r3, #4]
    81fe:	687b      	ldr	r3, [r7, #4]
    8200:	f04f 32ff 	mov.w	r2, #4294967295
    8204:	609a      	str	r2, [r3, #8]
    8206:	687b      	ldr	r3, [r7, #4]
    8208:	f103 0208 	add.w	r2, r3, #8
    820c:	687b      	ldr	r3, [r7, #4]
    820e:	60da      	str	r2, [r3, #12]
    8210:	687b      	ldr	r3, [r7, #4]
    8212:	f103 0208 	add.w	r2, r3, #8
    8216:	687b      	ldr	r3, [r7, #4]
    8218:	611a      	str	r2, [r3, #16]
    821a:	687b      	ldr	r3, [r7, #4]
    821c:	2200      	movs	r2, #0
    821e:	601a      	str	r2, [r3, #0]
    8220:	bf00      	nop
    8222:	370c      	adds	r7, #12
    8224:	46bd      	mov	sp, r7
    8226:	bc80      	pop	{r7}
    8228:	4770      	bx	lr
    822a:	bf00      	nop

0000822c <vListInitialiseItem>:
    822c:	b480      	push	{r7}
    822e:	b083      	sub	sp, #12
    8230:	af00      	add	r7, sp, #0
    8232:	6078      	str	r0, [r7, #4]
    8234:	687b      	ldr	r3, [r7, #4]
    8236:	2200      	movs	r2, #0
    8238:	611a      	str	r2, [r3, #16]
    823a:	bf00      	nop
    823c:	370c      	adds	r7, #12
    823e:	46bd      	mov	sp, r7
    8240:	bc80      	pop	{r7}
    8242:	4770      	bx	lr

00008244 <vListInsertEnd>:
    8244:	b480      	push	{r7}
    8246:	b085      	sub	sp, #20
    8248:	af00      	add	r7, sp, #0
    824a:	6078      	str	r0, [r7, #4]
    824c:	6039      	str	r1, [r7, #0]
    824e:	687b      	ldr	r3, [r7, #4]
    8250:	685b      	ldr	r3, [r3, #4]
    8252:	60fb      	str	r3, [r7, #12]
    8254:	683b      	ldr	r3, [r7, #0]
    8256:	68fa      	ldr	r2, [r7, #12]
    8258:	605a      	str	r2, [r3, #4]
    825a:	68fb      	ldr	r3, [r7, #12]
    825c:	689a      	ldr	r2, [r3, #8]
    825e:	683b      	ldr	r3, [r7, #0]
    8260:	609a      	str	r2, [r3, #8]
    8262:	68fb      	ldr	r3, [r7, #12]
    8264:	689b      	ldr	r3, [r3, #8]
    8266:	683a      	ldr	r2, [r7, #0]
    8268:	605a      	str	r2, [r3, #4]
    826a:	68fb      	ldr	r3, [r7, #12]
    826c:	683a      	ldr	r2, [r7, #0]
    826e:	609a      	str	r2, [r3, #8]
    8270:	683b      	ldr	r3, [r7, #0]
    8272:	687a      	ldr	r2, [r7, #4]
    8274:	611a      	str	r2, [r3, #16]
    8276:	687b      	ldr	r3, [r7, #4]
    8278:	681b      	ldr	r3, [r3, #0]
    827a:	1c5a      	adds	r2, r3, #1
    827c:	687b      	ldr	r3, [r7, #4]
    827e:	601a      	str	r2, [r3, #0]
    8280:	bf00      	nop
    8282:	3714      	adds	r7, #20
    8284:	46bd      	mov	sp, r7
    8286:	bc80      	pop	{r7}
    8288:	4770      	bx	lr
    828a:	bf00      	nop

0000828c <vListInsert>:
    828c:	b480      	push	{r7}
    828e:	b085      	sub	sp, #20
    8290:	af00      	add	r7, sp, #0
    8292:	6078      	str	r0, [r7, #4]
    8294:	6039      	str	r1, [r7, #0]
    8296:	683b      	ldr	r3, [r7, #0]
    8298:	681b      	ldr	r3, [r3, #0]
    829a:	60bb      	str	r3, [r7, #8]
    829c:	68bb      	ldr	r3, [r7, #8]
    829e:	f1b3 3fff 	cmp.w	r3, #4294967295
    82a2:	d103      	bne.n	82ac <vListInsert+0x20>
    82a4:	687b      	ldr	r3, [r7, #4]
    82a6:	691b      	ldr	r3, [r3, #16]
    82a8:	60fb      	str	r3, [r7, #12]
    82aa:	e00c      	b.n	82c6 <vListInsert+0x3a>
    82ac:	687b      	ldr	r3, [r7, #4]
    82ae:	3308      	adds	r3, #8
    82b0:	60fb      	str	r3, [r7, #12]
    82b2:	e002      	b.n	82ba <vListInsert+0x2e>
    82b4:	68fb      	ldr	r3, [r7, #12]
    82b6:	685b      	ldr	r3, [r3, #4]
    82b8:	60fb      	str	r3, [r7, #12]
    82ba:	68fb      	ldr	r3, [r7, #12]
    82bc:	685b      	ldr	r3, [r3, #4]
    82be:	681a      	ldr	r2, [r3, #0]
    82c0:	68bb      	ldr	r3, [r7, #8]
    82c2:	429a      	cmp	r2, r3
    82c4:	d9f6      	bls.n	82b4 <vListInsert+0x28>
    82c6:	68fb      	ldr	r3, [r7, #12]
    82c8:	685a      	ldr	r2, [r3, #4]
    82ca:	683b      	ldr	r3, [r7, #0]
    82cc:	605a      	str	r2, [r3, #4]
    82ce:	683b      	ldr	r3, [r7, #0]
    82d0:	685b      	ldr	r3, [r3, #4]
    82d2:	683a      	ldr	r2, [r7, #0]
    82d4:	609a      	str	r2, [r3, #8]
    82d6:	683b      	ldr	r3, [r7, #0]
    82d8:	68fa      	ldr	r2, [r7, #12]
    82da:	609a      	str	r2, [r3, #8]
    82dc:	68fb      	ldr	r3, [r7, #12]
    82de:	683a      	ldr	r2, [r7, #0]
    82e0:	605a      	str	r2, [r3, #4]
    82e2:	683b      	ldr	r3, [r7, #0]
    82e4:	687a      	ldr	r2, [r7, #4]
    82e6:	611a      	str	r2, [r3, #16]
    82e8:	687b      	ldr	r3, [r7, #4]
    82ea:	681b      	ldr	r3, [r3, #0]
    82ec:	1c5a      	adds	r2, r3, #1
    82ee:	687b      	ldr	r3, [r7, #4]
    82f0:	601a      	str	r2, [r3, #0]
    82f2:	bf00      	nop
    82f4:	3714      	adds	r7, #20
    82f6:	46bd      	mov	sp, r7
    82f8:	bc80      	pop	{r7}
    82fa:	4770      	bx	lr

000082fc <uxListRemove>:
    82fc:	b480      	push	{r7}
    82fe:	b085      	sub	sp, #20
    8300:	af00      	add	r7, sp, #0
    8302:	6078      	str	r0, [r7, #4]
    8304:	687b      	ldr	r3, [r7, #4]
    8306:	691b      	ldr	r3, [r3, #16]
    8308:	60fb      	str	r3, [r7, #12]
    830a:	687b      	ldr	r3, [r7, #4]
    830c:	685b      	ldr	r3, [r3, #4]
    830e:	687a      	ldr	r2, [r7, #4]
    8310:	6892      	ldr	r2, [r2, #8]
    8312:	609a      	str	r2, [r3, #8]
    8314:	687b      	ldr	r3, [r7, #4]
    8316:	689b      	ldr	r3, [r3, #8]
    8318:	687a      	ldr	r2, [r7, #4]
    831a:	6852      	ldr	r2, [r2, #4]
    831c:	605a      	str	r2, [r3, #4]
    831e:	68fb      	ldr	r3, [r7, #12]
    8320:	685a      	ldr	r2, [r3, #4]
    8322:	687b      	ldr	r3, [r7, #4]
    8324:	429a      	cmp	r2, r3
    8326:	d103      	bne.n	8330 <uxListRemove+0x34>
    8328:	687b      	ldr	r3, [r7, #4]
    832a:	689a      	ldr	r2, [r3, #8]
    832c:	68fb      	ldr	r3, [r7, #12]
    832e:	605a      	str	r2, [r3, #4]
    8330:	687b      	ldr	r3, [r7, #4]
    8332:	2200      	movs	r2, #0
    8334:	611a      	str	r2, [r3, #16]
    8336:	68fb      	ldr	r3, [r7, #12]
    8338:	681b      	ldr	r3, [r3, #0]
    833a:	1e5a      	subs	r2, r3, #1
    833c:	68fb      	ldr	r3, [r7, #12]
    833e:	601a      	str	r2, [r3, #0]
    8340:	68fb      	ldr	r3, [r7, #12]
    8342:	681b      	ldr	r3, [r3, #0]
    8344:	4618      	mov	r0, r3
    8346:	3714      	adds	r7, #20
    8348:	46bd      	mov	sp, r7
    834a:	bc80      	pop	{r7}
    834c:	4770      	bx	lr
    834e:	bf00      	nop

00008350 <prvIdleTask>:
    8350:	b580      	push	{r7, lr}
    8352:	b082      	sub	sp, #8
    8354:	af00      	add	r7, sp, #0
    8356:	6078      	str	r0, [r7, #4]
    8358:	f7fa ff76 	bl	3248 <prvCheckTasksWaitingTermination>
    835c:	e7fc      	b.n	8358 <prvIdleTask+0x8>
    835e:	bf00      	nop

00008360 <prvResetNextTaskUnblockTime>:
    8360:	b480      	push	{r7}
    8362:	b083      	sub	sp, #12
    8364:	af00      	add	r7, sp, #0
    8366:	4b0e      	ldr	r3, [pc, #56]	; (83a0 <prvResetNextTaskUnblockTime+0x40>)
    8368:	681b      	ldr	r3, [r3, #0]
    836a:	681b      	ldr	r3, [r3, #0]
    836c:	2b00      	cmp	r3, #0
    836e:	d101      	bne.n	8374 <prvResetNextTaskUnblockTime+0x14>
    8370:	2301      	movs	r3, #1
    8372:	e000      	b.n	8376 <prvResetNextTaskUnblockTime+0x16>
    8374:	2300      	movs	r3, #0
    8376:	2b00      	cmp	r3, #0
    8378:	d004      	beq.n	8384 <prvResetNextTaskUnblockTime+0x24>
    837a:	4b0a      	ldr	r3, [pc, #40]	; (83a4 <prvResetNextTaskUnblockTime+0x44>)
    837c:	f04f 32ff 	mov.w	r2, #4294967295
    8380:	601a      	str	r2, [r3, #0]
    8382:	e008      	b.n	8396 <prvResetNextTaskUnblockTime+0x36>
    8384:	4b06      	ldr	r3, [pc, #24]	; (83a0 <prvResetNextTaskUnblockTime+0x40>)
    8386:	681b      	ldr	r3, [r3, #0]
    8388:	68db      	ldr	r3, [r3, #12]
    838a:	68db      	ldr	r3, [r3, #12]
    838c:	607b      	str	r3, [r7, #4]
    838e:	687b      	ldr	r3, [r7, #4]
    8390:	6a9b      	ldr	r3, [r3, #40]	; 0x28
    8392:	4a04      	ldr	r2, [pc, #16]	; (83a4 <prvResetNextTaskUnblockTime+0x44>)
    8394:	6013      	str	r3, [r2, #0]
    8396:	bf00      	nop
    8398:	370c      	adds	r7, #12
    839a:	46bd      	mov	sp, r7
    839c:	bc80      	pop	{r7}
    839e:	4770      	bx	lr
    83a0:	100000e0 	.word	0x100000e0
    83a4:	10000148 	.word	0x10000148

000083a8 <prvWriteNameToBuffer>:
    83a8:	b580      	push	{r7, lr}
    83aa:	b084      	sub	sp, #16
    83ac:	af00      	add	r7, sp, #0
    83ae:	6078      	str	r0, [r7, #4]
    83b0:	6039      	str	r1, [r7, #0]
    83b2:	6839      	ldr	r1, [r7, #0]
    83b4:	6878      	ldr	r0, [r7, #4]
    83b6:	f005 fd45 	bl	de44 <strcpy>
    83ba:	6878      	ldr	r0, [r7, #4]
    83bc:	f005 fd63 	bl	de86 <strlen>
    83c0:	60f8      	str	r0, [r7, #12]
    83c2:	e007      	b.n	83d4 <prvWriteNameToBuffer+0x2c>
    83c4:	687a      	ldr	r2, [r7, #4]
    83c6:	68fb      	ldr	r3, [r7, #12]
    83c8:	4413      	add	r3, r2
    83ca:	2220      	movs	r2, #32
    83cc:	701a      	strb	r2, [r3, #0]
    83ce:	68fb      	ldr	r3, [r7, #12]
    83d0:	3301      	adds	r3, #1
    83d2:	60fb      	str	r3, [r7, #12]
    83d4:	68fb      	ldr	r3, [r7, #12]
    83d6:	2b0a      	cmp	r3, #10
    83d8:	d9f4      	bls.n	83c4 <prvWriteNameToBuffer+0x1c>
    83da:	687a      	ldr	r2, [r7, #4]
    83dc:	68fb      	ldr	r3, [r7, #12]
    83de:	4413      	add	r3, r2
    83e0:	2200      	movs	r2, #0
    83e2:	701a      	strb	r2, [r3, #0]
    83e4:	687a      	ldr	r2, [r7, #4]
    83e6:	68fb      	ldr	r3, [r7, #12]
    83e8:	4413      	add	r3, r2
    83ea:	4618      	mov	r0, r3
    83ec:	3710      	adds	r7, #16
    83ee:	46bd      	mov	sp, r7
    83f0:	bd80      	pop	{r7, pc}
    83f2:	bf00      	nop

000083f4 <xIOUtilsConfigureTaskNotificationBasedRx>:
    83f4:	b580      	push	{r7, lr}
    83f6:	b088      	sub	sp, #32
    83f8:	af00      	add	r7, sp, #0
    83fa:	60f8      	str	r0, [r7, #12]
    83fc:	60b9      	str	r1, [r7, #8]
    83fe:	607a      	str	r2, [r7, #4]
    8400:	2300      	movs	r3, #0
    8402:	61fb      	str	r3, [r7, #28]
    8404:	68bb      	ldr	r3, [r7, #8]
    8406:	2b07      	cmp	r3, #7
    8408:	d103      	bne.n	8412 <xIOUtilsConfigureTaskNotificationBasedRx+0x1e>
    840a:	68fb      	ldr	r3, [r7, #12]
    840c:	330c      	adds	r3, #12
    840e:	617b      	str	r3, [r7, #20]
    8410:	e002      	b.n	8418 <xIOUtilsConfigureTaskNotificationBasedRx+0x24>
    8412:	68fb      	ldr	r3, [r7, #12]
    8414:	3310      	adds	r3, #16
    8416:	617b      	str	r3, [r7, #20]
    8418:	6978      	ldr	r0, [r7, #20]
    841a:	f001 ff55 	bl	a2c8 <vIOUtilsCreateTransferControlStructure>
    841e:	697b      	ldr	r3, [r7, #20]
    8420:	681b      	ldr	r3, [r3, #0]
    8422:	2b00      	cmp	r3, #0
    8424:	d104      	bne.n	8430 <xIOUtilsConfigureTaskNotificationBasedRx+0x3c>
    8426:	f04f 0028 	mov.w	r0, #40	; 0x28
    842a:	f380 8811 	msr	BASEPRI, r0
    842e:	e7fe      	b.n	842e <xIOUtilsConfigureTaskNotificationBasedRx+0x3a>
    8430:	697b      	ldr	r3, [r7, #20]
    8432:	681b      	ldr	r3, [r3, #0]
    8434:	2b00      	cmp	r3, #0
    8436:	d046      	beq.n	84c6 <xIOUtilsConfigureTaskNotificationBasedRx+0xd2>
    8438:	2018      	movs	r0, #24
    843a:	f7f7 fe47 	bl	cc <pvPortMalloc>
    843e:	61b8      	str	r0, [r7, #24]
    8440:	69bb      	ldr	r3, [r7, #24]
    8442:	2b00      	cmp	r3, #0
    8444:	d034      	beq.n	84b0 <xIOUtilsConfigureTaskNotificationBasedRx+0xbc>
    8446:	687b      	ldr	r3, [r7, #4]
    8448:	4618      	mov	r0, r3
    844a:	f7f7 fe3f 	bl	cc <pvPortMalloc>
    844e:	4602      	mov	r2, r0
    8450:	69bb      	ldr	r3, [r7, #24]
    8452:	605a      	str	r2, [r3, #4]
    8454:	69bb      	ldr	r3, [r7, #24]
    8456:	685b      	ldr	r3, [r3, #4]
    8458:	2b00      	cmp	r3, #0
    845a:	d024      	beq.n	84a6 <xIOUtilsConfigureTaskNotificationBasedRx+0xb2>
    845c:	f7fa fb8e 	bl	2b7c <xTaskGetCurrentTaskHandle>
    8460:	4602      	mov	r2, r0
    8462:	69bb      	ldr	r3, [r7, #24]
    8464:	601a      	str	r2, [r3, #0]
    8466:	687b      	ldr	r3, [r7, #4]
    8468:	b29a      	uxth	r2, r3
    846a:	69bb      	ldr	r3, [r7, #24]
    846c:	811a      	strh	r2, [r3, #8]
    846e:	69bb      	ldr	r3, [r7, #24]
    8470:	2200      	movs	r2, #0
    8472:	81da      	strh	r2, [r3, #14]
    8474:	69bb      	ldr	r3, [r7, #24]
    8476:	2200      	movs	r2, #0
    8478:	819a      	strh	r2, [r3, #12]
    847a:	69bb      	ldr	r3, [r7, #24]
    847c:	2200      	movs	r2, #0
    847e:	829a      	strh	r2, [r3, #20]
    8480:	69bb      	ldr	r3, [r7, #24]
    8482:	2200      	movs	r2, #0
    8484:	815a      	strh	r2, [r3, #10]
    8486:	697b      	ldr	r3, [r7, #20]
    8488:	681b      	ldr	r3, [r3, #0]
    848a:	69ba      	ldr	r2, [r7, #24]
    848c:	601a      	str	r2, [r3, #0]
    848e:	697b      	ldr	r3, [r7, #20]
    8490:	681b      	ldr	r3, [r3, #0]
    8492:	68ba      	ldr	r2, [r7, #8]
    8494:	b2d2      	uxtb	r2, r2
    8496:	711a      	strb	r2, [r3, #4]
    8498:	69bb      	ldr	r3, [r7, #24]
    849a:	f04f 32ff 	mov.w	r2, #4294967295
    849e:	611a      	str	r2, [r3, #16]
    84a0:	2301      	movs	r3, #1
    84a2:	61fb      	str	r3, [r7, #28]
    84a4:	e004      	b.n	84b0 <xIOUtilsConfigureTaskNotificationBasedRx+0xbc>
    84a6:	69b8      	ldr	r0, [r7, #24]
    84a8:	f7f7 fea2 	bl	1f0 <vPortFree>
    84ac:	2300      	movs	r3, #0
    84ae:	61bb      	str	r3, [r7, #24]
    84b0:	69bb      	ldr	r3, [r7, #24]
    84b2:	2b00      	cmp	r3, #0
    84b4:	d107      	bne.n	84c6 <xIOUtilsConfigureTaskNotificationBasedRx+0xd2>
    84b6:	697b      	ldr	r3, [r7, #20]
    84b8:	681b      	ldr	r3, [r3, #0]
    84ba:	4618      	mov	r0, r3
    84bc:	f7f7 fe98 	bl	1f0 <vPortFree>
    84c0:	697b      	ldr	r3, [r7, #20]
    84c2:	2200      	movs	r2, #0
    84c4:	601a      	str	r2, [r3, #0]
    84c6:	69fb      	ldr	r3, [r7, #28]
    84c8:	4618      	mov	r0, r3
    84ca:	3720      	adds	r7, #32
    84cc:	46bd      	mov	sp, r7
    84ce:	bd80      	pop	{r7, pc}

000084d0 <xIOUtilsReadCharsFromTNBasedCircularBuffer>:
    84d0:	b580      	push	{r7, lr}
    84d2:	b088      	sub	sp, #32
    84d4:	af00      	add	r7, sp, #0
    84d6:	60f8      	str	r0, [r7, #12]
    84d8:	60b9      	str	r1, [r7, #8]
    84da:	607a      	str	r2, [r7, #4]
    84dc:	2300      	movs	r3, #0
    84de:	61bb      	str	r3, [r7, #24]
    84e0:	2302      	movs	r3, #2
    84e2:	613b      	str	r3, [r7, #16]
    84e4:	2300      	movs	r3, #0
    84e6:	617b      	str	r3, [r7, #20]
    84e8:	e065      	b.n	85b6 <xIOUtilsReadCharsFromTNBasedCircularBuffer+0xe6>
    84ea:	68fb      	ldr	r3, [r7, #12]
    84ec:	8a9b      	ldrh	r3, [r3, #20]
    84ee:	2b00      	cmp	r3, #0
    84f0:	d066      	beq.n	85c0 <xIOUtilsReadCharsFromTNBasedCircularBuffer+0xf0>
    84f2:	68fb      	ldr	r3, [r7, #12]
    84f4:	899a      	ldrh	r2, [r3, #12]
    84f6:	68fb      	ldr	r3, [r7, #12]
    84f8:	895b      	ldrh	r3, [r3, #10]
    84fa:	429a      	cmp	r2, r3
    84fc:	d807      	bhi.n	850e <xIOUtilsReadCharsFromTNBasedCircularBuffer+0x3e>
    84fe:	68fb      	ldr	r3, [r7, #12]
    8500:	895b      	ldrh	r3, [r3, #10]
    8502:	461a      	mov	r2, r3
    8504:	68fb      	ldr	r3, [r7, #12]
    8506:	899b      	ldrh	r3, [r3, #12]
    8508:	1ad3      	subs	r3, r2, r3
    850a:	61fb      	str	r3, [r7, #28]
    850c:	e006      	b.n	851c <xIOUtilsReadCharsFromTNBasedCircularBuffer+0x4c>
    850e:	68fb      	ldr	r3, [r7, #12]
    8510:	891b      	ldrh	r3, [r3, #8]
    8512:	461a      	mov	r2, r3
    8514:	68fb      	ldr	r3, [r7, #12]
    8516:	899b      	ldrh	r3, [r3, #12]
    8518:	1ad3      	subs	r3, r2, r3
    851a:	61fb      	str	r3, [r7, #28]
    851c:	687a      	ldr	r2, [r7, #4]
    851e:	69bb      	ldr	r3, [r7, #24]
    8520:	1ad2      	subs	r2, r2, r3
    8522:	69fb      	ldr	r3, [r7, #28]
    8524:	429a      	cmp	r2, r3
    8526:	d203      	bcs.n	8530 <xIOUtilsReadCharsFromTNBasedCircularBuffer+0x60>
    8528:	687a      	ldr	r2, [r7, #4]
    852a:	69bb      	ldr	r3, [r7, #24]
    852c:	1ad3      	subs	r3, r2, r3
    852e:	61fb      	str	r3, [r7, #28]
    8530:	69fb      	ldr	r3, [r7, #28]
    8532:	2b00      	cmp	r3, #0
    8534:	d104      	bne.n	8540 <xIOUtilsReadCharsFromTNBasedCircularBuffer+0x70>
    8536:	f04f 0028 	mov.w	r0, #40	; 0x28
    853a:	f380 8811 	msr	BASEPRI, r0
    853e:	e7fe      	b.n	853e <xIOUtilsReadCharsFromTNBasedCircularBuffer+0x6e>
    8540:	68ba      	ldr	r2, [r7, #8]
    8542:	69bb      	ldr	r3, [r7, #24]
    8544:	18d0      	adds	r0, r2, r3
    8546:	68fb      	ldr	r3, [r7, #12]
    8548:	685b      	ldr	r3, [r3, #4]
    854a:	68fa      	ldr	r2, [r7, #12]
    854c:	8992      	ldrh	r2, [r2, #12]
    854e:	4413      	add	r3, r2
    8550:	69fa      	ldr	r2, [r7, #28]
    8552:	4619      	mov	r1, r3
    8554:	f005 fbde 	bl	dd14 <memcpy>
    8558:	69ba      	ldr	r2, [r7, #24]
    855a:	69fb      	ldr	r3, [r7, #28]
    855c:	4413      	add	r3, r2
    855e:	61bb      	str	r3, [r7, #24]
    8560:	68fb      	ldr	r3, [r7, #12]
    8562:	8a9a      	ldrh	r2, [r3, #20]
    8564:	69fb      	ldr	r3, [r7, #28]
    8566:	b29b      	uxth	r3, r3
    8568:	1ad3      	subs	r3, r2, r3
    856a:	b29a      	uxth	r2, r3
    856c:	68fb      	ldr	r3, [r7, #12]
    856e:	829a      	strh	r2, [r3, #20]
    8570:	68fb      	ldr	r3, [r7, #12]
    8572:	899a      	ldrh	r2, [r3, #12]
    8574:	69fb      	ldr	r3, [r7, #28]
    8576:	b29b      	uxth	r3, r3
    8578:	4413      	add	r3, r2
    857a:	b29a      	uxth	r2, r3
    857c:	68fb      	ldr	r3, [r7, #12]
    857e:	819a      	strh	r2, [r3, #12]
    8580:	68fb      	ldr	r3, [r7, #12]
    8582:	899a      	ldrh	r2, [r3, #12]
    8584:	68fb      	ldr	r3, [r7, #12]
    8586:	891b      	ldrh	r3, [r3, #8]
    8588:	429a      	cmp	r2, r3
    858a:	d904      	bls.n	8596 <xIOUtilsReadCharsFromTNBasedCircularBuffer+0xc6>
    858c:	f04f 0028 	mov.w	r0, #40	; 0x28
    8590:	f380 8811 	msr	BASEPRI, r0
    8594:	e7fe      	b.n	8594 <xIOUtilsReadCharsFromTNBasedCircularBuffer+0xc4>
    8596:	68fb      	ldr	r3, [r7, #12]
    8598:	899a      	ldrh	r2, [r3, #12]
    859a:	68fb      	ldr	r3, [r7, #12]
    859c:	891b      	ldrh	r3, [r3, #8]
    859e:	429a      	cmp	r2, r3
    85a0:	d102      	bne.n	85a8 <xIOUtilsReadCharsFromTNBasedCircularBuffer+0xd8>
    85a2:	68fb      	ldr	r3, [r7, #12]
    85a4:	2200      	movs	r2, #0
    85a6:	819a      	strh	r2, [r3, #12]
    85a8:	687a      	ldr	r2, [r7, #4]
    85aa:	69bb      	ldr	r3, [r7, #24]
    85ac:	429a      	cmp	r2, r3
    85ae:	d009      	beq.n	85c4 <xIOUtilsReadCharsFromTNBasedCircularBuffer+0xf4>
    85b0:	697b      	ldr	r3, [r7, #20]
    85b2:	3301      	adds	r3, #1
    85b4:	617b      	str	r3, [r7, #20]
    85b6:	697a      	ldr	r2, [r7, #20]
    85b8:	693b      	ldr	r3, [r7, #16]
    85ba:	429a      	cmp	r2, r3
    85bc:	db95      	blt.n	84ea <xIOUtilsReadCharsFromTNBasedCircularBuffer+0x1a>
    85be:	e002      	b.n	85c6 <xIOUtilsReadCharsFromTNBasedCircularBuffer+0xf6>
    85c0:	bf00      	nop
    85c2:	e000      	b.n	85c6 <xIOUtilsReadCharsFromTNBasedCircularBuffer+0xf6>
    85c4:	bf00      	nop
    85c6:	69bb      	ldr	r3, [r7, #24]
    85c8:	4618      	mov	r0, r3
    85ca:	3720      	adds	r7, #32
    85cc:	46bd      	mov	sp, r7
    85ce:	bd80      	pop	{r7, pc}

000085d0 <xIOUtilsTxCharsFromTNCircularBufferFromISR>:
    85d0:	b480      	push	{r7}
    85d2:	b085      	sub	sp, #20
    85d4:	af00      	add	r7, sp, #0
    85d6:	6078      	str	r0, [r7, #4]
    85d8:	6039      	str	r1, [r7, #0]
    85da:	687b      	ldr	r3, [r7, #4]
    85dc:	681b      	ldr	r3, [r3, #0]
    85de:	60fb      	str	r3, [r7, #12]
    85e0:	2300      	movs	r3, #0
    85e2:	60bb      	str	r3, [r7, #8]
    85e4:	e020      	b.n	8628 <xIOUtilsTxCharsFromTNCircularBufferFromISR+0x58>
    85e6:	68fb      	ldr	r3, [r7, #12]
    85e8:	8a9b      	ldrh	r3, [r3, #20]
    85ea:	2b00      	cmp	r3, #0
    85ec:	d024      	beq.n	8638 <xIOUtilsTxCharsFromTNCircularBufferFromISR+0x68>
    85ee:	4916      	ldr	r1, [pc, #88]	; (8648 <xIOUtilsTxCharsFromTNCircularBufferFromISR+0x78>)
    85f0:	68fb      	ldr	r3, [r7, #12]
    85f2:	685b      	ldr	r3, [r3, #4]
    85f4:	68fa      	ldr	r2, [r7, #12]
    85f6:	8992      	ldrh	r2, [r2, #12]
    85f8:	4413      	add	r3, r2
    85fa:	781b      	ldrb	r3, [r3, #0]
    85fc:	600b      	str	r3, [r1, #0]
    85fe:	68fb      	ldr	r3, [r7, #12]
    8600:	8a9b      	ldrh	r3, [r3, #20]
    8602:	3b01      	subs	r3, #1
    8604:	b29a      	uxth	r2, r3
    8606:	68fb      	ldr	r3, [r7, #12]
    8608:	829a      	strh	r2, [r3, #20]
    860a:	68fb      	ldr	r3, [r7, #12]
    860c:	899b      	ldrh	r3, [r3, #12]
    860e:	3301      	adds	r3, #1
    8610:	b29a      	uxth	r2, r3
    8612:	68fb      	ldr	r3, [r7, #12]
    8614:	819a      	strh	r2, [r3, #12]
    8616:	68fb      	ldr	r3, [r7, #12]
    8618:	899a      	ldrh	r2, [r3, #12]
    861a:	68fb      	ldr	r3, [r7, #12]
    861c:	891b      	ldrh	r3, [r3, #8]
    861e:	429a      	cmp	r2, r3
    8620:	d102      	bne.n	8628 <xIOUtilsTxCharsFromTNCircularBufferFromISR+0x58>
    8622:	68fb      	ldr	r3, [r7, #12]
    8624:	2200      	movs	r2, #0
    8626:	819a      	strh	r2, [r3, #12]
    8628:	4b07      	ldr	r3, [pc, #28]	; (8648 <xIOUtilsTxCharsFromTNCircularBufferFromISR+0x78>)
    862a:	6d9b      	ldr	r3, [r3, #88]	; 0x58
    862c:	0a1b      	lsrs	r3, r3, #8
    862e:	f003 030f 	and.w	r3, r3, #15
    8632:	2b0f      	cmp	r3, #15
    8634:	d1d7      	bne.n	85e6 <xIOUtilsTxCharsFromTNCircularBufferFromISR+0x16>
    8636:	e000      	b.n	863a <xIOUtilsTxCharsFromTNCircularBufferFromISR+0x6a>
    8638:	bf00      	nop
    863a:	68bb      	ldr	r3, [r7, #8]
    863c:	4618      	mov	r0, r3
    863e:	3714      	adds	r7, #20
    8640:	46bd      	mov	sp, r7
    8642:	bc80      	pop	{r7}
    8644:	4770      	bx	lr
    8646:	bf00      	nop
    8648:	4009c000 	.word	0x4009c000

0000864c <vFreeRTOS_lpc17xx_PopulateFunctionPointers>:
    864c:	b580      	push	{r7, lr}
    864e:	b084      	sub	sp, #16
    8650:	af00      	add	r7, sp, #0
    8652:	4603      	mov	r3, r0
    8654:	6039      	str	r1, [r7, #0]
    8656:	71fb      	strb	r3, [r7, #7]
    8658:	2300      	movs	r3, #0
    865a:	60fb      	str	r3, [r7, #12]
    865c:	79fb      	ldrb	r3, [r7, #7]
    865e:	2b01      	cmp	r3, #1
    8660:	d008      	beq.n	8674 <vFreeRTOS_lpc17xx_PopulateFunctionPointers+0x28>
    8662:	2b02      	cmp	r3, #2
    8664:	d00b      	beq.n	867e <vFreeRTOS_lpc17xx_PopulateFunctionPointers+0x32>
    8666:	2b00      	cmp	r3, #0
    8668:	d10e      	bne.n	8688 <vFreeRTOS_lpc17xx_PopulateFunctionPointers+0x3c>
    866a:	6838      	ldr	r0, [r7, #0]
    866c:	f000 fe9a 	bl	93a4 <FreeRTOS_UART_open>
    8670:	60f8      	str	r0, [r7, #12]
    8672:	e012      	b.n	869a <vFreeRTOS_lpc17xx_PopulateFunctionPointers+0x4e>
    8674:	6838      	ldr	r0, [r7, #0]
    8676:	f000 fb17 	bl	8ca8 <FreeRTOS_SSP_open>
    867a:	60f8      	str	r0, [r7, #12]
    867c:	e00d      	b.n	869a <vFreeRTOS_lpc17xx_PopulateFunctionPointers+0x4e>
    867e:	6838      	ldr	r0, [r7, #0]
    8680:	f000 f82e 	bl	86e0 <FreeRTOS_I2C_open>
    8684:	60f8      	str	r0, [r7, #12]
    8686:	e008      	b.n	869a <vFreeRTOS_lpc17xx_PopulateFunctionPointers+0x4e>
    8688:	68fb      	ldr	r3, [r7, #12]
    868a:	2b00      	cmp	r3, #0
    868c:	d104      	bne.n	8698 <vFreeRTOS_lpc17xx_PopulateFunctionPointers+0x4c>
    868e:	f04f 0028 	mov.w	r0, #40	; 0x28
    8692:	f380 8811 	msr	BASEPRI, r0
    8696:	e7fe      	b.n	8696 <vFreeRTOS_lpc17xx_PopulateFunctionPointers+0x4a>
    8698:	bf00      	nop
    869a:	68fb      	ldr	r3, [r7, #12]
    869c:	4618      	mov	r0, r3
    869e:	3710      	adds	r7, #16
    86a0:	46bd      	mov	sp, r7
    86a2:	bd80      	pop	{r7, pc}

000086a4 <Chip_IOCON_DisableOD>:
    86a4:	b480      	push	{r7}
    86a6:	b083      	sub	sp, #12
    86a8:	af00      	add	r7, sp, #0
    86aa:	6078      	str	r0, [r7, #4]
    86ac:	460b      	mov	r3, r1
    86ae:	70fb      	strb	r3, [r7, #3]
    86b0:	4613      	mov	r3, r2
    86b2:	70bb      	strb	r3, [r7, #2]
    86b4:	78fa      	ldrb	r2, [r7, #3]
    86b6:	78f9      	ldrb	r1, [r7, #3]
    86b8:	687b      	ldr	r3, [r7, #4]
    86ba:	311a      	adds	r1, #26
    86bc:	f853 1021 	ldr.w	r1, [r3, r1, lsl #2]
    86c0:	78bb      	ldrb	r3, [r7, #2]
    86c2:	2001      	movs	r0, #1
    86c4:	fa00 f303 	lsl.w	r3, r0, r3
    86c8:	43db      	mvns	r3, r3
    86ca:	4019      	ands	r1, r3
    86cc:	687b      	ldr	r3, [r7, #4]
    86ce:	321a      	adds	r2, #26
    86d0:	f843 1022 	str.w	r1, [r3, r2, lsl #2]
    86d4:	bf00      	nop
    86d6:	370c      	adds	r7, #12
    86d8:	46bd      	mov	sp, r7
    86da:	bc80      	pop	{r7}
    86dc:	4770      	bx	lr
    86de:	bf00      	nop

000086e0 <FreeRTOS_I2C_open>:
    86e0:	b580      	push	{r7, lr}
    86e2:	b088      	sub	sp, #32
    86e4:	af00      	add	r7, sp, #0
    86e6:	6078      	str	r0, [r7, #4]
    86e8:	687b      	ldr	r3, [r7, #4]
    86ea:	f993 3018 	ldrsb.w	r3, [r3, #24]
    86ee:	76fb      	strb	r3, [r7, #27]
    86f0:	687b      	ldr	r3, [r7, #4]
    86f2:	695b      	ldr	r3, [r3, #20]
    86f4:	689b      	ldr	r3, [r3, #8]
    86f6:	617b      	str	r3, [r7, #20]
    86f8:	2300      	movs	r3, #0
    86fa:	613b      	str	r3, [r7, #16]
    86fc:	2300      	movs	r3, #0
    86fe:	60fb      	str	r3, [r7, #12]
    8700:	2300      	movs	r3, #0
    8702:	61fb      	str	r3, [r7, #28]
    8704:	7efb      	ldrb	r3, [r7, #27]
    8706:	2b02      	cmp	r3, #2
    8708:	f200 80ac 	bhi.w	8864 <FreeRTOS_I2C_open+0x184>
    870c:	2018      	movs	r0, #24
    870e:	f7ff fce3 	bl	80d8 <MPU_pvPortMalloc>
    8712:	6138      	str	r0, [r7, #16]
    8714:	2018      	movs	r0, #24
    8716:	f7ff fcdf 	bl	80d8 <MPU_pvPortMalloc>
    871a:	60f8      	str	r0, [r7, #12]
    871c:	693b      	ldr	r3, [r7, #16]
    871e:	2b00      	cmp	r3, #0
    8720:	d079      	beq.n	8816 <FreeRTOS_I2C_open+0x136>
    8722:	68fb      	ldr	r3, [r7, #12]
    8724:	2b00      	cmp	r3, #0
    8726:	d076      	beq.n	8816 <FreeRTOS_I2C_open+0x136>
    8728:	687b      	ldr	r3, [r7, #4]
    872a:	330c      	adds	r3, #12
    872c:	4618      	mov	r0, r3
    872e:	f001 fdcb 	bl	a2c8 <vIOUtilsCreateTransferControlStructure>
    8732:	687b      	ldr	r3, [r7, #4]
    8734:	3310      	adds	r3, #16
    8736:	4618      	mov	r0, r3
    8738:	f001 fdc6 	bl	a2c8 <vIOUtilsCreateTransferControlStructure>
    873c:	687b      	ldr	r3, [r7, #4]
    873e:	68db      	ldr	r3, [r3, #12]
    8740:	2b00      	cmp	r3, #0
    8742:	d068      	beq.n	8816 <FreeRTOS_I2C_open+0x136>
    8744:	687b      	ldr	r3, [r7, #4]
    8746:	691b      	ldr	r3, [r3, #16]
    8748:	2b00      	cmp	r3, #0
    874a:	d064      	beq.n	8816 <FreeRTOS_I2C_open+0x136>
    874c:	687b      	ldr	r3, [r7, #4]
    874e:	4a48      	ldr	r2, [pc, #288]	; (8870 <FreeRTOS_I2C_open+0x190>)
    8750:	605a      	str	r2, [r3, #4]
    8752:	687b      	ldr	r3, [r7, #4]
    8754:	4a47      	ldr	r2, [pc, #284]	; (8874 <FreeRTOS_I2C_open+0x194>)
    8756:	601a      	str	r2, [r3, #0]
    8758:	687b      	ldr	r3, [r7, #4]
    875a:	4a47      	ldr	r2, [pc, #284]	; (8878 <FreeRTOS_I2C_open+0x198>)
    875c:	609a      	str	r2, [r3, #8]
    875e:	687b      	ldr	r3, [r7, #4]
    8760:	68db      	ldr	r3, [r3, #12]
    8762:	693a      	ldr	r2, [r7, #16]
    8764:	601a      	str	r2, [r3, #0]
    8766:	687b      	ldr	r3, [r7, #4]
    8768:	68db      	ldr	r3, [r3, #12]
    876a:	2200      	movs	r2, #0
    876c:	711a      	strb	r2, [r3, #4]
    876e:	687b      	ldr	r3, [r7, #4]
    8770:	691b      	ldr	r3, [r3, #16]
    8772:	68fa      	ldr	r2, [r7, #12]
    8774:	601a      	str	r2, [r3, #0]
    8776:	687b      	ldr	r3, [r7, #4]
    8778:	691b      	ldr	r3, [r3, #16]
    877a:	2201      	movs	r2, #1
    877c:	711a      	strb	r2, [r3, #4]
    877e:	f7ff fb1b 	bl	7db8 <vPortEnterCritical>
    8782:	7efb      	ldrb	r3, [r7, #27]
    8784:	2b00      	cmp	r3, #0
    8786:	d018      	beq.n	87ba <FreeRTOS_I2C_open+0xda>
    8788:	2b02      	cmp	r3, #2
    878a:	d12d      	bne.n	87e8 <FreeRTOS_I2C_open+0x108>
    878c:	2302      	movs	r3, #2
    878e:	220a      	movs	r2, #10
    8790:	2100      	movs	r1, #0
    8792:	483a      	ldr	r0, [pc, #232]	; (887c <FreeRTOS_I2C_open+0x19c>)
    8794:	f004 fcfc 	bl	d190 <Chip_IOCON_PinMuxSet>
    8798:	220a      	movs	r2, #10
    879a:	2100      	movs	r1, #0
    879c:	4837      	ldr	r0, [pc, #220]	; (887c <FreeRTOS_I2C_open+0x19c>)
    879e:	f7ff ff81 	bl	86a4 <Chip_IOCON_DisableOD>
    87a2:	2302      	movs	r3, #2
    87a4:	220b      	movs	r2, #11
    87a6:	2100      	movs	r1, #0
    87a8:	4834      	ldr	r0, [pc, #208]	; (887c <FreeRTOS_I2C_open+0x19c>)
    87aa:	f004 fcf1 	bl	d190 <Chip_IOCON_PinMuxSet>
    87ae:	220b      	movs	r2, #11
    87b0:	2100      	movs	r1, #0
    87b2:	4832      	ldr	r0, [pc, #200]	; (887c <FreeRTOS_I2C_open+0x19c>)
    87b4:	f7ff ff76 	bl	86a4 <Chip_IOCON_DisableOD>
    87b8:	e01b      	b.n	87f2 <FreeRTOS_I2C_open+0x112>
    87ba:	2309      	movs	r3, #9
    87bc:	221b      	movs	r2, #27
    87be:	2100      	movs	r1, #0
    87c0:	482e      	ldr	r0, [pc, #184]	; (887c <FreeRTOS_I2C_open+0x19c>)
    87c2:	f004 fce5 	bl	d190 <Chip_IOCON_PinMuxSet>
    87c6:	221b      	movs	r2, #27
    87c8:	2100      	movs	r1, #0
    87ca:	482c      	ldr	r0, [pc, #176]	; (887c <FreeRTOS_I2C_open+0x19c>)
    87cc:	f7ff ff6a 	bl	86a4 <Chip_IOCON_DisableOD>
    87d0:	2309      	movs	r3, #9
    87d2:	221c      	movs	r2, #28
    87d4:	2100      	movs	r1, #0
    87d6:	4829      	ldr	r0, [pc, #164]	; (887c <FreeRTOS_I2C_open+0x19c>)
    87d8:	f004 fcda 	bl	d190 <Chip_IOCON_PinMuxSet>
    87dc:	221c      	movs	r2, #28
    87de:	2100      	movs	r1, #0
    87e0:	4826      	ldr	r0, [pc, #152]	; (887c <FreeRTOS_I2C_open+0x19c>)
    87e2:	f7ff ff5f 	bl	86a4 <Chip_IOCON_DisableOD>
    87e6:	e004      	b.n	87f2 <FreeRTOS_I2C_open+0x112>
    87e8:	f04f 0028 	mov.w	r0, #40	; 0x28
    87ec:	f380 8811 	msr	BASEPRI, r0
    87f0:	e7fe      	b.n	87f0 <FreeRTOS_I2C_open+0x110>
    87f2:	7efb      	ldrb	r3, [r7, #27]
    87f4:	4618      	mov	r0, r3
    87f6:	f004 fb1b 	bl	ce30 <Chip_I2C_Init>
    87fa:	7efb      	ldrb	r3, [r7, #27]
    87fc:	4920      	ldr	r1, [pc, #128]	; (8880 <FreeRTOS_I2C_open+0x1a0>)
    87fe:	4618      	mov	r0, r3
    8800:	f004 fb30 	bl	ce64 <Chip_I2C_SetClockRate>
    8804:	7efb      	ldrb	r3, [r7, #27]
    8806:	491f      	ldr	r1, [pc, #124]	; (8884 <FreeRTOS_I2C_open+0x1a4>)
    8808:	4618      	mov	r0, r3
    880a:	f004 fb5f 	bl	cecc <Chip_I2C_SetMasterEventHandler>
    880e:	f7ff faf1 	bl	7df4 <vPortExitCritical>
    8812:	2301      	movs	r3, #1
    8814:	61fb      	str	r3, [r7, #28]
    8816:	69fb      	ldr	r3, [r7, #28]
    8818:	2b01      	cmp	r3, #1
    881a:	d023      	beq.n	8864 <FreeRTOS_I2C_open+0x184>
    881c:	693b      	ldr	r3, [r7, #16]
    881e:	2b00      	cmp	r3, #0
    8820:	d002      	beq.n	8828 <FreeRTOS_I2C_open+0x148>
    8822:	6938      	ldr	r0, [r7, #16]
    8824:	f7ff fc72 	bl	810c <MPU_vPortFree>
    8828:	68fb      	ldr	r3, [r7, #12]
    882a:	2b00      	cmp	r3, #0
    882c:	d002      	beq.n	8834 <FreeRTOS_I2C_open+0x154>
    882e:	68f8      	ldr	r0, [r7, #12]
    8830:	f7ff fc6c 	bl	810c <MPU_vPortFree>
    8834:	687b      	ldr	r3, [r7, #4]
    8836:	68db      	ldr	r3, [r3, #12]
    8838:	2b00      	cmp	r3, #0
    883a:	d007      	beq.n	884c <FreeRTOS_I2C_open+0x16c>
    883c:	687b      	ldr	r3, [r7, #4]
    883e:	68db      	ldr	r3, [r3, #12]
    8840:	4618      	mov	r0, r3
    8842:	f7ff fc63 	bl	810c <MPU_vPortFree>
    8846:	687b      	ldr	r3, [r7, #4]
    8848:	2200      	movs	r2, #0
    884a:	60da      	str	r2, [r3, #12]
    884c:	687b      	ldr	r3, [r7, #4]
    884e:	691b      	ldr	r3, [r3, #16]
    8850:	2b00      	cmp	r3, #0
    8852:	d007      	beq.n	8864 <FreeRTOS_I2C_open+0x184>
    8854:	687b      	ldr	r3, [r7, #4]
    8856:	691b      	ldr	r3, [r3, #16]
    8858:	4618      	mov	r0, r3
    885a:	f7ff fc57 	bl	810c <MPU_vPortFree>
    885e:	687b      	ldr	r3, [r7, #4]
    8860:	2200      	movs	r2, #0
    8862:	611a      	str	r2, [r3, #16]
    8864:	69fb      	ldr	r3, [r7, #28]
    8866:	4618      	mov	r0, r3
    8868:	3720      	adds	r7, #32
    886a:	46bd      	mov	sp, r7
    886c:	bd80      	pop	{r7, pc}
    886e:	bf00      	nop
    8870:	00008981 	.word	0x00008981
    8874:	00008889 	.word	0x00008889
    8878:	00008a65 	.word	0x00008a65
    887c:	4002c000 	.word	0x4002c000
    8880:	000186a0 	.word	0x000186a0
    8884:	0000cdd1 	.word	0x0000cdd1

00008888 <FreeRTOS_I2C_write>:
    8888:	b580      	push	{r7, lr}
    888a:	b08a      	sub	sp, #40	; 0x28
    888c:	af00      	add	r7, sp, #0
    888e:	60f8      	str	r0, [r7, #12]
    8890:	60b9      	str	r1, [r7, #8]
    8892:	607a      	str	r2, [r7, #4]
    8894:	68fb      	ldr	r3, [r7, #12]
    8896:	623b      	str	r3, [r7, #32]
    8898:	2300      	movs	r3, #0
    889a:	627b      	str	r3, [r7, #36]	; 0x24
    889c:	6a3b      	ldr	r3, [r7, #32]
    889e:	695b      	ldr	r3, [r3, #20]
    88a0:	689b      	ldr	r3, [r3, #8]
    88a2:	61fb      	str	r3, [r7, #28]
    88a4:	68fb      	ldr	r3, [r7, #12]
    88a6:	7e1b      	ldrb	r3, [r3, #24]
    88a8:	76fb      	strb	r3, [r7, #27]
    88aa:	f997 301b 	ldrsb.w	r3, [r7, #27]
    88ae:	6a3a      	ldr	r2, [r7, #32]
    88b0:	68d2      	ldr	r2, [r2, #12]
    88b2:	4930      	ldr	r1, [pc, #192]	; (8974 <FreeRTOS_I2C_write+0xec>)
    88b4:	f841 2023 	str.w	r2, [r1, r3, lsl #2]
    88b8:	f997 301b 	ldrsb.w	r3, [r7, #27]
    88bc:	4a2e      	ldr	r2, [pc, #184]	; (8978 <FreeRTOS_I2C_write+0xf0>)
    88be:	2100      	movs	r1, #0
    88c0:	54d1      	strb	r1, [r2, r3]
    88c2:	6a3b      	ldr	r3, [r7, #32]
    88c4:	68db      	ldr	r3, [r3, #12]
    88c6:	791b      	ldrb	r3, [r3, #4]
    88c8:	2b00      	cmp	r3, #0
    88ca:	d005      	beq.n	88d8 <FreeRTOS_I2C_write+0x50>
    88cc:	2b00      	cmp	r3, #0
    88ce:	db3a      	blt.n	8946 <FreeRTOS_I2C_write+0xbe>
    88d0:	3b02      	subs	r3, #2
    88d2:	2b01      	cmp	r3, #1
    88d4:	d837      	bhi.n	8946 <FreeRTOS_I2C_write+0xbe>
    88d6:	e02e      	b.n	8936 <FreeRTOS_I2C_write+0xae>
    88d8:	6a3b      	ldr	r3, [r7, #32]
    88da:	68db      	ldr	r3, [r3, #12]
    88dc:	681b      	ldr	r3, [r3, #0]
    88de:	617b      	str	r3, [r7, #20]
    88e0:	697b      	ldr	r3, [r7, #20]
    88e2:	2b00      	cmp	r3, #0
    88e4:	d104      	bne.n	88f0 <FreeRTOS_I2C_write+0x68>
    88e6:	f04f 0028 	mov.w	r0, #40	; 0x28
    88ea:	f380 8811 	msr	BASEPRI, r0
    88ee:	e7fe      	b.n	88ee <FreeRTOS_I2C_write+0x66>
    88f0:	f997 301b 	ldrsb.w	r3, [r7, #27]
    88f4:	4a21      	ldr	r2, [pc, #132]	; (897c <FreeRTOS_I2C_write+0xf4>)
    88f6:	5cd2      	ldrb	r2, [r2, r3]
    88f8:	697b      	ldr	r3, [r7, #20]
    88fa:	701a      	strb	r2, [r3, #0]
    88fc:	697b      	ldr	r3, [r7, #20]
    88fe:	68ba      	ldr	r2, [r7, #8]
    8900:	605a      	str	r2, [r3, #4]
    8902:	687a      	ldr	r2, [r7, #4]
    8904:	697b      	ldr	r3, [r7, #20]
    8906:	609a      	str	r2, [r3, #8]
    8908:	697b      	ldr	r3, [r7, #20]
    890a:	2200      	movs	r2, #0
    890c:	60da      	str	r2, [r3, #12]
    890e:	697b      	ldr	r3, [r7, #20]
    8910:	2200      	movs	r2, #0
    8912:	611a      	str	r2, [r3, #16]
    8914:	7efb      	ldrb	r3, [r7, #27]
    8916:	6979      	ldr	r1, [r7, #20]
    8918:	4618      	mov	r0, r3
    891a:	f004 fafb 	bl	cf14 <Chip_I2C_MasterTransfer>
    891e:	4603      	mov	r3, r0
    8920:	2b00      	cmp	r3, #0
    8922:	d101      	bne.n	8928 <FreeRTOS_I2C_write+0xa0>
    8924:	687b      	ldr	r3, [r7, #4]
    8926:	627b      	str	r3, [r7, #36]	; 0x24
    8928:	f997 301b 	ldrsb.w	r3, [r7, #27]
    892c:	4a11      	ldr	r2, [pc, #68]	; (8974 <FreeRTOS_I2C_write+0xec>)
    892e:	2100      	movs	r1, #0
    8930:	f842 1023 	str.w	r1, [r2, r3, lsl #2]
    8934:	e018      	b.n	8968 <FreeRTOS_I2C_write+0xe0>
    8936:	6a7b      	ldr	r3, [r7, #36]	; 0x24
    8938:	2b00      	cmp	r3, #0
    893a:	d112      	bne.n	8962 <FreeRTOS_I2C_write+0xda>
    893c:	f04f 0028 	mov.w	r0, #40	; 0x28
    8940:	f380 8811 	msr	BASEPRI, r0
    8944:	e7fe      	b.n	8944 <FreeRTOS_I2C_write+0xbc>
    8946:	f997 301b 	ldrsb.w	r3, [r7, #27]
    894a:	4a0a      	ldr	r2, [pc, #40]	; (8974 <FreeRTOS_I2C_write+0xec>)
    894c:	2100      	movs	r1, #0
    894e:	f842 1023 	str.w	r1, [r2, r3, lsl #2]
    8952:	6a7b      	ldr	r3, [r7, #36]	; 0x24
    8954:	2b00      	cmp	r3, #0
    8956:	d106      	bne.n	8966 <FreeRTOS_I2C_write+0xde>
    8958:	f04f 0028 	mov.w	r0, #40	; 0x28
    895c:	f380 8811 	msr	BASEPRI, r0
    8960:	e7fe      	b.n	8960 <FreeRTOS_I2C_write+0xd8>
    8962:	bf00      	nop
    8964:	e000      	b.n	8968 <FreeRTOS_I2C_write+0xe0>
    8966:	bf00      	nop
    8968:	6a7b      	ldr	r3, [r7, #36]	; 0x24
    896a:	4618      	mov	r0, r3
    896c:	3728      	adds	r7, #40	; 0x28
    896e:	46bd      	mov	sp, r7
    8970:	bd80      	pop	{r7, pc}
    8972:	bf00      	nop
    8974:	1000401c 	.word	0x1000401c
    8978:	1000402c 	.word	0x1000402c
    897c:	10004028 	.word	0x10004028

00008980 <FreeRTOS_I2C_read>:
    8980:	b580      	push	{r7, lr}
    8982:	b08a      	sub	sp, #40	; 0x28
    8984:	af00      	add	r7, sp, #0
    8986:	60f8      	str	r0, [r7, #12]
    8988:	60b9      	str	r1, [r7, #8]
    898a:	607a      	str	r2, [r7, #4]
    898c:	68fb      	ldr	r3, [r7, #12]
    898e:	623b      	str	r3, [r7, #32]
    8990:	2300      	movs	r3, #0
    8992:	627b      	str	r3, [r7, #36]	; 0x24
    8994:	6a3b      	ldr	r3, [r7, #32]
    8996:	695b      	ldr	r3, [r3, #20]
    8998:	689b      	ldr	r3, [r3, #8]
    899a:	61fb      	str	r3, [r7, #28]
    899c:	68fb      	ldr	r3, [r7, #12]
    899e:	7e1b      	ldrb	r3, [r3, #24]
    89a0:	76fb      	strb	r3, [r7, #27]
    89a2:	f997 301b 	ldrsb.w	r3, [r7, #27]
    89a6:	2b02      	cmp	r3, #2
    89a8:	dd04      	ble.n	89b4 <FreeRTOS_I2C_read+0x34>
    89aa:	f04f 0028 	mov.w	r0, #40	; 0x28
    89ae:	f380 8811 	msr	BASEPRI, r0
    89b2:	e7fe      	b.n	89b2 <FreeRTOS_I2C_read+0x32>
    89b4:	687b      	ldr	r3, [r7, #4]
    89b6:	2b00      	cmp	r3, #0
    89b8:	d104      	bne.n	89c4 <FreeRTOS_I2C_read+0x44>
    89ba:	f04f 0028 	mov.w	r0, #40	; 0x28
    89be:	f380 8811 	msr	BASEPRI, r0
    89c2:	e7fe      	b.n	89c2 <FreeRTOS_I2C_read+0x42>
    89c4:	6a3b      	ldr	r3, [r7, #32]
    89c6:	691b      	ldr	r3, [r3, #16]
    89c8:	791b      	ldrb	r3, [r3, #4]
    89ca:	2b01      	cmp	r3, #1
    89cc:	d005      	beq.n	89da <FreeRTOS_I2C_read+0x5a>
    89ce:	2b01      	cmp	r3, #1
    89d0:	db34      	blt.n	8a3c <FreeRTOS_I2C_read+0xbc>
    89d2:	3b04      	subs	r3, #4
    89d4:	2b01      	cmp	r3, #1
    89d6:	d831      	bhi.n	8a3c <FreeRTOS_I2C_read+0xbc>
    89d8:	e028      	b.n	8a2c <FreeRTOS_I2C_read+0xac>
    89da:	6a3b      	ldr	r3, [r7, #32]
    89dc:	691b      	ldr	r3, [r3, #16]
    89de:	681b      	ldr	r3, [r3, #0]
    89e0:	617b      	str	r3, [r7, #20]
    89e2:	697b      	ldr	r3, [r7, #20]
    89e4:	2b00      	cmp	r3, #0
    89e6:	d104      	bne.n	89f2 <FreeRTOS_I2C_read+0x72>
    89e8:	f04f 0028 	mov.w	r0, #40	; 0x28
    89ec:	f380 8811 	msr	BASEPRI, r0
    89f0:	e7fe      	b.n	89f0 <FreeRTOS_I2C_read+0x70>
    89f2:	f997 301b 	ldrsb.w	r3, [r7, #27]
    89f6:	4a1a      	ldr	r2, [pc, #104]	; (8a60 <FreeRTOS_I2C_read+0xe0>)
    89f8:	5cd2      	ldrb	r2, [r2, r3]
    89fa:	697b      	ldr	r3, [r7, #20]
    89fc:	701a      	strb	r2, [r3, #0]
    89fe:	697b      	ldr	r3, [r7, #20]
    8a00:	2200      	movs	r2, #0
    8a02:	605a      	str	r2, [r3, #4]
    8a04:	697b      	ldr	r3, [r7, #20]
    8a06:	2200      	movs	r2, #0
    8a08:	609a      	str	r2, [r3, #8]
    8a0a:	697b      	ldr	r3, [r7, #20]
    8a0c:	68ba      	ldr	r2, [r7, #8]
    8a0e:	60da      	str	r2, [r3, #12]
    8a10:	687a      	ldr	r2, [r7, #4]
    8a12:	697b      	ldr	r3, [r7, #20]
    8a14:	611a      	str	r2, [r3, #16]
    8a16:	7efb      	ldrb	r3, [r7, #27]
    8a18:	6979      	ldr	r1, [r7, #20]
    8a1a:	4618      	mov	r0, r3
    8a1c:	f004 fa7a 	bl	cf14 <Chip_I2C_MasterTransfer>
    8a20:	4603      	mov	r3, r0
    8a22:	2b00      	cmp	r3, #0
    8a24:	d112      	bne.n	8a4c <FreeRTOS_I2C_read+0xcc>
    8a26:	687b      	ldr	r3, [r7, #4]
    8a28:	627b      	str	r3, [r7, #36]	; 0x24
    8a2a:	e00f      	b.n	8a4c <FreeRTOS_I2C_read+0xcc>
    8a2c:	6a7b      	ldr	r3, [r7, #36]	; 0x24
    8a2e:	2b00      	cmp	r3, #0
    8a30:	d10e      	bne.n	8a50 <FreeRTOS_I2C_read+0xd0>
    8a32:	f04f 0028 	mov.w	r0, #40	; 0x28
    8a36:	f380 8811 	msr	BASEPRI, r0
    8a3a:	e7fe      	b.n	8a3a <FreeRTOS_I2C_read+0xba>
    8a3c:	6a7b      	ldr	r3, [r7, #36]	; 0x24
    8a3e:	2b00      	cmp	r3, #0
    8a40:	d108      	bne.n	8a54 <FreeRTOS_I2C_read+0xd4>
    8a42:	f04f 0028 	mov.w	r0, #40	; 0x28
    8a46:	f380 8811 	msr	BASEPRI, r0
    8a4a:	e7fe      	b.n	8a4a <FreeRTOS_I2C_read+0xca>
    8a4c:	bf00      	nop
    8a4e:	e002      	b.n	8a56 <FreeRTOS_I2C_read+0xd6>
    8a50:	bf00      	nop
    8a52:	e000      	b.n	8a56 <FreeRTOS_I2C_read+0xd6>
    8a54:	bf00      	nop
    8a56:	6a7b      	ldr	r3, [r7, #36]	; 0x24
    8a58:	4618      	mov	r0, r3
    8a5a:	3728      	adds	r7, #40	; 0x28
    8a5c:	46bd      	mov	sp, r7
    8a5e:	bd80      	pop	{r7, pc}
    8a60:	10004028 	.word	0x10004028

00008a64 <FreeRTOS_I2C_ioctl>:
    8a64:	b580      	push	{r7, lr}
    8a66:	b08a      	sub	sp, #40	; 0x28
    8a68:	af00      	add	r7, sp, #0
    8a6a:	60f8      	str	r0, [r7, #12]
    8a6c:	60b9      	str	r1, [r7, #8]
    8a6e:	607a      	str	r2, [r7, #4]
    8a70:	68fb      	ldr	r3, [r7, #12]
    8a72:	623b      	str	r3, [r7, #32]
    8a74:	687b      	ldr	r3, [r7, #4]
    8a76:	61fb      	str	r3, [r7, #28]
    8a78:	68fb      	ldr	r3, [r7, #12]
    8a7a:	7e1b      	ldrb	r3, [r3, #24]
    8a7c:	76fb      	strb	r3, [r7, #27]
    8a7e:	2301      	movs	r3, #1
    8a80:	627b      	str	r3, [r7, #36]	; 0x24
    8a82:	68fb      	ldr	r3, [r7, #12]
    8a84:	695b      	ldr	r3, [r3, #20]
    8a86:	689b      	ldr	r3, [r3, #8]
    8a88:	617b      	str	r3, [r7, #20]
    8a8a:	f997 301b 	ldrsb.w	r3, [r7, #27]
    8a8e:	2b02      	cmp	r3, #2
    8a90:	dd04      	ble.n	8a9c <FreeRTOS_I2C_ioctl+0x38>
    8a92:	f04f 0028 	mov.w	r0, #40	; 0x28
    8a96:	f380 8811 	msr	BASEPRI, r0
    8a9a:	e7fe      	b.n	8a9a <FreeRTOS_I2C_ioctl+0x36>
    8a9c:	f7ff f98c 	bl	7db8 <vPortEnterCritical>
    8aa0:	68bb      	ldr	r3, [r7, #8]
    8aa2:	2b64      	cmp	r3, #100	; 0x64
    8aa4:	d009      	beq.n	8aba <FreeRTOS_I2C_ioctl+0x56>
    8aa6:	f5b3 7f96 	cmp.w	r3, #300	; 0x12c
    8aaa:	d10c      	bne.n	8ac6 <FreeRTOS_I2C_ioctl+0x62>
    8aac:	f997 301b 	ldrsb.w	r3, [r7, #27]
    8ab0:	69fa      	ldr	r2, [r7, #28]
    8ab2:	b2d1      	uxtb	r1, r2
    8ab4:	4a09      	ldr	r2, [pc, #36]	; (8adc <FreeRTOS_I2C_ioctl+0x78>)
    8ab6:	54d1      	strb	r1, [r2, r3]
    8ab8:	e008      	b.n	8acc <FreeRTOS_I2C_ioctl+0x68>
    8aba:	7efb      	ldrb	r3, [r7, #27]
    8abc:	69f9      	ldr	r1, [r7, #28]
    8abe:	4618      	mov	r0, r3
    8ac0:	f004 f9d0 	bl	ce64 <Chip_I2C_SetClockRate>
    8ac4:	e002      	b.n	8acc <FreeRTOS_I2C_ioctl+0x68>
    8ac6:	2300      	movs	r3, #0
    8ac8:	627b      	str	r3, [r7, #36]	; 0x24
    8aca:	bf00      	nop
    8acc:	f7ff f992 	bl	7df4 <vPortExitCritical>
    8ad0:	6a7b      	ldr	r3, [r7, #36]	; 0x24
    8ad2:	4618      	mov	r0, r3
    8ad4:	3728      	adds	r7, #40	; 0x28
    8ad6:	46bd      	mov	sp, r7
    8ad8:	bd80      	pop	{r7, pc}
    8ada:	bf00      	nop
    8adc:	10004028 	.word	0x10004028

00008ae0 <NVIC_EnableIRQ>:
    8ae0:	b480      	push	{r7}
    8ae2:	b083      	sub	sp, #12
    8ae4:	af00      	add	r7, sp, #0
    8ae6:	4603      	mov	r3, r0
    8ae8:	71fb      	strb	r3, [r7, #7]
    8aea:	4908      	ldr	r1, [pc, #32]	; (8b0c <NVIC_EnableIRQ+0x2c>)
    8aec:	f997 3007 	ldrsb.w	r3, [r7, #7]
    8af0:	095b      	lsrs	r3, r3, #5
    8af2:	79fa      	ldrb	r2, [r7, #7]
    8af4:	f002 021f 	and.w	r2, r2, #31
    8af8:	2001      	movs	r0, #1
    8afa:	fa00 f202 	lsl.w	r2, r0, r2
    8afe:	f841 2023 	str.w	r2, [r1, r3, lsl #2]
    8b02:	bf00      	nop
    8b04:	370c      	adds	r7, #12
    8b06:	46bd      	mov	sp, r7
    8b08:	bc80      	pop	{r7}
    8b0a:	4770      	bx	lr
    8b0c:	e000e100 	.word	0xe000e100

00008b10 <NVIC_DisableIRQ>:
    8b10:	b480      	push	{r7}
    8b12:	b083      	sub	sp, #12
    8b14:	af00      	add	r7, sp, #0
    8b16:	4603      	mov	r3, r0
    8b18:	71fb      	strb	r3, [r7, #7]
    8b1a:	4909      	ldr	r1, [pc, #36]	; (8b40 <NVIC_DisableIRQ+0x30>)
    8b1c:	f997 3007 	ldrsb.w	r3, [r7, #7]
    8b20:	095b      	lsrs	r3, r3, #5
    8b22:	79fa      	ldrb	r2, [r7, #7]
    8b24:	f002 021f 	and.w	r2, r2, #31
    8b28:	2001      	movs	r0, #1
    8b2a:	fa00 f202 	lsl.w	r2, r0, r2
    8b2e:	3320      	adds	r3, #32
    8b30:	f841 2023 	str.w	r2, [r1, r3, lsl #2]
    8b34:	bf00      	nop
    8b36:	370c      	adds	r7, #12
    8b38:	46bd      	mov	sp, r7
    8b3a:	bc80      	pop	{r7}
    8b3c:	4770      	bx	lr
    8b3e:	bf00      	nop
    8b40:	e000e100 	.word	0xe000e100

00008b44 <NVIC_SetPriority>:
    8b44:	b480      	push	{r7}
    8b46:	b083      	sub	sp, #12
    8b48:	af00      	add	r7, sp, #0
    8b4a:	4603      	mov	r3, r0
    8b4c:	6039      	str	r1, [r7, #0]
    8b4e:	71fb      	strb	r3, [r7, #7]
    8b50:	f997 3007 	ldrsb.w	r3, [r7, #7]
    8b54:	2b00      	cmp	r3, #0
    8b56:	da0b      	bge.n	8b70 <NVIC_SetPriority+0x2c>
    8b58:	490d      	ldr	r1, [pc, #52]	; (8b90 <NVIC_SetPriority+0x4c>)
    8b5a:	79fb      	ldrb	r3, [r7, #7]
    8b5c:	f003 030f 	and.w	r3, r3, #15
    8b60:	3b04      	subs	r3, #4
    8b62:	683a      	ldr	r2, [r7, #0]
    8b64:	b2d2      	uxtb	r2, r2
    8b66:	00d2      	lsls	r2, r2, #3
    8b68:	b2d2      	uxtb	r2, r2
    8b6a:	440b      	add	r3, r1
    8b6c:	761a      	strb	r2, [r3, #24]
    8b6e:	e009      	b.n	8b84 <NVIC_SetPriority+0x40>
    8b70:	4908      	ldr	r1, [pc, #32]	; (8b94 <NVIC_SetPriority+0x50>)
    8b72:	f997 3007 	ldrsb.w	r3, [r7, #7]
    8b76:	683a      	ldr	r2, [r7, #0]
    8b78:	b2d2      	uxtb	r2, r2
    8b7a:	00d2      	lsls	r2, r2, #3
    8b7c:	b2d2      	uxtb	r2, r2
    8b7e:	440b      	add	r3, r1
    8b80:	f883 2300 	strb.w	r2, [r3, #768]	; 0x300
    8b84:	bf00      	nop
    8b86:	370c      	adds	r7, #12
    8b88:	46bd      	mov	sp, r7
    8b8a:	bc80      	pop	{r7}
    8b8c:	4770      	bx	lr
    8b8e:	bf00      	nop
    8b90:	e000ed00 	.word	0xe000ed00
    8b94:	e000e100 	.word	0xe000e100

00008b98 <Chip_IOCON_DisableOD>:
    8b98:	b480      	push	{r7}
    8b9a:	b083      	sub	sp, #12
    8b9c:	af00      	add	r7, sp, #0
    8b9e:	6078      	str	r0, [r7, #4]
    8ba0:	460b      	mov	r3, r1
    8ba2:	70fb      	strb	r3, [r7, #3]
    8ba4:	4613      	mov	r3, r2
    8ba6:	70bb      	strb	r3, [r7, #2]
    8ba8:	78fa      	ldrb	r2, [r7, #3]
    8baa:	78f9      	ldrb	r1, [r7, #3]
    8bac:	687b      	ldr	r3, [r7, #4]
    8bae:	311a      	adds	r1, #26
    8bb0:	f853 1021 	ldr.w	r1, [r3, r1, lsl #2]
    8bb4:	78bb      	ldrb	r3, [r7, #2]
    8bb6:	2001      	movs	r0, #1
    8bb8:	fa00 f303 	lsl.w	r3, r0, r3
    8bbc:	43db      	mvns	r3, r3
    8bbe:	4019      	ands	r1, r3
    8bc0:	687b      	ldr	r3, [r7, #4]
    8bc2:	321a      	adds	r2, #26
    8bc4:	f843 1022 	str.w	r1, [r3, r2, lsl #2]
    8bc8:	bf00      	nop
    8bca:	370c      	adds	r7, #12
    8bcc:	46bd      	mov	sp, r7
    8bce:	bc80      	pop	{r7}
    8bd0:	4770      	bx	lr
    8bd2:	bf00      	nop

00008bd4 <Chip_SSP_Enable>:
    8bd4:	b480      	push	{r7}
    8bd6:	b083      	sub	sp, #12
    8bd8:	af00      	add	r7, sp, #0
    8bda:	6078      	str	r0, [r7, #4]
    8bdc:	687b      	ldr	r3, [r7, #4]
    8bde:	685b      	ldr	r3, [r3, #4]
    8be0:	f043 0202 	orr.w	r2, r3, #2
    8be4:	687b      	ldr	r3, [r7, #4]
    8be6:	605a      	str	r2, [r3, #4]
    8be8:	bf00      	nop
    8bea:	370c      	adds	r7, #12
    8bec:	46bd      	mov	sp, r7
    8bee:	bc80      	pop	{r7}
    8bf0:	4770      	bx	lr
    8bf2:	bf00      	nop

00008bf4 <Chip_SSP_Disable>:
    8bf4:	b480      	push	{r7}
    8bf6:	b083      	sub	sp, #12
    8bf8:	af00      	add	r7, sp, #0
    8bfa:	6078      	str	r0, [r7, #4]
    8bfc:	687b      	ldr	r3, [r7, #4]
    8bfe:	685b      	ldr	r3, [r3, #4]
    8c00:	f003 020d 	and.w	r2, r3, #13
    8c04:	687b      	ldr	r3, [r7, #4]
    8c06:	605a      	str	r2, [r3, #4]
    8c08:	bf00      	nop
    8c0a:	370c      	adds	r7, #12
    8c0c:	46bd      	mov	sp, r7
    8c0e:	bc80      	pop	{r7}
    8c10:	4770      	bx	lr
    8c12:	bf00      	nop

00008c14 <Chip_SSP_Int_Enable>:
    8c14:	b480      	push	{r7}
    8c16:	b083      	sub	sp, #12
    8c18:	af00      	add	r7, sp, #0
    8c1a:	6078      	str	r0, [r7, #4]
    8c1c:	687b      	ldr	r3, [r7, #4]
    8c1e:	695b      	ldr	r3, [r3, #20]
    8c20:	f043 0208 	orr.w	r2, r3, #8
    8c24:	687b      	ldr	r3, [r7, #4]
    8c26:	615a      	str	r2, [r3, #20]
    8c28:	bf00      	nop
    8c2a:	370c      	adds	r7, #12
    8c2c:	46bd      	mov	sp, r7
    8c2e:	bc80      	pop	{r7}
    8c30:	4770      	bx	lr
    8c32:	bf00      	nop

00008c34 <Chip_SSP_Int_Disable>:
    8c34:	b480      	push	{r7}
    8c36:	b083      	sub	sp, #12
    8c38:	af00      	add	r7, sp, #0
    8c3a:	6078      	str	r0, [r7, #4]
    8c3c:	687b      	ldr	r3, [r7, #4]
    8c3e:	695b      	ldr	r3, [r3, #20]
    8c40:	f023 0208 	bic.w	r2, r3, #8
    8c44:	687b      	ldr	r3, [r7, #4]
    8c46:	615a      	str	r2, [r3, #20]
    8c48:	bf00      	nop
    8c4a:	370c      	adds	r7, #12
    8c4c:	46bd      	mov	sp, r7
    8c4e:	bc80      	pop	{r7}
    8c50:	4770      	bx	lr
    8c52:	bf00      	nop

00008c54 <Chip_SSP_SetFormat>:
    8c54:	b480      	push	{r7}
    8c56:	b085      	sub	sp, #20
    8c58:	af00      	add	r7, sp, #0
    8c5a:	60f8      	str	r0, [r7, #12]
    8c5c:	60b9      	str	r1, [r7, #8]
    8c5e:	607a      	str	r2, [r7, #4]
    8c60:	603b      	str	r3, [r7, #0]
    8c62:	68fb      	ldr	r3, [r7, #12]
    8c64:	681b      	ldr	r3, [r3, #0]
    8c66:	f023 02ff 	bic.w	r2, r3, #255	; 0xff
    8c6a:	68bb      	ldr	r3, [r7, #8]
    8c6c:	431a      	orrs	r2, r3
    8c6e:	687b      	ldr	r3, [r7, #4]
    8c70:	431a      	orrs	r2, r3
    8c72:	683b      	ldr	r3, [r7, #0]
    8c74:	431a      	orrs	r2, r3
    8c76:	68fb      	ldr	r3, [r7, #12]
    8c78:	601a      	str	r2, [r3, #0]
    8c7a:	bf00      	nop
    8c7c:	3714      	adds	r7, #20
    8c7e:	46bd      	mov	sp, r7
    8c80:	bc80      	pop	{r7}
    8c82:	4770      	bx	lr

00008c84 <Chip_SSP_Set_Mode>:
    8c84:	b480      	push	{r7}
    8c86:	b083      	sub	sp, #12
    8c88:	af00      	add	r7, sp, #0
    8c8a:	6078      	str	r0, [r7, #4]
    8c8c:	6039      	str	r1, [r7, #0]
    8c8e:	687b      	ldr	r3, [r7, #4]
    8c90:	685b      	ldr	r3, [r3, #4]
    8c92:	f023 0204 	bic.w	r2, r3, #4
    8c96:	683b      	ldr	r3, [r7, #0]
    8c98:	431a      	orrs	r2, r3
    8c9a:	687b      	ldr	r3, [r7, #4]
    8c9c:	605a      	str	r2, [r3, #4]
    8c9e:	bf00      	nop
    8ca0:	370c      	adds	r7, #12
    8ca2:	46bd      	mov	sp, r7
    8ca4:	bc80      	pop	{r7}
    8ca6:	4770      	bx	lr

00008ca8 <FreeRTOS_SSP_open>:
    8ca8:	b580      	push	{r7, lr}
    8caa:	b088      	sub	sp, #32
    8cac:	af00      	add	r7, sp, #0
    8cae:	6078      	str	r0, [r7, #4]
    8cb0:	2300      	movs	r3, #0
    8cb2:	61fb      	str	r3, [r7, #28]
    8cb4:	687b      	ldr	r3, [r7, #4]
    8cb6:	695b      	ldr	r3, [r3, #20]
    8cb8:	689b      	ldr	r3, [r3, #8]
    8cba:	61bb      	str	r3, [r7, #24]
    8cbc:	687b      	ldr	r3, [r7, #4]
    8cbe:	7e1b      	ldrb	r3, [r3, #24]
    8cc0:	75fb      	strb	r3, [r7, #23]
    8cc2:	f997 3017 	ldrsb.w	r3, [r7, #23]
    8cc6:	2b01      	cmp	r3, #1
    8cc8:	f300 80bc 	bgt.w	8e44 <FreeRTOS_SSP_open+0x19c>
    8ccc:	2014      	movs	r0, #20
    8cce:	f7ff fa03 	bl	80d8 <MPU_pvPortMalloc>
    8cd2:	6138      	str	r0, [r7, #16]
    8cd4:	693b      	ldr	r3, [r7, #16]
    8cd6:	2b00      	cmp	r3, #0
    8cd8:	f000 80b4 	beq.w	8e44 <FreeRTOS_SSP_open+0x19c>
    8cdc:	687b      	ldr	r3, [r7, #4]
    8cde:	330c      	adds	r3, #12
    8ce0:	4618      	mov	r0, r3
    8ce2:	f001 faf1 	bl	a2c8 <vIOUtilsCreateTransferControlStructure>
    8ce6:	687b      	ldr	r3, [r7, #4]
    8ce8:	3310      	adds	r3, #16
    8cea:	4618      	mov	r0, r3
    8cec:	f001 faec 	bl	a2c8 <vIOUtilsCreateTransferControlStructure>
    8cf0:	687b      	ldr	r3, [r7, #4]
    8cf2:	68db      	ldr	r3, [r3, #12]
    8cf4:	2b00      	cmp	r3, #0
    8cf6:	f000 808a 	beq.w	8e0e <FreeRTOS_SSP_open+0x166>
    8cfa:	687b      	ldr	r3, [r7, #4]
    8cfc:	68db      	ldr	r3, [r3, #12]
    8cfe:	2b00      	cmp	r3, #0
    8d00:	f000 8085 	beq.w	8e0e <FreeRTOS_SSP_open+0x166>
    8d04:	687b      	ldr	r3, [r7, #4]
    8d06:	4a52      	ldr	r2, [pc, #328]	; (8e50 <FreeRTOS_SSP_open+0x1a8>)
    8d08:	605a      	str	r2, [r3, #4]
    8d0a:	687b      	ldr	r3, [r7, #4]
    8d0c:	4a51      	ldr	r2, [pc, #324]	; (8e54 <FreeRTOS_SSP_open+0x1ac>)
    8d0e:	601a      	str	r2, [r3, #0]
    8d10:	687b      	ldr	r3, [r7, #4]
    8d12:	4a51      	ldr	r2, [pc, #324]	; (8e58 <FreeRTOS_SSP_open+0x1b0>)
    8d14:	609a      	str	r2, [r3, #8]
    8d16:	687b      	ldr	r3, [r7, #4]
    8d18:	68db      	ldr	r3, [r3, #12]
    8d1a:	693a      	ldr	r2, [r7, #16]
    8d1c:	601a      	str	r2, [r3, #0]
    8d1e:	687b      	ldr	r3, [r7, #4]
    8d20:	68db      	ldr	r3, [r3, #12]
    8d22:	2200      	movs	r2, #0
    8d24:	711a      	strb	r2, [r3, #4]
    8d26:	687b      	ldr	r3, [r7, #4]
    8d28:	691b      	ldr	r3, [r3, #16]
    8d2a:	2200      	movs	r2, #0
    8d2c:	601a      	str	r2, [r3, #0]
    8d2e:	687b      	ldr	r3, [r7, #4]
    8d30:	691b      	ldr	r3, [r3, #16]
    8d32:	2201      	movs	r2, #1
    8d34:	711a      	strb	r2, [r3, #4]
    8d36:	f7ff f83f 	bl	7db8 <vPortEnterCritical>
    8d3a:	f997 3017 	ldrsb.w	r3, [r7, #23]
    8d3e:	2b01      	cmp	r3, #1
    8d40:	d160      	bne.n	8e04 <FreeRTOS_SSP_open+0x15c>
    8d42:	7b3b      	ldrb	r3, [r7, #12]
    8d44:	f36f 0302 	bfc	r3, #0, #3
    8d48:	733b      	strb	r3, [r7, #12]
    8d4a:	7b3b      	ldrb	r3, [r7, #12]
    8d4c:	2207      	movs	r2, #7
    8d4e:	f362 03c7 	bfi	r3, r2, #3, #5
    8d52:	733b      	strb	r3, [r7, #12]
    8d54:	68fb      	ldr	r3, [r7, #12]
    8d56:	2202      	movs	r2, #2
    8d58:	f362 231f 	bfi	r3, r2, #8, #24
    8d5c:	60fb      	str	r3, [r7, #12]
    8d5e:	2302      	movs	r3, #2
    8d60:	2207      	movs	r2, #7
    8d62:	2100      	movs	r1, #0
    8d64:	483d      	ldr	r0, [pc, #244]	; (8e5c <FreeRTOS_SSP_open+0x1b4>)
    8d66:	f004 fa13 	bl	d190 <Chip_IOCON_PinMuxSet>
    8d6a:	2207      	movs	r2, #7
    8d6c:	2100      	movs	r1, #0
    8d6e:	483b      	ldr	r0, [pc, #236]	; (8e5c <FreeRTOS_SSP_open+0x1b4>)
    8d70:	f7ff ff12 	bl	8b98 <Chip_IOCON_DisableOD>
    8d74:	7b3b      	ldrb	r3, [r7, #12]
    8d76:	2208      	movs	r2, #8
    8d78:	f362 03c7 	bfi	r3, r2, #3, #5
    8d7c:	733b      	strb	r3, [r7, #12]
    8d7e:	2302      	movs	r3, #2
    8d80:	2208      	movs	r2, #8
    8d82:	2100      	movs	r1, #0
    8d84:	4835      	ldr	r0, [pc, #212]	; (8e5c <FreeRTOS_SSP_open+0x1b4>)
    8d86:	f004 fa03 	bl	d190 <Chip_IOCON_PinMuxSet>
    8d8a:	2208      	movs	r2, #8
    8d8c:	2100      	movs	r1, #0
    8d8e:	4833      	ldr	r0, [pc, #204]	; (8e5c <FreeRTOS_SSP_open+0x1b4>)
    8d90:	f7ff ff02 	bl	8b98 <Chip_IOCON_DisableOD>
    8d94:	7b3b      	ldrb	r3, [r7, #12]
    8d96:	2209      	movs	r2, #9
    8d98:	f362 03c7 	bfi	r3, r2, #3, #5
    8d9c:	733b      	strb	r3, [r7, #12]
    8d9e:	2302      	movs	r3, #2
    8da0:	2209      	movs	r2, #9
    8da2:	2100      	movs	r1, #0
    8da4:	482d      	ldr	r0, [pc, #180]	; (8e5c <FreeRTOS_SSP_open+0x1b4>)
    8da6:	f004 f9f3 	bl	d190 <Chip_IOCON_PinMuxSet>
    8daa:	2209      	movs	r2, #9
    8dac:	2100      	movs	r1, #0
    8dae:	482b      	ldr	r0, [pc, #172]	; (8e5c <FreeRTOS_SSP_open+0x1b4>)
    8db0:	f7ff fef2 	bl	8b98 <Chip_IOCON_DisableOD>
    8db4:	68fb      	ldr	r3, [r7, #12]
    8db6:	f36f 231f 	bfc	r3, #8, #24
    8dba:	60fb      	str	r3, [r7, #12]
    8dbc:	7b3b      	ldrb	r3, [r7, #12]
    8dbe:	2202      	movs	r2, #2
    8dc0:	f362 0302 	bfi	r3, r2, #0, #3
    8dc4:	733b      	strb	r3, [r7, #12]
    8dc6:	7b3b      	ldrb	r3, [r7, #12]
    8dc8:	2202      	movs	r2, #2
    8dca:	f362 03c7 	bfi	r3, r2, #3, #5
    8dce:	733b      	strb	r3, [r7, #12]
    8dd0:	2300      	movs	r3, #0
    8dd2:	2202      	movs	r2, #2
    8dd4:	2102      	movs	r1, #2
    8dd6:	4821      	ldr	r0, [pc, #132]	; (8e5c <FreeRTOS_SSP_open+0x1b4>)
    8dd8:	f004 f9da 	bl	d190 <Chip_IOCON_PinMuxSet>
    8ddc:	2202      	movs	r2, #2
    8dde:	2102      	movs	r1, #2
    8de0:	481e      	ldr	r0, [pc, #120]	; (8e5c <FreeRTOS_SSP_open+0x1b4>)
    8de2:	f7ff fed9 	bl	8b98 <Chip_IOCON_DisableOD>
    8de6:	bf00      	nop
    8de8:	69b8      	ldr	r0, [r7, #24]
    8dea:	f004 fcd1 	bl	d790 <Chip_SSP_Init>
    8dee:	69b8      	ldr	r0, [r7, #24]
    8df0:	f7ff fef0 	bl	8bd4 <Chip_SSP_Enable>
    8df4:	69b8      	ldr	r0, [r7, #24]
    8df6:	f004 fc6b 	bl	d6d0 <Chip_SSP_Int_FlushData>
    8dfa:	f7fe fffb 	bl	7df4 <vPortExitCritical>
    8dfe:	2301      	movs	r3, #1
    8e00:	61fb      	str	r3, [r7, #28]
    8e02:	e01f      	b.n	8e44 <FreeRTOS_SSP_open+0x19c>
    8e04:	f04f 0028 	mov.w	r0, #40	; 0x28
    8e08:	f380 8811 	msr	BASEPRI, r0
    8e0c:	e7fe      	b.n	8e0c <FreeRTOS_SSP_open+0x164>
    8e0e:	687b      	ldr	r3, [r7, #4]
    8e10:	68db      	ldr	r3, [r3, #12]
    8e12:	2b00      	cmp	r3, #0
    8e14:	d007      	beq.n	8e26 <FreeRTOS_SSP_open+0x17e>
    8e16:	687b      	ldr	r3, [r7, #4]
    8e18:	68db      	ldr	r3, [r3, #12]
    8e1a:	4618      	mov	r0, r3
    8e1c:	f7ff f976 	bl	810c <MPU_vPortFree>
    8e20:	687b      	ldr	r3, [r7, #4]
    8e22:	2200      	movs	r2, #0
    8e24:	60da      	str	r2, [r3, #12]
    8e26:	687b      	ldr	r3, [r7, #4]
    8e28:	691b      	ldr	r3, [r3, #16]
    8e2a:	2b00      	cmp	r3, #0
    8e2c:	d007      	beq.n	8e3e <FreeRTOS_SSP_open+0x196>
    8e2e:	687b      	ldr	r3, [r7, #4]
    8e30:	691b      	ldr	r3, [r3, #16]
    8e32:	4618      	mov	r0, r3
    8e34:	f7ff f96a 	bl	810c <MPU_vPortFree>
    8e38:	687b      	ldr	r3, [r7, #4]
    8e3a:	2200      	movs	r2, #0
    8e3c:	611a      	str	r2, [r3, #16]
    8e3e:	6938      	ldr	r0, [r7, #16]
    8e40:	f7ff f964 	bl	810c <MPU_vPortFree>
    8e44:	69fb      	ldr	r3, [r7, #28]
    8e46:	4618      	mov	r0, r3
    8e48:	3720      	adds	r7, #32
    8e4a:	46bd      	mov	sp, r7
    8e4c:	bd80      	pop	{r7, pc}
    8e4e:	bf00      	nop
    8e50:	00008f15 	.word	0x00008f15
    8e54:	00008e61 	.word	0x00008e61
    8e58:	00008fb5 	.word	0x00008fb5
    8e5c:	4002c000 	.word	0x4002c000

00008e60 <FreeRTOS_SSP_write>:
    8e60:	b580      	push	{r7, lr}
    8e62:	b08a      	sub	sp, #40	; 0x28
    8e64:	af00      	add	r7, sp, #0
    8e66:	60f8      	str	r0, [r7, #12]
    8e68:	60b9      	str	r1, [r7, #8]
    8e6a:	607a      	str	r2, [r7, #4]
    8e6c:	68fb      	ldr	r3, [r7, #12]
    8e6e:	627b      	str	r3, [r7, #36]	; 0x24
    8e70:	2300      	movs	r3, #0
    8e72:	623b      	str	r3, [r7, #32]
    8e74:	68fb      	ldr	r3, [r7, #12]
    8e76:	695b      	ldr	r3, [r3, #20]
    8e78:	689b      	ldr	r3, [r3, #8]
    8e7a:	61fb      	str	r3, [r7, #28]
    8e7c:	68fb      	ldr	r3, [r7, #12]
    8e7e:	f993 3018 	ldrsb.w	r3, [r3, #24]
    8e82:	61bb      	str	r3, [r7, #24]
    8e84:	6a7b      	ldr	r3, [r7, #36]	; 0x24
    8e86:	68da      	ldr	r2, [r3, #12]
    8e88:	4921      	ldr	r1, [pc, #132]	; (8f10 <FreeRTOS_SSP_write+0xb0>)
    8e8a:	69bb      	ldr	r3, [r7, #24]
    8e8c:	f841 2023 	str.w	r2, [r1, r3, lsl #2]
    8e90:	6a7b      	ldr	r3, [r7, #36]	; 0x24
    8e92:	68db      	ldr	r3, [r3, #12]
    8e94:	791b      	ldrb	r3, [r3, #4]
    8e96:	2b02      	cmp	r3, #2
    8e98:	d02f      	beq.n	8efa <FreeRTOS_SSP_write+0x9a>
    8e9a:	2b03      	cmp	r3, #3
    8e9c:	d02f      	beq.n	8efe <FreeRTOS_SSP_write+0x9e>
    8e9e:	2b00      	cmp	r3, #0
    8ea0:	d11e      	bne.n	8ee0 <FreeRTOS_SSP_write+0x80>
    8ea2:	6a7b      	ldr	r3, [r7, #36]	; 0x24
    8ea4:	68db      	ldr	r3, [r3, #12]
    8ea6:	681b      	ldr	r3, [r3, #0]
    8ea8:	617b      	str	r3, [r7, #20]
    8eaa:	697b      	ldr	r3, [r7, #20]
    8eac:	2b00      	cmp	r3, #0
    8eae:	d104      	bne.n	8eba <FreeRTOS_SSP_write+0x5a>
    8eb0:	f04f 0028 	mov.w	r0, #40	; 0x28
    8eb4:	f380 8811 	msr	BASEPRI, r0
    8eb8:	e7fe      	b.n	8eb8 <FreeRTOS_SSP_write+0x58>
    8eba:	697b      	ldr	r3, [r7, #20]
    8ebc:	68ba      	ldr	r2, [r7, #8]
    8ebe:	601a      	str	r2, [r3, #0]
    8ec0:	697b      	ldr	r3, [r7, #20]
    8ec2:	2200      	movs	r2, #0
    8ec4:	609a      	str	r2, [r3, #8]
    8ec6:	697b      	ldr	r3, [r7, #20]
    8ec8:	687a      	ldr	r2, [r7, #4]
    8eca:	611a      	str	r2, [r3, #16]
    8ecc:	6979      	ldr	r1, [r7, #20]
    8ece:	69f8      	ldr	r0, [r7, #28]
    8ed0:	f004 fb7a 	bl	d5c8 <Chip_SSP_RWFrames_Blocking>
    8ed4:	4a0e      	ldr	r2, [pc, #56]	; (8f10 <FreeRTOS_SSP_write+0xb0>)
    8ed6:	69bb      	ldr	r3, [r7, #24]
    8ed8:	2100      	movs	r1, #0
    8eda:	f842 1023 	str.w	r1, [r2, r3, lsl #2]
    8ede:	e011      	b.n	8f04 <FreeRTOS_SSP_write+0xa4>
    8ee0:	4a0b      	ldr	r2, [pc, #44]	; (8f10 <FreeRTOS_SSP_write+0xb0>)
    8ee2:	69bb      	ldr	r3, [r7, #24]
    8ee4:	2100      	movs	r1, #0
    8ee6:	f842 1023 	str.w	r1, [r2, r3, lsl #2]
    8eea:	6a3b      	ldr	r3, [r7, #32]
    8eec:	2b00      	cmp	r3, #0
    8eee:	d108      	bne.n	8f02 <FreeRTOS_SSP_write+0xa2>
    8ef0:	f04f 0028 	mov.w	r0, #40	; 0x28
    8ef4:	f380 8811 	msr	BASEPRI, r0
    8ef8:	e7fe      	b.n	8ef8 <FreeRTOS_SSP_write+0x98>
    8efa:	bf00      	nop
    8efc:	e002      	b.n	8f04 <FreeRTOS_SSP_write+0xa4>
    8efe:	bf00      	nop
    8f00:	e000      	b.n	8f04 <FreeRTOS_SSP_write+0xa4>
    8f02:	bf00      	nop
    8f04:	6a3b      	ldr	r3, [r7, #32]
    8f06:	4618      	mov	r0, r3
    8f08:	3728      	adds	r7, #40	; 0x28
    8f0a:	46bd      	mov	sp, r7
    8f0c:	bd80      	pop	{r7, pc}
    8f0e:	bf00      	nop
    8f10:	10004030 	.word	0x10004030

00008f14 <FreeRTOS_SSP_read>:
    8f14:	b580      	push	{r7, lr}
    8f16:	b08a      	sub	sp, #40	; 0x28
    8f18:	af00      	add	r7, sp, #0
    8f1a:	60f8      	str	r0, [r7, #12]
    8f1c:	60b9      	str	r1, [r7, #8]
    8f1e:	607a      	str	r2, [r7, #4]
    8f20:	68fb      	ldr	r3, [r7, #12]
    8f22:	623b      	str	r3, [r7, #32]
    8f24:	2300      	movs	r3, #0
    8f26:	627b      	str	r3, [r7, #36]	; 0x24
    8f28:	68fb      	ldr	r3, [r7, #12]
    8f2a:	695b      	ldr	r3, [r3, #20]
    8f2c:	689b      	ldr	r3, [r3, #8]
    8f2e:	61fb      	str	r3, [r7, #28]
    8f30:	68fb      	ldr	r3, [r7, #12]
    8f32:	7e1b      	ldrb	r3, [r3, #24]
    8f34:	76fb      	strb	r3, [r7, #27]
    8f36:	f997 301b 	ldrsb.w	r3, [r7, #27]
    8f3a:	2b01      	cmp	r3, #1
    8f3c:	dd04      	ble.n	8f48 <FreeRTOS_SSP_read+0x34>
    8f3e:	f04f 0028 	mov.w	r0, #40	; 0x28
    8f42:	f380 8811 	msr	BASEPRI, r0
    8f46:	e7fe      	b.n	8f46 <FreeRTOS_SSP_read+0x32>
    8f48:	6a3b      	ldr	r3, [r7, #32]
    8f4a:	691b      	ldr	r3, [r3, #16]
    8f4c:	791b      	ldrb	r3, [r3, #4]
    8f4e:	2b04      	cmp	r3, #4
    8f50:	d026      	beq.n	8fa0 <FreeRTOS_SSP_read+0x8c>
    8f52:	2b05      	cmp	r3, #5
    8f54:	d026      	beq.n	8fa4 <FreeRTOS_SSP_read+0x90>
    8f56:	2b01      	cmp	r3, #1
    8f58:	d11a      	bne.n	8f90 <FreeRTOS_SSP_read+0x7c>
    8f5a:	6a3b      	ldr	r3, [r7, #32]
    8f5c:	68db      	ldr	r3, [r3, #12]
    8f5e:	681b      	ldr	r3, [r3, #0]
    8f60:	617b      	str	r3, [r7, #20]
    8f62:	697b      	ldr	r3, [r7, #20]
    8f64:	2b00      	cmp	r3, #0
    8f66:	d104      	bne.n	8f72 <FreeRTOS_SSP_read+0x5e>
    8f68:	f04f 0028 	mov.w	r0, #40	; 0x28
    8f6c:	f380 8811 	msr	BASEPRI, r0
    8f70:	e7fe      	b.n	8f70 <FreeRTOS_SSP_read+0x5c>
    8f72:	697b      	ldr	r3, [r7, #20]
    8f74:	2200      	movs	r2, #0
    8f76:	601a      	str	r2, [r3, #0]
    8f78:	697b      	ldr	r3, [r7, #20]
    8f7a:	68ba      	ldr	r2, [r7, #8]
    8f7c:	609a      	str	r2, [r3, #8]
    8f7e:	697b      	ldr	r3, [r7, #20]
    8f80:	687a      	ldr	r2, [r7, #4]
    8f82:	611a      	str	r2, [r3, #16]
    8f84:	6979      	ldr	r1, [r7, #20]
    8f86:	69f8      	ldr	r0, [r7, #28]
    8f88:	f004 fb1e 	bl	d5c8 <Chip_SSP_RWFrames_Blocking>
    8f8c:	6278      	str	r0, [r7, #36]	; 0x24
    8f8e:	e00c      	b.n	8faa <FreeRTOS_SSP_read+0x96>
    8f90:	6a7b      	ldr	r3, [r7, #36]	; 0x24
    8f92:	2b00      	cmp	r3, #0
    8f94:	d108      	bne.n	8fa8 <FreeRTOS_SSP_read+0x94>
    8f96:	f04f 0028 	mov.w	r0, #40	; 0x28
    8f9a:	f380 8811 	msr	BASEPRI, r0
    8f9e:	e7fe      	b.n	8f9e <FreeRTOS_SSP_read+0x8a>
    8fa0:	bf00      	nop
    8fa2:	e002      	b.n	8faa <FreeRTOS_SSP_read+0x96>
    8fa4:	bf00      	nop
    8fa6:	e000      	b.n	8faa <FreeRTOS_SSP_read+0x96>
    8fa8:	bf00      	nop
    8faa:	6a7b      	ldr	r3, [r7, #36]	; 0x24
    8fac:	4618      	mov	r0, r3
    8fae:	3728      	adds	r7, #40	; 0x28
    8fb0:	46bd      	mov	sp, r7
    8fb2:	bd80      	pop	{r7, pc}

00008fb4 <FreeRTOS_SSP_ioctl>:
    8fb4:	b580      	push	{r7, lr}
    8fb6:	b08a      	sub	sp, #40	; 0x28
    8fb8:	af00      	add	r7, sp, #0
    8fba:	60f8      	str	r0, [r7, #12]
    8fbc:	60b9      	str	r1, [r7, #8]
    8fbe:	607a      	str	r2, [r7, #4]
    8fc0:	68fb      	ldr	r3, [r7, #12]
    8fc2:	623b      	str	r3, [r7, #32]
    8fc4:	687b      	ldr	r3, [r7, #4]
    8fc6:	61fb      	str	r3, [r7, #28]
    8fc8:	2300      	movs	r3, #0
    8fca:	627b      	str	r3, [r7, #36]	; 0x24
    8fcc:	68fb      	ldr	r3, [r7, #12]
    8fce:	7e1b      	ldrb	r3, [r3, #24]
    8fd0:	76fb      	strb	r3, [r7, #27]
    8fd2:	68fb      	ldr	r3, [r7, #12]
    8fd4:	695b      	ldr	r3, [r3, #20]
    8fd6:	689b      	ldr	r3, [r3, #8]
    8fd8:	617b      	str	r3, [r7, #20]
    8fda:	f7fe feed 	bl	7db8 <vPortEnterCritical>
    8fde:	68bb      	ldr	r3, [r7, #8]
    8fe0:	2bc8      	cmp	r3, #200	; 0xc8
    8fe2:	d059      	beq.n	9098 <FreeRTOS_SSP_ioctl+0xe4>
    8fe4:	2bc8      	cmp	r3, #200	; 0xc8
    8fe6:	d806      	bhi.n	8ff6 <FreeRTOS_SSP_ioctl+0x42>
    8fe8:	2b65      	cmp	r3, #101	; 0x65
    8fea:	d00c      	beq.n	9006 <FreeRTOS_SSP_ioctl+0x52>
    8fec:	2b66      	cmp	r3, #102	; 0x66
    8fee:	d03b      	beq.n	9068 <FreeRTOS_SSP_ioctl+0xb4>
    8ff0:	2b64      	cmp	r3, #100	; 0x64
    8ff2:	d04a      	beq.n	908a <FreeRTOS_SSP_ioctl+0xd6>
    8ff4:	e06c      	b.n	90d0 <FreeRTOS_SSP_ioctl+0x11c>
    8ff6:	2bcc      	cmp	r3, #204	; 0xcc
    8ff8:	d057      	beq.n	90aa <FreeRTOS_SSP_ioctl+0xf6>
    8ffa:	f5b3 7f7a 	cmp.w	r3, #1000	; 0x3e8
    8ffe:	d060      	beq.n	90c2 <FreeRTOS_SSP_ioctl+0x10e>
    9000:	2bcb      	cmp	r3, #203	; 0xcb
    9002:	d059      	beq.n	90b8 <FreeRTOS_SSP_ioctl+0x104>
    9004:	e064      	b.n	90d0 <FreeRTOS_SSP_ioctl+0x11c>
    9006:	f997 301b 	ldrsb.w	r3, [r7, #27]
    900a:	2b01      	cmp	r3, #1
    900c:	dd04      	ble.n	9018 <FreeRTOS_SSP_ioctl+0x64>
    900e:	f04f 0028 	mov.w	r0, #40	; 0x28
    9012:	f380 8811 	msr	BASEPRI, r0
    9016:	e7fe      	b.n	9016 <FreeRTOS_SSP_ioctl+0x62>
    9018:	69fb      	ldr	r3, [r7, #28]
    901a:	2b00      	cmp	r3, #0
    901c:	d107      	bne.n	902e <FreeRTOS_SSP_ioctl+0x7a>
    901e:	f997 301b 	ldrsb.w	r3, [r7, #27]
    9022:	4a36      	ldr	r2, [pc, #216]	; (90fc <FreeRTOS_SSP_ioctl+0x148>)
    9024:	56d3      	ldrsb	r3, [r2, r3]
    9026:	4618      	mov	r0, r3
    9028:	f7ff fd72 	bl	8b10 <NVIC_DisableIRQ>
    902c:	e050      	b.n	90d0 <FreeRTOS_SSP_ioctl+0x11c>
    902e:	6978      	ldr	r0, [r7, #20]
    9030:	f7ff fe00 	bl	8c34 <Chip_SSP_Int_Disable>
    9034:	6978      	ldr	r0, [r7, #20]
    9036:	f7ff fded 	bl	8c14 <Chip_SSP_Int_Enable>
    903a:	f997 301b 	ldrsb.w	r3, [r7, #27]
    903e:	4a2f      	ldr	r2, [pc, #188]	; (90fc <FreeRTOS_SSP_ioctl+0x148>)
    9040:	56d3      	ldrsb	r3, [r2, r3]
    9042:	211f      	movs	r1, #31
    9044:	4618      	mov	r0, r3
    9046:	f7ff fd7d 	bl	8b44 <NVIC_SetPriority>
    904a:	f997 301b 	ldrsb.w	r3, [r7, #27]
    904e:	4a2b      	ldr	r2, [pc, #172]	; (90fc <FreeRTOS_SSP_ioctl+0x148>)
    9050:	56d3      	ldrsb	r3, [r2, r3]
    9052:	4618      	mov	r0, r3
    9054:	f7ff fd44 	bl	8ae0 <NVIC_EnableIRQ>
    9058:	f997 301b 	ldrsb.w	r3, [r7, #27]
    905c:	6a3a      	ldr	r2, [r7, #32]
    905e:	6912      	ldr	r2, [r2, #16]
    9060:	4927      	ldr	r1, [pc, #156]	; (9100 <FreeRTOS_SSP_ioctl+0x14c>)
    9062:	f841 2023 	str.w	r2, [r1, r3, lsl #2]
    9066:	e033      	b.n	90d0 <FreeRTOS_SSP_ioctl+0x11c>
    9068:	69fb      	ldr	r3, [r7, #28]
    906a:	2b04      	cmp	r3, #4
    906c:	d904      	bls.n	9078 <FreeRTOS_SSP_ioctl+0xc4>
    906e:	f04f 0028 	mov.w	r0, #40	; 0x28
    9072:	f380 8811 	msr	BASEPRI, r0
    9076:	e7fe      	b.n	9076 <FreeRTOS_SSP_ioctl+0xc2>
    9078:	f997 301b 	ldrsb.w	r3, [r7, #27]
    907c:	4a1f      	ldr	r2, [pc, #124]	; (90fc <FreeRTOS_SSP_ioctl+0x148>)
    907e:	56d3      	ldrsb	r3, [r2, r3]
    9080:	69f9      	ldr	r1, [r7, #28]
    9082:	4618      	mov	r0, r3
    9084:	f7ff fd5e 	bl	8b44 <NVIC_SetPriority>
    9088:	e022      	b.n	90d0 <FreeRTOS_SSP_ioctl+0x11c>
    908a:	69f9      	ldr	r1, [r7, #28]
    908c:	6978      	ldr	r0, [r7, #20]
    908e:	f004 fb45 	bl	d71c <Chip_SSP_SetBitRate>
    9092:	2301      	movs	r3, #1
    9094:	627b      	str	r3, [r7, #36]	; 0x24
    9096:	e01b      	b.n	90d0 <FreeRTOS_SSP_ioctl+0x11c>
    9098:	2300      	movs	r3, #0
    909a:	2200      	movs	r2, #0
    909c:	69f9      	ldr	r1, [r7, #28]
    909e:	6978      	ldr	r0, [r7, #20]
    90a0:	f7ff fdd8 	bl	8c54 <Chip_SSP_SetFormat>
    90a4:	2301      	movs	r3, #1
    90a6:	627b      	str	r3, [r7, #36]	; 0x24
    90a8:	e012      	b.n	90d0 <FreeRTOS_SSP_ioctl+0x11c>
    90aa:	69fb      	ldr	r3, [r7, #28]
    90ac:	2200      	movs	r2, #0
    90ae:	2100      	movs	r1, #0
    90b0:	6978      	ldr	r0, [r7, #20]
    90b2:	f7ff fdcf 	bl	8c54 <Chip_SSP_SetFormat>
    90b6:	e00b      	b.n	90d0 <FreeRTOS_SSP_ioctl+0x11c>
    90b8:	69f9      	ldr	r1, [r7, #28]
    90ba:	6978      	ldr	r0, [r7, #20]
    90bc:	f7ff fde2 	bl	8c84 <Chip_SSP_Set_Mode>
    90c0:	e006      	b.n	90d0 <FreeRTOS_SSP_ioctl+0x11c>
    90c2:	2300      	movs	r3, #0
    90c4:	69fa      	ldr	r2, [r7, #28]
    90c6:	2100      	movs	r1, #0
    90c8:	6978      	ldr	r0, [r7, #20]
    90ca:	f7ff fdc3 	bl	8c54 <Chip_SSP_SetFormat>
    90ce:	bf00      	nop
    90d0:	6a7b      	ldr	r3, [r7, #36]	; 0x24
    90d2:	2b01      	cmp	r3, #1
    90d4:	d10b      	bne.n	90ee <FreeRTOS_SSP_ioctl+0x13a>
    90d6:	6978      	ldr	r0, [r7, #20]
    90d8:	f7ff fd8c 	bl	8bf4 <Chip_SSP_Disable>
    90dc:	6978      	ldr	r0, [r7, #20]
    90de:	f004 fb77 	bl	d7d0 <Chip_SSP_DeInit>
    90e2:	6978      	ldr	r0, [r7, #20]
    90e4:	f004 fb54 	bl	d790 <Chip_SSP_Init>
    90e8:	6978      	ldr	r0, [r7, #20]
    90ea:	f004 fb71 	bl	d7d0 <Chip_SSP_DeInit>
    90ee:	f7fe fe81 	bl	7df4 <vPortExitCritical>
    90f2:	2301      	movs	r3, #1
    90f4:	4618      	mov	r0, r3
    90f6:	3728      	adds	r7, #40	; 0x28
    90f8:	46bd      	mov	sp, r7
    90fa:	bd80      	pop	{r7, pc}
    90fc:	0000e650 	.word	0x0000e650
    9100:	10004038 	.word	0x10004038

00009104 <SSP1_IRQHandler>:
    9104:	b480      	push	{r7}
    9106:	b089      	sub	sp, #36	; 0x24
    9108:	af00      	add	r7, sp, #0
    910a:	2300      	movs	r3, #0
    910c:	607b      	str	r3, [r7, #4]
    910e:	2300      	movs	r3, #0
    9110:	61fb      	str	r3, [r7, #28]
    9112:	2301      	movs	r3, #1
    9114:	61bb      	str	r3, [r7, #24]
    9116:	4b3c      	ldr	r3, [pc, #240]	; (9208 <SSP1_IRQHandler+0x104>)
    9118:	69db      	ldr	r3, [r3, #28]
    911a:	617b      	str	r3, [r7, #20]
    911c:	697b      	ldr	r3, [r7, #20]
    911e:	f003 0301 	and.w	r3, r3, #1
    9122:	2b00      	cmp	r3, #0
    9124:	d002      	beq.n	912c <SSP1_IRQHandler+0x28>
    9126:	4b38      	ldr	r3, [pc, #224]	; (9208 <SSP1_IRQHandler+0x104>)
    9128:	2201      	movs	r2, #1
    912a:	621a      	str	r2, [r3, #32]
    912c:	697b      	ldr	r3, [r7, #20]
    912e:	f003 0306 	and.w	r3, r3, #6
    9132:	2b00      	cmp	r3, #0
    9134:	d05b      	beq.n	91ee <SSP1_IRQHandler+0xea>
    9136:	4a35      	ldr	r2, [pc, #212]	; (920c <SSP1_IRQHandler+0x108>)
    9138:	69bb      	ldr	r3, [r7, #24]
    913a:	f852 3023 	ldr.w	r3, [r2, r3, lsl #2]
    913e:	613b      	str	r3, [r7, #16]
    9140:	4a33      	ldr	r2, [pc, #204]	; (9210 <SSP1_IRQHandler+0x10c>)
    9142:	69bb      	ldr	r3, [r7, #24]
    9144:	f852 3023 	ldr.w	r3, [r2, r3, lsl #2]
    9148:	60fb      	str	r3, [r7, #12]
    914a:	68fb      	ldr	r3, [r7, #12]
    914c:	2b00      	cmp	r3, #0
    914e:	d104      	bne.n	915a <SSP1_IRQHandler+0x56>
    9150:	f04f 0028 	mov.w	r0, #40	; 0x28
    9154:	f380 8811 	msr	BASEPRI, r0
    9158:	e7fe      	b.n	9158 <SSP1_IRQHandler+0x54>
    915a:	693b      	ldr	r3, [r7, #16]
    915c:	2b00      	cmp	r3, #0
    915e:	d104      	bne.n	916a <SSP1_IRQHandler+0x66>
    9160:	f04f 0028 	mov.w	r0, #40	; 0x28
    9164:	f380 8811 	msr	BASEPRI, r0
    9168:	e7fe      	b.n	9168 <SSP1_IRQHandler+0x64>
    916a:	68fb      	ldr	r3, [r7, #12]
    916c:	2b00      	cmp	r3, #0
    916e:	d03e      	beq.n	91ee <SSP1_IRQHandler+0xea>
    9170:	4a28      	ldr	r2, [pc, #160]	; (9214 <SSP1_IRQHandler+0x110>)
    9172:	69bb      	ldr	r3, [r7, #24]
    9174:	f852 3023 	ldr.w	r3, [r2, r3, lsl #2]
    9178:	2b00      	cmp	r3, #0
    917a:	d10d      	bne.n	9198 <SSP1_IRQHandler+0x94>
    917c:	e005      	b.n	918a <SSP1_IRQHandler+0x86>
    917e:	4b22      	ldr	r3, [pc, #136]	; (9208 <SSP1_IRQHandler+0x104>)
    9180:	689b      	ldr	r3, [r3, #8]
    9182:	60bb      	str	r3, [r7, #8]
    9184:	687b      	ldr	r3, [r7, #4]
    9186:	3301      	adds	r3, #1
    9188:	607b      	str	r3, [r7, #4]
    918a:	4b1f      	ldr	r3, [pc, #124]	; (9208 <SSP1_IRQHandler+0x104>)
    918c:	68db      	ldr	r3, [r3, #12]
    918e:	f003 0304 	and.w	r3, r3, #4
    9192:	2b00      	cmp	r3, #0
    9194:	d1f3      	bne.n	917e <SSP1_IRQHandler+0x7a>
    9196:	e012      	b.n	91be <SSP1_IRQHandler+0xba>
    9198:	68fb      	ldr	r3, [r7, #12]
    919a:	791b      	ldrb	r3, [r3, #4]
    919c:	2b04      	cmp	r3, #4
    919e:	d009      	beq.n	91b4 <SSP1_IRQHandler+0xb0>
    91a0:	2b05      	cmp	r3, #5
    91a2:	d009      	beq.n	91b8 <SSP1_IRQHandler+0xb4>
    91a4:	69fb      	ldr	r3, [r7, #28]
    91a6:	2b00      	cmp	r3, #0
    91a8:	d108      	bne.n	91bc <SSP1_IRQHandler+0xb8>
    91aa:	f04f 0028 	mov.w	r0, #40	; 0x28
    91ae:	f380 8811 	msr	BASEPRI, r0
    91b2:	e7fe      	b.n	91b2 <SSP1_IRQHandler+0xae>
    91b4:	bf00      	nop
    91b6:	e002      	b.n	91be <SSP1_IRQHandler+0xba>
    91b8:	bf00      	nop
    91ba:	e000      	b.n	91be <SSP1_IRQHandler+0xba>
    91bc:	bf00      	nop
    91be:	693b      	ldr	r3, [r7, #16]
    91c0:	791b      	ldrb	r3, [r3, #4]
    91c2:	2b02      	cmp	r3, #2
    91c4:	d00e      	beq.n	91e4 <SSP1_IRQHandler+0xe0>
    91c6:	2b03      	cmp	r3, #3
    91c8:	d00e      	beq.n	91e8 <SSP1_IRQHandler+0xe4>
    91ca:	4a10      	ldr	r2, [pc, #64]	; (920c <SSP1_IRQHandler+0x108>)
    91cc:	69bb      	ldr	r3, [r7, #24]
    91ce:	2100      	movs	r1, #0
    91d0:	f842 1023 	str.w	r1, [r2, r3, lsl #2]
    91d4:	69fb      	ldr	r3, [r7, #28]
    91d6:	2b00      	cmp	r3, #0
    91d8:	d108      	bne.n	91ec <SSP1_IRQHandler+0xe8>
    91da:	f04f 0028 	mov.w	r0, #40	; 0x28
    91de:	f380 8811 	msr	BASEPRI, r0
    91e2:	e7fe      	b.n	91e2 <SSP1_IRQHandler+0xde>
    91e4:	bf00      	nop
    91e6:	e002      	b.n	91ee <SSP1_IRQHandler+0xea>
    91e8:	bf00      	nop
    91ea:	e000      	b.n	91ee <SSP1_IRQHandler+0xea>
    91ec:	bf00      	nop
    91ee:	69fb      	ldr	r3, [r7, #28]
    91f0:	2b00      	cmp	r3, #0
    91f2:	d003      	beq.n	91fc <SSP1_IRQHandler+0xf8>
    91f4:	4b08      	ldr	r3, [pc, #32]	; (9218 <SSP1_IRQHandler+0x114>)
    91f6:	f04f 5280 	mov.w	r2, #268435456	; 0x10000000
    91fa:	601a      	str	r2, [r3, #0]
    91fc:	bf00      	nop
    91fe:	3724      	adds	r7, #36	; 0x24
    9200:	46bd      	mov	sp, r7
    9202:	bc80      	pop	{r7}
    9204:	4770      	bx	lr
    9206:	bf00      	nop
    9208:	40030000 	.word	0x40030000
    920c:	10004030 	.word	0x10004030
    9210:	10004038 	.word	0x10004038
    9214:	10004040 	.word	0x10004040
    9218:	e000ed04 	.word	0xe000ed04

0000921c <NVIC_EnableIRQ>:
    921c:	b480      	push	{r7}
    921e:	b083      	sub	sp, #12
    9220:	af00      	add	r7, sp, #0
    9222:	4603      	mov	r3, r0
    9224:	71fb      	strb	r3, [r7, #7]
    9226:	4908      	ldr	r1, [pc, #32]	; (9248 <NVIC_EnableIRQ+0x2c>)
    9228:	f997 3007 	ldrsb.w	r3, [r7, #7]
    922c:	095b      	lsrs	r3, r3, #5
    922e:	79fa      	ldrb	r2, [r7, #7]
    9230:	f002 021f 	and.w	r2, r2, #31
    9234:	2001      	movs	r0, #1
    9236:	fa00 f202 	lsl.w	r2, r0, r2
    923a:	f841 2023 	str.w	r2, [r1, r3, lsl #2]
    923e:	bf00      	nop
    9240:	370c      	adds	r7, #12
    9242:	46bd      	mov	sp, r7
    9244:	bc80      	pop	{r7}
    9246:	4770      	bx	lr
    9248:	e000e100 	.word	0xe000e100

0000924c <NVIC_DisableIRQ>:
    924c:	b480      	push	{r7}
    924e:	b083      	sub	sp, #12
    9250:	af00      	add	r7, sp, #0
    9252:	4603      	mov	r3, r0
    9254:	71fb      	strb	r3, [r7, #7]
    9256:	4909      	ldr	r1, [pc, #36]	; (927c <NVIC_DisableIRQ+0x30>)
    9258:	f997 3007 	ldrsb.w	r3, [r7, #7]
    925c:	095b      	lsrs	r3, r3, #5
    925e:	79fa      	ldrb	r2, [r7, #7]
    9260:	f002 021f 	and.w	r2, r2, #31
    9264:	2001      	movs	r0, #1
    9266:	fa00 f202 	lsl.w	r2, r0, r2
    926a:	3320      	adds	r3, #32
    926c:	f841 2023 	str.w	r2, [r1, r3, lsl #2]
    9270:	bf00      	nop
    9272:	370c      	adds	r7, #12
    9274:	46bd      	mov	sp, r7
    9276:	bc80      	pop	{r7}
    9278:	4770      	bx	lr
    927a:	bf00      	nop
    927c:	e000e100 	.word	0xe000e100

00009280 <NVIC_SetPriority>:
    9280:	b480      	push	{r7}
    9282:	b083      	sub	sp, #12
    9284:	af00      	add	r7, sp, #0
    9286:	4603      	mov	r3, r0
    9288:	6039      	str	r1, [r7, #0]
    928a:	71fb      	strb	r3, [r7, #7]
    928c:	f997 3007 	ldrsb.w	r3, [r7, #7]
    9290:	2b00      	cmp	r3, #0
    9292:	da0b      	bge.n	92ac <NVIC_SetPriority+0x2c>
    9294:	490d      	ldr	r1, [pc, #52]	; (92cc <NVIC_SetPriority+0x4c>)
    9296:	79fb      	ldrb	r3, [r7, #7]
    9298:	f003 030f 	and.w	r3, r3, #15
    929c:	3b04      	subs	r3, #4
    929e:	683a      	ldr	r2, [r7, #0]
    92a0:	b2d2      	uxtb	r2, r2
    92a2:	00d2      	lsls	r2, r2, #3
    92a4:	b2d2      	uxtb	r2, r2
    92a6:	440b      	add	r3, r1
    92a8:	761a      	strb	r2, [r3, #24]
    92aa:	e009      	b.n	92c0 <NVIC_SetPriority+0x40>
    92ac:	4908      	ldr	r1, [pc, #32]	; (92d0 <NVIC_SetPriority+0x50>)
    92ae:	f997 3007 	ldrsb.w	r3, [r7, #7]
    92b2:	683a      	ldr	r2, [r7, #0]
    92b4:	b2d2      	uxtb	r2, r2
    92b6:	00d2      	lsls	r2, r2, #3
    92b8:	b2d2      	uxtb	r2, r2
    92ba:	440b      	add	r3, r1
    92bc:	f883 2300 	strb.w	r2, [r3, #768]	; 0x300
    92c0:	bf00      	nop
    92c2:	370c      	adds	r7, #12
    92c4:	46bd      	mov	sp, r7
    92c6:	bc80      	pop	{r7}
    92c8:	4770      	bx	lr
    92ca:	bf00      	nop
    92cc:	e000ed00 	.word	0xe000ed00
    92d0:	e000e100 	.word	0xe000e100

000092d4 <Chip_IOCON_DisableOD>:
    92d4:	b480      	push	{r7}
    92d6:	b083      	sub	sp, #12
    92d8:	af00      	add	r7, sp, #0
    92da:	6078      	str	r0, [r7, #4]
    92dc:	460b      	mov	r3, r1
    92de:	70fb      	strb	r3, [r7, #3]
    92e0:	4613      	mov	r3, r2
    92e2:	70bb      	strb	r3, [r7, #2]
    92e4:	78fa      	ldrb	r2, [r7, #3]
    92e6:	78f9      	ldrb	r1, [r7, #3]
    92e8:	687b      	ldr	r3, [r7, #4]
    92ea:	311a      	adds	r1, #26
    92ec:	f853 1021 	ldr.w	r1, [r3, r1, lsl #2]
    92f0:	78bb      	ldrb	r3, [r7, #2]
    92f2:	2001      	movs	r0, #1
    92f4:	fa00 f303 	lsl.w	r3, r0, r3
    92f8:	43db      	mvns	r3, r3
    92fa:	4019      	ands	r1, r3
    92fc:	687b      	ldr	r3, [r7, #4]
    92fe:	321a      	adds	r2, #26
    9300:	f843 1022 	str.w	r1, [r3, r2, lsl #2]
    9304:	bf00      	nop
    9306:	370c      	adds	r7, #12
    9308:	46bd      	mov	sp, r7
    930a:	bc80      	pop	{r7}
    930c:	4770      	bx	lr
    930e:	bf00      	nop

00009310 <Chip_UART_IntEnable>:
    9310:	b480      	push	{r7}
    9312:	b083      	sub	sp, #12
    9314:	af00      	add	r7, sp, #0
    9316:	6078      	str	r0, [r7, #4]
    9318:	6039      	str	r1, [r7, #0]
    931a:	687b      	ldr	r3, [r7, #4]
    931c:	685a      	ldr	r2, [r3, #4]
    931e:	683b      	ldr	r3, [r7, #0]
    9320:	431a      	orrs	r2, r3
    9322:	687b      	ldr	r3, [r7, #4]
    9324:	605a      	str	r2, [r3, #4]
    9326:	bf00      	nop
    9328:	370c      	adds	r7, #12
    932a:	46bd      	mov	sp, r7
    932c:	bc80      	pop	{r7}
    932e:	4770      	bx	lr

00009330 <Chip_UART_IntDisable>:
    9330:	b480      	push	{r7}
    9332:	b083      	sub	sp, #12
    9334:	af00      	add	r7, sp, #0
    9336:	6078      	str	r0, [r7, #4]
    9338:	6039      	str	r1, [r7, #0]
    933a:	687b      	ldr	r3, [r7, #4]
    933c:	685a      	ldr	r2, [r3, #4]
    933e:	683b      	ldr	r3, [r7, #0]
    9340:	43db      	mvns	r3, r3
    9342:	401a      	ands	r2, r3
    9344:	687b      	ldr	r3, [r7, #4]
    9346:	605a      	str	r2, [r3, #4]
    9348:	bf00      	nop
    934a:	370c      	adds	r7, #12
    934c:	46bd      	mov	sp, r7
    934e:	bc80      	pop	{r7}
    9350:	4770      	bx	lr
    9352:	bf00      	nop

00009354 <Chip_UART_ReadIntIDReg>:
    9354:	b480      	push	{r7}
    9356:	b083      	sub	sp, #12
    9358:	af00      	add	r7, sp, #0
    935a:	6078      	str	r0, [r7, #4]
    935c:	687b      	ldr	r3, [r7, #4]
    935e:	689b      	ldr	r3, [r3, #8]
    9360:	4618      	mov	r0, r3
    9362:	370c      	adds	r7, #12
    9364:	46bd      	mov	sp, r7
    9366:	bc80      	pop	{r7}
    9368:	4770      	bx	lr
    936a:	bf00      	nop

0000936c <Chip_UART_SetupFIFOS>:
    936c:	b480      	push	{r7}
    936e:	b083      	sub	sp, #12
    9370:	af00      	add	r7, sp, #0
    9372:	6078      	str	r0, [r7, #4]
    9374:	6039      	str	r1, [r7, #0]
    9376:	687b      	ldr	r3, [r7, #4]
    9378:	683a      	ldr	r2, [r7, #0]
    937a:	609a      	str	r2, [r3, #8]
    937c:	bf00      	nop
    937e:	370c      	adds	r7, #12
    9380:	46bd      	mov	sp, r7
    9382:	bc80      	pop	{r7}
    9384:	4770      	bx	lr
    9386:	bf00      	nop

00009388 <Chip_UART_ConfigData>:
    9388:	b480      	push	{r7}
    938a:	b083      	sub	sp, #12
    938c:	af00      	add	r7, sp, #0
    938e:	6078      	str	r0, [r7, #4]
    9390:	6039      	str	r1, [r7, #0]
    9392:	687b      	ldr	r3, [r7, #4]
    9394:	683a      	ldr	r2, [r7, #0]
    9396:	60da      	str	r2, [r3, #12]
    9398:	bf00      	nop
    939a:	370c      	adds	r7, #12
    939c:	46bd      	mov	sp, r7
    939e:	bc80      	pop	{r7}
    93a0:	4770      	bx	lr
    93a2:	bf00      	nop

000093a4 <FreeRTOS_UART_open>:
    93a4:	b580      	push	{r7, lr}
    93a6:	b088      	sub	sp, #32
    93a8:	af02      	add	r7, sp, #8
    93aa:	6078      	str	r0, [r7, #4]
    93ac:	687b      	ldr	r3, [r7, #4]
    93ae:	695b      	ldr	r3, [r3, #20]
    93b0:	689b      	ldr	r3, [r3, #8]
    93b2:	613b      	str	r3, [r7, #16]
    93b4:	687b      	ldr	r3, [r7, #4]
    93b6:	f993 3018 	ldrsb.w	r3, [r3, #24]
    93ba:	73fb      	strb	r3, [r7, #15]
    93bc:	7bfb      	ldrb	r3, [r7, #15]
    93be:	2b03      	cmp	r3, #3
    93c0:	d863      	bhi.n	948a <FreeRTOS_UART_open+0xe6>
    93c2:	687b      	ldr	r3, [r7, #4]
    93c4:	4a34      	ldr	r2, [pc, #208]	; (9498 <FreeRTOS_UART_open+0xf4>)
    93c6:	605a      	str	r2, [r3, #4]
    93c8:	687b      	ldr	r3, [r7, #4]
    93ca:	4a34      	ldr	r2, [pc, #208]	; (949c <FreeRTOS_UART_open+0xf8>)
    93cc:	601a      	str	r2, [r3, #0]
    93ce:	687b      	ldr	r3, [r7, #4]
    93d0:	4a33      	ldr	r2, [pc, #204]	; (94a0 <FreeRTOS_UART_open+0xfc>)
    93d2:	609a      	str	r2, [r3, #8]
    93d4:	f7fe fcf0 	bl	7db8 <vPortEnterCritical>
    93d8:	7bfb      	ldrb	r3, [r7, #15]
    93da:	2b00      	cmp	r3, #0
    93dc:	d002      	beq.n	93e4 <FreeRTOS_UART_open+0x40>
    93de:	2b03      	cmp	r3, #3
    93e0:	d01b      	beq.n	941a <FreeRTOS_UART_open+0x76>
    93e2:	e035      	b.n	9450 <FreeRTOS_UART_open+0xac>
    93e4:	2301      	movs	r3, #1
    93e6:	9300      	str	r3, [sp, #0]
    93e8:	2308      	movs	r3, #8
    93ea:	2202      	movs	r2, #2
    93ec:	2100      	movs	r1, #0
    93ee:	482d      	ldr	r0, [pc, #180]	; (94a4 <FreeRTOS_UART_open+0x100>)
    93f0:	f003 feea 	bl	d1c8 <Chip_IOCON_PinMux>
    93f4:	2202      	movs	r2, #2
    93f6:	2100      	movs	r1, #0
    93f8:	482a      	ldr	r0, [pc, #168]	; (94a4 <FreeRTOS_UART_open+0x100>)
    93fa:	f7ff ff6b 	bl	92d4 <Chip_IOCON_DisableOD>
    93fe:	2301      	movs	r3, #1
    9400:	9300      	str	r3, [sp, #0]
    9402:	2308      	movs	r3, #8
    9404:	2203      	movs	r2, #3
    9406:	2100      	movs	r1, #0
    9408:	4826      	ldr	r0, [pc, #152]	; (94a4 <FreeRTOS_UART_open+0x100>)
    940a:	f003 fedd 	bl	d1c8 <Chip_IOCON_PinMux>
    940e:	2203      	movs	r2, #3
    9410:	2100      	movs	r1, #0
    9412:	4824      	ldr	r0, [pc, #144]	; (94a4 <FreeRTOS_UART_open+0x100>)
    9414:	f7ff ff5e 	bl	92d4 <Chip_IOCON_DisableOD>
    9418:	e01f      	b.n	945a <FreeRTOS_UART_open+0xb6>
    941a:	2302      	movs	r3, #2
    941c:	9300      	str	r3, [sp, #0]
    941e:	2308      	movs	r3, #8
    9420:	2200      	movs	r2, #0
    9422:	2100      	movs	r1, #0
    9424:	481f      	ldr	r0, [pc, #124]	; (94a4 <FreeRTOS_UART_open+0x100>)
    9426:	f003 fecf 	bl	d1c8 <Chip_IOCON_PinMux>
    942a:	2200      	movs	r2, #0
    942c:	2100      	movs	r1, #0
    942e:	481d      	ldr	r0, [pc, #116]	; (94a4 <FreeRTOS_UART_open+0x100>)
    9430:	f7ff ff50 	bl	92d4 <Chip_IOCON_DisableOD>
    9434:	2302      	movs	r3, #2
    9436:	9300      	str	r3, [sp, #0]
    9438:	2308      	movs	r3, #8
    943a:	2201      	movs	r2, #1
    943c:	2100      	movs	r1, #0
    943e:	4819      	ldr	r0, [pc, #100]	; (94a4 <FreeRTOS_UART_open+0x100>)
    9440:	f003 fec2 	bl	d1c8 <Chip_IOCON_PinMux>
    9444:	2201      	movs	r2, #1
    9446:	2100      	movs	r1, #0
    9448:	4816      	ldr	r0, [pc, #88]	; (94a4 <FreeRTOS_UART_open+0x100>)
    944a:	f7ff ff43 	bl	92d4 <Chip_IOCON_DisableOD>
    944e:	e004      	b.n	945a <FreeRTOS_UART_open+0xb6>
    9450:	f04f 0028 	mov.w	r0, #40	; 0x28
    9454:	f380 8811 	msr	BASEPRI, r0
    9458:	e7fe      	b.n	9458 <FreeRTOS_UART_open+0xb4>
    945a:	6938      	ldr	r0, [r7, #16]
    945c:	f004 fb40 	bl	dae0 <Chip_UART_Init>
    9460:	f44f 31e1 	mov.w	r1, #115200	; 0x1c200
    9464:	6938      	ldr	r0, [r7, #16]
    9466:	f004 fc19 	bl	dc9c <Chip_UART_SetBaud>
    946a:	2103      	movs	r1, #3
    946c:	6938      	ldr	r0, [r7, #16]
    946e:	f7ff ff8b 	bl	9388 <Chip_UART_ConfigData>
    9472:	2187      	movs	r1, #135	; 0x87
    9474:	6938      	ldr	r0, [r7, #16]
    9476:	f7ff ff79 	bl	936c <Chip_UART_SetupFIFOS>
    947a:	6938      	ldr	r0, [r7, #16]
    947c:	f004 fb6c 	bl	db58 <Chip_UART_TXEnable>
    9480:	f7fe fcb8 	bl	7df4 <vPortExitCritical>
    9484:	2301      	movs	r3, #1
    9486:	617b      	str	r3, [r7, #20]
    9488:	e001      	b.n	948e <FreeRTOS_UART_open+0xea>
    948a:	2300      	movs	r3, #0
    948c:	617b      	str	r3, [r7, #20]
    948e:	697b      	ldr	r3, [r7, #20]
    9490:	4618      	mov	r0, r3
    9492:	3718      	adds	r7, #24
    9494:	46bd      	mov	sp, r7
    9496:	bd80      	pop	{r7, pc}
    9498:	00009755 	.word	0x00009755
    949c:	000094a9 	.word	0x000094a9
    94a0:	00009931 	.word	0x00009931
    94a4:	4002c000 	.word	0x4002c000

000094a8 <FreeRTOS_UART_write>:
    94a8:	b590      	push	{r4, r7, lr}
    94aa:	b099      	sub	sp, #100	; 0x64
    94ac:	af00      	add	r7, sp, #0
    94ae:	60f8      	str	r0, [r7, #12]
    94b0:	60b9      	str	r1, [r7, #8]
    94b2:	607a      	str	r2, [r7, #4]
    94b4:	68fb      	ldr	r3, [r7, #12]
    94b6:	65bb      	str	r3, [r7, #88]	; 0x58
    94b8:	2300      	movs	r3, #0
    94ba:	65fb      	str	r3, [r7, #92]	; 0x5c
    94bc:	68fb      	ldr	r3, [r7, #12]
    94be:	695b      	ldr	r3, [r3, #20]
    94c0:	689b      	ldr	r3, [r3, #8]
    94c2:	657b      	str	r3, [r7, #84]	; 0x54
    94c4:	6dbb      	ldr	r3, [r7, #88]	; 0x58
    94c6:	68db      	ldr	r3, [r3, #12]
    94c8:	2b00      	cmp	r3, #0
    94ca:	d10f      	bne.n	94ec <FreeRTOS_UART_write+0x44>
    94cc:	68bb      	ldr	r3, [r7, #8]
    94ce:	687a      	ldr	r2, [r7, #4]
    94d0:	4619      	mov	r1, r3
    94d2:	6d78      	ldr	r0, [r7, #84]	; 0x54
    94d4:	f004 fb92 	bl	dbfc <Chip_UART_SendBlocking>
    94d8:	4603      	mov	r3, r0
    94da:	65fb      	str	r3, [r7, #92]	; 0x5c
    94dc:	bf00      	nop
    94de:	6d78      	ldr	r0, [r7, #84]	; 0x54
    94e0:	f004 fb7a 	bl	dbd8 <Chip_UART_CheckBusy>
    94e4:	4603      	mov	r3, r0
    94e6:	2b00      	cmp	r3, #0
    94e8:	d1f9      	bne.n	94de <FreeRTOS_UART_write+0x36>
    94ea:	e12b      	b.n	9744 <FreeRTOS_UART_write+0x29c>
    94ec:	6dbb      	ldr	r3, [r7, #88]	; 0x58
    94ee:	7e1b      	ldrb	r3, [r3, #24]
    94f0:	f887 3053 	strb.w	r3, [r7, #83]	; 0x53
    94f4:	f997 3053 	ldrsb.w	r3, [r7, #83]	; 0x53
    94f8:	6dba      	ldr	r2, [r7, #88]	; 0x58
    94fa:	68d2      	ldr	r2, [r2, #12]
    94fc:	4994      	ldr	r1, [pc, #592]	; (9750 <FreeRTOS_UART_write+0x2a8>)
    94fe:	f841 2023 	str.w	r2, [r1, r3, lsl #2]
    9502:	6dbb      	ldr	r3, [r7, #88]	; 0x58
    9504:	68db      	ldr	r3, [r3, #12]
    9506:	791b      	ldrb	r3, [r3, #4]
    9508:	2b03      	cmp	r3, #3
    950a:	d052      	beq.n	95b2 <FreeRTOS_UART_write+0x10a>
    950c:	2b07      	cmp	r3, #7
    950e:	f000 8097 	beq.w	9640 <FreeRTOS_UART_write+0x198>
    9512:	2b02      	cmp	r3, #2
    9514:	f040 8107 	bne.w	9726 <FreeRTOS_UART_write+0x27e>
    9518:	2200      	movs	r2, #0
    951a:	210a      	movs	r1, #10
    951c:	6db8      	ldr	r0, [r7, #88]	; 0x58
    951e:	f001 f9cd 	bl	a8bc <xIOUtilsGetZeroCopyWriteMutex>
    9522:	4603      	mov	r3, r0
    9524:	2b00      	cmp	r3, #0
    9526:	d004      	beq.n	9532 <FreeRTOS_UART_write+0x8a>
    9528:	f04f 0028 	mov.w	r0, #40	; 0x28
    952c:	f380 8811 	msr	BASEPRI, r0
    9530:	e7fe      	b.n	9530 <FreeRTOS_UART_write+0x88>
    9532:	687b      	ldr	r3, [r7, #4]
    9534:	65fb      	str	r3, [r7, #92]	; 0x5c
    9536:	6dbb      	ldr	r3, [r7, #88]	; 0x58
    9538:	68db      	ldr	r3, [r3, #12]
    953a:	681b      	ldr	r3, [r3, #0]
    953c:	64fb      	str	r3, [r7, #76]	; 0x4c
    953e:	6cfb      	ldr	r3, [r7, #76]	; 0x4c
    9540:	681b      	ldr	r3, [r3, #0]
    9542:	4618      	mov	r0, r3
    9544:	f7f7 fd44 	bl	fd0 <xQueueGetMutexHolder>
    9548:	4604      	mov	r4, r0
    954a:	f7f9 fb17 	bl	2b7c <xTaskGetCurrentTaskHandle>
    954e:	4603      	mov	r3, r0
    9550:	429c      	cmp	r4, r3
    9552:	d12b      	bne.n	95ac <FreeRTOS_UART_write+0x104>
    9554:	6d78      	ldr	r0, [r7, #84]	; 0x54
    9556:	f004 fb0b 	bl	db70 <Chip_UART_TXDisable>
    955a:	f107 0308 	add.w	r3, r7, #8
    955e:	687a      	ldr	r2, [r7, #4]
    9560:	4619      	mov	r1, r3
    9562:	6d78      	ldr	r0, [r7, #84]	; 0x54
    9564:	f000 f9ba 	bl	98dc <prvFillFifoFromBuffer>
    9568:	64b8      	str	r0, [r7, #72]	; 0x48
    956a:	6cba      	ldr	r2, [r7, #72]	; 0x48
    956c:	6dfb      	ldr	r3, [r7, #92]	; 0x5c
    956e:	429a      	cmp	r2, r3
    9570:	d20e      	bcs.n	9590 <FreeRTOS_UART_write+0xe8>
    9572:	68ba      	ldr	r2, [r7, #8]
    9574:	6cfb      	ldr	r3, [r7, #76]	; 0x4c
    9576:	605a      	str	r2, [r3, #4]
    9578:	6dfb      	ldr	r3, [r7, #92]	; 0x5c
    957a:	b29a      	uxth	r2, r3
    957c:	6cbb      	ldr	r3, [r7, #72]	; 0x48
    957e:	b29b      	uxth	r3, r3
    9580:	1ad3      	subs	r3, r2, r3
    9582:	b29a      	uxth	r2, r3
    9584:	6cfb      	ldr	r3, [r7, #76]	; 0x4c
    9586:	811a      	strh	r2, [r3, #8]
    9588:	6d78      	ldr	r0, [r7, #84]	; 0x54
    958a:	f004 fae5 	bl	db58 <Chip_UART_TXEnable>
    958e:	e0d9      	b.n	9744 <FreeRTOS_UART_write+0x29c>
    9590:	6cfb      	ldr	r3, [r7, #76]	; 0x4c
    9592:	2200      	movs	r2, #0
    9594:	811a      	strh	r2, [r3, #8]
    9596:	6d78      	ldr	r0, [r7, #84]	; 0x54
    9598:	f004 fade 	bl	db58 <Chip_UART_TXEnable>
    959c:	6cfb      	ldr	r3, [r7, #76]	; 0x4c
    959e:	6818      	ldr	r0, [r3, #0]
    95a0:	2300      	movs	r3, #0
    95a2:	2200      	movs	r2, #0
    95a4:	2100      	movs	r1, #0
    95a6:	f7f7 f8d3 	bl	750 <xQueueGenericSend>
    95aa:	e0cb      	b.n	9744 <FreeRTOS_UART_write+0x29c>
    95ac:	2300      	movs	r3, #0
    95ae:	65fb      	str	r3, [r7, #92]	; 0x5c
    95b0:	e0c8      	b.n	9744 <FreeRTOS_UART_write+0x29c>
    95b2:	6dbb      	ldr	r3, [r7, #88]	; 0x58
    95b4:	68db      	ldr	r3, [r3, #12]
    95b6:	681b      	ldr	r3, [r3, #0]
    95b8:	647b      	str	r3, [r7, #68]	; 0x44
    95ba:	6c7b      	ldr	r3, [r7, #68]	; 0x44
    95bc:	685b      	ldr	r3, [r3, #4]
    95be:	62bb      	str	r3, [r7, #40]	; 0x28
    95c0:	6c7b      	ldr	r3, [r7, #68]	; 0x44
    95c2:	681b      	ldr	r3, [r3, #0]
    95c4:	643b      	str	r3, [r7, #64]	; 0x40
    95c6:	f107 031c 	add.w	r3, r7, #28
    95ca:	4618      	mov	r0, r3
    95cc:	f7f9 fae4 	bl	2b98 <vTaskSetTimeOutState>
    95d0:	2300      	movs	r3, #0
    95d2:	65fb      	str	r3, [r7, #92]	; 0x5c
    95d4:	e02d      	b.n	9632 <FreeRTOS_UART_write+0x18a>
    95d6:	68ba      	ldr	r2, [r7, #8]
    95d8:	6dfb      	ldr	r3, [r7, #92]	; 0x5c
    95da:	18d1      	adds	r1, r2, r3
    95dc:	6aba      	ldr	r2, [r7, #40]	; 0x28
    95de:	2300      	movs	r3, #0
    95e0:	6c38      	ldr	r0, [r7, #64]	; 0x40
    95e2:	f7f7 f8b5 	bl	750 <xQueueGenericSend>
    95e6:	4603      	mov	r3, r0
    95e8:	2b01      	cmp	r3, #1
    95ea:	d127      	bne.n	963c <FreeRTOS_UART_write+0x194>
    95ec:	6d7b      	ldr	r3, [r7, #84]	; 0x54
    95ee:	695b      	ldr	r3, [r3, #20]
    95f0:	f003 0340 	and.w	r3, r3, #64	; 0x40
    95f4:	2b00      	cmp	r3, #0
    95f6:	d00e      	beq.n	9616 <FreeRTOS_UART_write+0x16e>
    95f8:	6aba      	ldr	r2, [r7, #40]	; 0x28
    95fa:	f107 0127 	add.w	r1, r7, #39	; 0x27
    95fe:	2300      	movs	r3, #0
    9600:	6c38      	ldr	r0, [r7, #64]	; 0x40
    9602:	f7f7 f9c5 	bl	990 <xQueueGenericReceive>
    9606:	4603      	mov	r3, r0
    9608:	2b01      	cmp	r3, #1
    960a:	d104      	bne.n	9616 <FreeRTOS_UART_write+0x16e>
    960c:	f897 3027 	ldrb.w	r3, [r7, #39]	; 0x27
    9610:	461a      	mov	r2, r3
    9612:	6d7b      	ldr	r3, [r7, #84]	; 0x54
    9614:	601a      	str	r2, [r3, #0]
    9616:	f107 0228 	add.w	r2, r7, #40	; 0x28
    961a:	f107 031c 	add.w	r3, r7, #28
    961e:	4611      	mov	r1, r2
    9620:	4618      	mov	r0, r3
    9622:	f7f9 fad7 	bl	2bd4 <xTaskCheckForTimeOut>
    9626:	4603      	mov	r3, r0
    9628:	2b00      	cmp	r3, #0
    962a:	d107      	bne.n	963c <FreeRTOS_UART_write+0x194>
    962c:	6dfb      	ldr	r3, [r7, #92]	; 0x5c
    962e:	3301      	adds	r3, #1
    9630:	65fb      	str	r3, [r7, #92]	; 0x5c
    9632:	6dfa      	ldr	r2, [r7, #92]	; 0x5c
    9634:	687b      	ldr	r3, [r7, #4]
    9636:	429a      	cmp	r2, r3
    9638:	d3cd      	bcc.n	95d6 <FreeRTOS_UART_write+0x12e>
    963a:	e083      	b.n	9744 <FreeRTOS_UART_write+0x29c>
    963c:	bf00      	nop
    963e:	e081      	b.n	9744 <FreeRTOS_UART_write+0x29c>
    9640:	2361      	movs	r3, #97	; 0x61
    9642:	f887 303f 	strb.w	r3, [r7, #63]	; 0x3f
    9646:	6dbb      	ldr	r3, [r7, #88]	; 0x58
    9648:	68db      	ldr	r3, [r3, #12]
    964a:	681b      	ldr	r3, [r3, #0]
    964c:	63bb      	str	r3, [r7, #56]	; 0x38
    964e:	6bbb      	ldr	r3, [r7, #56]	; 0x38
    9650:	691b      	ldr	r3, [r3, #16]
    9652:	637b      	str	r3, [r7, #52]	; 0x34
    9654:	f107 0314 	add.w	r3, r7, #20
    9658:	4618      	mov	r0, r3
    965a:	f7f9 fa9d 	bl	2b98 <vTaskSetTimeOutState>
    965e:	6bbb      	ldr	r3, [r7, #56]	; 0x38
    9660:	330a      	adds	r3, #10
    9662:	633b      	str	r3, [r7, #48]	; 0x30
    9664:	6bbb      	ldr	r3, [r7, #56]	; 0x38
    9666:	330c      	adds	r3, #12
    9668:	62fb      	str	r3, [r7, #44]	; 0x2c
    966a:	2300      	movs	r3, #0
    966c:	65fb      	str	r3, [r7, #92]	; 0x5c
    966e:	e055      	b.n	971c <FreeRTOS_UART_write+0x274>
    9670:	6bbb      	ldr	r3, [r7, #56]	; 0x38
    9672:	8a9a      	ldrh	r2, [r3, #20]
    9674:	6bbb      	ldr	r3, [r7, #56]	; 0x38
    9676:	891b      	ldrh	r3, [r3, #8]
    9678:	429a      	cmp	r2, r3
    967a:	d249      	bcs.n	9710 <FreeRTOS_UART_write+0x268>
    967c:	6bbb      	ldr	r3, [r7, #56]	; 0x38
    967e:	685b      	ldr	r3, [r3, #4]
    9680:	6b3a      	ldr	r2, [r7, #48]	; 0x30
    9682:	8812      	ldrh	r2, [r2, #0]
    9684:	4413      	add	r3, r2
    9686:	68b9      	ldr	r1, [r7, #8]
    9688:	6dfa      	ldr	r2, [r7, #92]	; 0x5c
    968a:	440a      	add	r2, r1
    968c:	7812      	ldrb	r2, [r2, #0]
    968e:	701a      	strb	r2, [r3, #0]
    9690:	6bbb      	ldr	r3, [r7, #56]	; 0x38
    9692:	8a9b      	ldrh	r3, [r3, #20]
    9694:	3301      	adds	r3, #1
    9696:	b29a      	uxth	r2, r3
    9698:	6bbb      	ldr	r3, [r7, #56]	; 0x38
    969a:	829a      	strh	r2, [r3, #20]
    969c:	6b3b      	ldr	r3, [r7, #48]	; 0x30
    969e:	881b      	ldrh	r3, [r3, #0]
    96a0:	3301      	adds	r3, #1
    96a2:	b29a      	uxth	r2, r3
    96a4:	6b3b      	ldr	r3, [r7, #48]	; 0x30
    96a6:	801a      	strh	r2, [r3, #0]
    96a8:	6b3b      	ldr	r3, [r7, #48]	; 0x30
    96aa:	881a      	ldrh	r2, [r3, #0]
    96ac:	6bbb      	ldr	r3, [r7, #56]	; 0x38
    96ae:	891b      	ldrh	r3, [r3, #8]
    96b0:	429a      	cmp	r2, r3
    96b2:	d102      	bne.n	96ba <FreeRTOS_UART_write+0x212>
    96b4:	6b3b      	ldr	r3, [r7, #48]	; 0x30
    96b6:	2200      	movs	r2, #0
    96b8:	801a      	strh	r2, [r3, #0]
    96ba:	6dfb      	ldr	r3, [r7, #92]	; 0x5c
    96bc:	3301      	adds	r3, #1
    96be:	65fb      	str	r3, [r7, #92]	; 0x5c
    96c0:	6d7b      	ldr	r3, [r7, #84]	; 0x54
    96c2:	695b      	ldr	r3, [r3, #20]
    96c4:	f003 0340 	and.w	r3, r3, #64	; 0x40
    96c8:	2b00      	cmp	r3, #0
    96ca:	d027      	beq.n	971c <FreeRTOS_UART_write+0x274>
    96cc:	6bbb      	ldr	r3, [r7, #56]	; 0x38
    96ce:	685b      	ldr	r3, [r3, #4]
    96d0:	6afa      	ldr	r2, [r7, #44]	; 0x2c
    96d2:	8812      	ldrh	r2, [r2, #0]
    96d4:	4413      	add	r3, r2
    96d6:	781b      	ldrb	r3, [r3, #0]
    96d8:	f887 303f 	strb.w	r3, [r7, #63]	; 0x3f
    96dc:	6bbb      	ldr	r3, [r7, #56]	; 0x38
    96de:	8a9b      	ldrh	r3, [r3, #20]
    96e0:	3b01      	subs	r3, #1
    96e2:	b29a      	uxth	r2, r3
    96e4:	6bbb      	ldr	r3, [r7, #56]	; 0x38
    96e6:	829a      	strh	r2, [r3, #20]
    96e8:	6afb      	ldr	r3, [r7, #44]	; 0x2c
    96ea:	881b      	ldrh	r3, [r3, #0]
    96ec:	3301      	adds	r3, #1
    96ee:	b29a      	uxth	r2, r3
    96f0:	6afb      	ldr	r3, [r7, #44]	; 0x2c
    96f2:	801a      	strh	r2, [r3, #0]
    96f4:	6afb      	ldr	r3, [r7, #44]	; 0x2c
    96f6:	881a      	ldrh	r2, [r3, #0]
    96f8:	6bbb      	ldr	r3, [r7, #56]	; 0x38
    96fa:	891b      	ldrh	r3, [r3, #8]
    96fc:	429a      	cmp	r2, r3
    96fe:	d102      	bne.n	9706 <FreeRTOS_UART_write+0x25e>
    9700:	6afb      	ldr	r3, [r7, #44]	; 0x2c
    9702:	2200      	movs	r2, #0
    9704:	801a      	strh	r2, [r3, #0]
    9706:	f897 203f 	ldrb.w	r2, [r7, #63]	; 0x3f
    970a:	6d7b      	ldr	r3, [r7, #84]	; 0x54
    970c:	601a      	str	r2, [r3, #0]
    970e:	e005      	b.n	971c <FreeRTOS_UART_write+0x274>
    9710:	6bbb      	ldr	r3, [r7, #56]	; 0x38
    9712:	691b      	ldr	r3, [r3, #16]
    9714:	4619      	mov	r1, r3
    9716:	2000      	movs	r0, #0
    9718:	f7f8 fef4 	bl	2504 <ulTaskNotifyTake>
    971c:	6dfa      	ldr	r2, [r7, #92]	; 0x5c
    971e:	687b      	ldr	r3, [r7, #4]
    9720:	429a      	cmp	r2, r3
    9722:	d3a5      	bcc.n	9670 <FreeRTOS_UART_write+0x1c8>
    9724:	e00e      	b.n	9744 <FreeRTOS_UART_write+0x29c>
    9726:	6dfb      	ldr	r3, [r7, #92]	; 0x5c
    9728:	2b00      	cmp	r3, #0
    972a:	d104      	bne.n	9736 <FreeRTOS_UART_write+0x28e>
    972c:	f04f 0028 	mov.w	r0, #40	; 0x28
    9730:	f380 8811 	msr	BASEPRI, r0
    9734:	e7fe      	b.n	9734 <FreeRTOS_UART_write+0x28c>
    9736:	f997 3053 	ldrsb.w	r3, [r7, #83]	; 0x53
    973a:	4a05      	ldr	r2, [pc, #20]	; (9750 <FreeRTOS_UART_write+0x2a8>)
    973c:	2100      	movs	r1, #0
    973e:	f842 1023 	str.w	r1, [r2, r3, lsl #2]
    9742:	bf00      	nop
    9744:	6dfb      	ldr	r3, [r7, #92]	; 0x5c
    9746:	4618      	mov	r0, r3
    9748:	3764      	adds	r7, #100	; 0x64
    974a:	46bd      	mov	sp, r7
    974c:	bd90      	pop	{r4, r7, pc}
    974e:	bf00      	nop
    9750:	10004048 	.word	0x10004048

00009754 <FreeRTOS_UART_read>:
    9754:	b580      	push	{r7, lr}
    9756:	b090      	sub	sp, #64	; 0x40
    9758:	af00      	add	r7, sp, #0
    975a:	60f8      	str	r0, [r7, #12]
    975c:	60b9      	str	r1, [r7, #8]
    975e:	607a      	str	r2, [r7, #4]
    9760:	68fb      	ldr	r3, [r7, #12]
    9762:	63bb      	str	r3, [r7, #56]	; 0x38
    9764:	2300      	movs	r3, #0
    9766:	63fb      	str	r3, [r7, #60]	; 0x3c
    9768:	68fb      	ldr	r3, [r7, #12]
    976a:	695b      	ldr	r3, [r3, #20]
    976c:	689b      	ldr	r3, [r3, #8]
    976e:	637b      	str	r3, [r7, #52]	; 0x34
    9770:	6bbb      	ldr	r3, [r7, #56]	; 0x38
    9772:	691b      	ldr	r3, [r3, #16]
    9774:	2b00      	cmp	r3, #0
    9776:	d108      	bne.n	978a <FreeRTOS_UART_read+0x36>
    9778:	687b      	ldr	r3, [r7, #4]
    977a:	461a      	mov	r2, r3
    977c:	68b9      	ldr	r1, [r7, #8]
    977e:	6b78      	ldr	r0, [r7, #52]	; 0x34
    9780:	f004 fa62 	bl	dc48 <Chip_UART_Read>
    9784:	4603      	mov	r3, r0
    9786:	63fb      	str	r3, [r7, #60]	; 0x3c
    9788:	e0a2      	b.n	98d0 <FreeRTOS_UART_read+0x17c>
    978a:	6bbb      	ldr	r3, [r7, #56]	; 0x38
    978c:	f993 3018 	ldrsb.w	r3, [r3, #24]
    9790:	2b03      	cmp	r3, #3
    9792:	dd04      	ble.n	979e <FreeRTOS_UART_read+0x4a>
    9794:	f04f 0028 	mov.w	r0, #40	; 0x28
    9798:	f380 8811 	msr	BASEPRI, r0
    979c:	e7fe      	b.n	979c <FreeRTOS_UART_read+0x48>
    979e:	6bbb      	ldr	r3, [r7, #56]	; 0x38
    97a0:	691b      	ldr	r3, [r3, #16]
    97a2:	791b      	ldrb	r3, [r3, #4]
    97a4:	2b05      	cmp	r3, #5
    97a6:	d004      	beq.n	97b2 <FreeRTOS_UART_read+0x5e>
    97a8:	2b06      	cmp	r3, #6
    97aa:	d044      	beq.n	9836 <FreeRTOS_UART_read+0xe2>
    97ac:	2b04      	cmp	r3, #4
    97ae:	d07f      	beq.n	98b0 <FreeRTOS_UART_read+0x15c>
    97b0:	e085      	b.n	98be <FreeRTOS_UART_read+0x16a>
    97b2:	6bbb      	ldr	r3, [r7, #56]	; 0x38
    97b4:	691b      	ldr	r3, [r3, #16]
    97b6:	681b      	ldr	r3, [r3, #0]
    97b8:	633b      	str	r3, [r7, #48]	; 0x30
    97ba:	2300      	movs	r3, #0
    97bc:	63fb      	str	r3, [r7, #60]	; 0x3c
    97be:	6b3b      	ldr	r3, [r7, #48]	; 0x30
    97c0:	691b      	ldr	r3, [r3, #16]
    97c2:	62bb      	str	r3, [r7, #40]	; 0x28
    97c4:	f107 0320 	add.w	r3, r7, #32
    97c8:	4618      	mov	r0, r3
    97ca:	f7f9 f9e5 	bl	2b98 <vTaskSetTimeOutState>
    97ce:	e02b      	b.n	9828 <FreeRTOS_UART_read+0xd4>
    97d0:	6b3b      	ldr	r3, [r7, #48]	; 0x30
    97d2:	6818      	ldr	r0, [r3, #0]
    97d4:	6aba      	ldr	r2, [r7, #40]	; 0x28
    97d6:	2300      	movs	r3, #0
    97d8:	2100      	movs	r1, #0
    97da:	f7f7 f8d9 	bl	990 <xQueueGenericReceive>
    97de:	4603      	mov	r3, r0
    97e0:	2b01      	cmp	r3, #1
    97e2:	d116      	bne.n	9812 <FreeRTOS_UART_read+0xbe>
    97e4:	2101      	movs	r1, #1
    97e6:	6b78      	ldr	r0, [r7, #52]	; 0x34
    97e8:	f7ff fda2 	bl	9330 <Chip_UART_IntDisable>
    97ec:	68ba      	ldr	r2, [r7, #8]
    97ee:	6bfb      	ldr	r3, [r7, #60]	; 0x3c
    97f0:	18d1      	adds	r1, r2, r3
    97f2:	687a      	ldr	r2, [r7, #4]
    97f4:	6bfb      	ldr	r3, [r7, #60]	; 0x3c
    97f6:	1ad3      	subs	r3, r2, r3
    97f8:	461a      	mov	r2, r3
    97fa:	6b38      	ldr	r0, [r7, #48]	; 0x30
    97fc:	f000 ff7a 	bl	a6f4 <xIOUtilsReadCharsFromCircularBuffer>
    9800:	4603      	mov	r3, r0
    9802:	461a      	mov	r2, r3
    9804:	6bfb      	ldr	r3, [r7, #60]	; 0x3c
    9806:	4413      	add	r3, r2
    9808:	63fb      	str	r3, [r7, #60]	; 0x3c
    980a:	2101      	movs	r1, #1
    980c:	6b78      	ldr	r0, [r7, #52]	; 0x34
    980e:	f7ff fd7f 	bl	9310 <Chip_UART_IntEnable>
    9812:	f107 0228 	add.w	r2, r7, #40	; 0x28
    9816:	f107 0320 	add.w	r3, r7, #32
    981a:	4611      	mov	r1, r2
    981c:	4618      	mov	r0, r3
    981e:	f7f9 f9d9 	bl	2bd4 <xTaskCheckForTimeOut>
    9822:	4603      	mov	r3, r0
    9824:	2b00      	cmp	r3, #0
    9826:	d104      	bne.n	9832 <FreeRTOS_UART_read+0xde>
    9828:	6bfa      	ldr	r2, [r7, #60]	; 0x3c
    982a:	687b      	ldr	r3, [r7, #4]
    982c:	429a      	cmp	r2, r3
    982e:	d3cf      	bcc.n	97d0 <FreeRTOS_UART_read+0x7c>
    9830:	e04e      	b.n	98d0 <FreeRTOS_UART_read+0x17c>
    9832:	bf00      	nop
    9834:	e04c      	b.n	98d0 <FreeRTOS_UART_read+0x17c>
    9836:	6bbb      	ldr	r3, [r7, #56]	; 0x38
    9838:	691b      	ldr	r3, [r3, #16]
    983a:	681b      	ldr	r3, [r3, #0]
    983c:	62fb      	str	r3, [r7, #44]	; 0x2c
    983e:	2300      	movs	r3, #0
    9840:	63fb      	str	r3, [r7, #60]	; 0x3c
    9842:	6afb      	ldr	r3, [r7, #44]	; 0x2c
    9844:	691b      	ldr	r3, [r3, #16]
    9846:	61fb      	str	r3, [r7, #28]
    9848:	f107 0314 	add.w	r3, r7, #20
    984c:	4618      	mov	r0, r3
    984e:	f7f9 f9a3 	bl	2b98 <vTaskSetTimeOutState>
    9852:	e026      	b.n	98a2 <FreeRTOS_UART_read+0x14e>
    9854:	69fb      	ldr	r3, [r7, #28]
    9856:	4619      	mov	r1, r3
    9858:	2000      	movs	r0, #0
    985a:	f7f8 fe53 	bl	2504 <ulTaskNotifyTake>
    985e:	2101      	movs	r1, #1
    9860:	6b78      	ldr	r0, [r7, #52]	; 0x34
    9862:	f7ff fd65 	bl	9330 <Chip_UART_IntDisable>
    9866:	68ba      	ldr	r2, [r7, #8]
    9868:	6bfb      	ldr	r3, [r7, #60]	; 0x3c
    986a:	18d1      	adds	r1, r2, r3
    986c:	687a      	ldr	r2, [r7, #4]
    986e:	6bfb      	ldr	r3, [r7, #60]	; 0x3c
    9870:	1ad3      	subs	r3, r2, r3
    9872:	461a      	mov	r2, r3
    9874:	6af8      	ldr	r0, [r7, #44]	; 0x2c
    9876:	f7fe fe2b 	bl	84d0 <xIOUtilsReadCharsFromTNBasedCircularBuffer>
    987a:	4603      	mov	r3, r0
    987c:	461a      	mov	r2, r3
    987e:	6bfb      	ldr	r3, [r7, #60]	; 0x3c
    9880:	4413      	add	r3, r2
    9882:	63fb      	str	r3, [r7, #60]	; 0x3c
    9884:	2101      	movs	r1, #1
    9886:	6b78      	ldr	r0, [r7, #52]	; 0x34
    9888:	f7ff fd42 	bl	9310 <Chip_UART_IntEnable>
    988c:	f107 021c 	add.w	r2, r7, #28
    9890:	f107 0314 	add.w	r3, r7, #20
    9894:	4611      	mov	r1, r2
    9896:	4618      	mov	r0, r3
    9898:	f7f9 f99c 	bl	2bd4 <xTaskCheckForTimeOut>
    989c:	4603      	mov	r3, r0
    989e:	2b00      	cmp	r3, #0
    98a0:	d104      	bne.n	98ac <FreeRTOS_UART_read+0x158>
    98a2:	6bfa      	ldr	r2, [r7, #60]	; 0x3c
    98a4:	687b      	ldr	r3, [r7, #4]
    98a6:	429a      	cmp	r2, r3
    98a8:	d3d4      	bcc.n	9854 <FreeRTOS_UART_read+0x100>
    98aa:	e011      	b.n	98d0 <FreeRTOS_UART_read+0x17c>
    98ac:	bf00      	nop
    98ae:	e00f      	b.n	98d0 <FreeRTOS_UART_read+0x17c>
    98b0:	687a      	ldr	r2, [r7, #4]
    98b2:	68b9      	ldr	r1, [r7, #8]
    98b4:	6bb8      	ldr	r0, [r7, #56]	; 0x38
    98b6:	f000 fdfb 	bl	a4b0 <xIOUtilsReceiveCharsFromRxQueue>
    98ba:	63f8      	str	r0, [r7, #60]	; 0x3c
    98bc:	e008      	b.n	98d0 <FreeRTOS_UART_read+0x17c>
    98be:	6bfb      	ldr	r3, [r7, #60]	; 0x3c
    98c0:	2b00      	cmp	r3, #0
    98c2:	d104      	bne.n	98ce <FreeRTOS_UART_read+0x17a>
    98c4:	f04f 0028 	mov.w	r0, #40	; 0x28
    98c8:	f380 8811 	msr	BASEPRI, r0
    98cc:	e7fe      	b.n	98cc <FreeRTOS_UART_read+0x178>
    98ce:	bf00      	nop
    98d0:	6bfb      	ldr	r3, [r7, #60]	; 0x3c
    98d2:	4618      	mov	r0, r3
    98d4:	3740      	adds	r7, #64	; 0x40
    98d6:	46bd      	mov	sp, r7
    98d8:	bd80      	pop	{r7, pc}
    98da:	bf00      	nop

000098dc <prvFillFifoFromBuffer>:
    98dc:	b480      	push	{r7}
    98de:	b087      	sub	sp, #28
    98e0:	af00      	add	r7, sp, #0
    98e2:	60f8      	str	r0, [r7, #12]
    98e4:	60b9      	str	r1, [r7, #8]
    98e6:	607a      	str	r2, [r7, #4]
    98e8:	2300      	movs	r3, #0
    98ea:	617b      	str	r3, [r7, #20]
    98ec:	e011      	b.n	9912 <prvFillFifoFromBuffer+0x36>
    98ee:	697a      	ldr	r2, [r7, #20]
    98f0:	687b      	ldr	r3, [r7, #4]
    98f2:	429a      	cmp	r2, r3
    98f4:	d215      	bcs.n	9922 <prvFillFifoFromBuffer+0x46>
    98f6:	68bb      	ldr	r3, [r7, #8]
    98f8:	681b      	ldr	r3, [r3, #0]
    98fa:	781b      	ldrb	r3, [r3, #0]
    98fc:	461a      	mov	r2, r3
    98fe:	68fb      	ldr	r3, [r7, #12]
    9900:	601a      	str	r2, [r3, #0]
    9902:	68bb      	ldr	r3, [r7, #8]
    9904:	681b      	ldr	r3, [r3, #0]
    9906:	1c5a      	adds	r2, r3, #1
    9908:	68bb      	ldr	r3, [r7, #8]
    990a:	601a      	str	r2, [r3, #0]
    990c:	697b      	ldr	r3, [r7, #20]
    990e:	3301      	adds	r3, #1
    9910:	617b      	str	r3, [r7, #20]
    9912:	68fb      	ldr	r3, [r7, #12]
    9914:	6d9b      	ldr	r3, [r3, #88]	; 0x58
    9916:	f403 6370 	and.w	r3, r3, #3840	; 0xf00
    991a:	f5b3 6f70 	cmp.w	r3, #3840	; 0xf00
    991e:	d1e6      	bne.n	98ee <prvFillFifoFromBuffer+0x12>
    9920:	e000      	b.n	9924 <prvFillFifoFromBuffer+0x48>
    9922:	bf00      	nop
    9924:	697b      	ldr	r3, [r7, #20]
    9926:	4618      	mov	r0, r3
    9928:	371c      	adds	r7, #28
    992a:	46bd      	mov	sp, r7
    992c:	bc80      	pop	{r7}
    992e:	4770      	bx	lr

00009930 <FreeRTOS_UART_ioctl>:
    9930:	b580      	push	{r7, lr}
    9932:	b08a      	sub	sp, #40	; 0x28
    9934:	af00      	add	r7, sp, #0
    9936:	60f8      	str	r0, [r7, #12]
    9938:	60b9      	str	r1, [r7, #8]
    993a:	607a      	str	r2, [r7, #4]
    993c:	68fb      	ldr	r3, [r7, #12]
    993e:	623b      	str	r3, [r7, #32]
    9940:	687b      	ldr	r3, [r7, #4]
    9942:	61fb      	str	r3, [r7, #28]
    9944:	68fb      	ldr	r3, [r7, #12]
    9946:	7e1b      	ldrb	r3, [r3, #24]
    9948:	76fb      	strb	r3, [r7, #27]
    994a:	68fb      	ldr	r3, [r7, #12]
    994c:	695b      	ldr	r3, [r3, #20]
    994e:	689b      	ldr	r3, [r3, #8]
    9950:	617b      	str	r3, [r7, #20]
    9952:	2301      	movs	r3, #1
    9954:	627b      	str	r3, [r7, #36]	; 0x24
    9956:	f997 301b 	ldrsb.w	r3, [r7, #27]
    995a:	2b03      	cmp	r3, #3
    995c:	dd04      	ble.n	9968 <FreeRTOS_UART_ioctl+0x38>
    995e:	f04f 0028 	mov.w	r0, #40	; 0x28
    9962:	f380 8811 	msr	BASEPRI, r0
    9966:	e7fe      	b.n	9966 <FreeRTOS_UART_ioctl+0x36>
    9968:	f7fe fa26 	bl	7db8 <vPortEnterCritical>
    996c:	68bb      	ldr	r3, [r7, #8]
    996e:	2b65      	cmp	r3, #101	; 0x65
    9970:	d004      	beq.n	997c <FreeRTOS_UART_ioctl+0x4c>
    9972:	2b66      	cmp	r3, #102	; 0x66
    9974:	d031      	beq.n	99da <FreeRTOS_UART_ioctl+0xaa>
    9976:	2b64      	cmp	r3, #100	; 0x64
    9978:	d02a      	beq.n	99d0 <FreeRTOS_UART_ioctl+0xa0>
    997a:	e03f      	b.n	99fc <FreeRTOS_UART_ioctl+0xcc>
    997c:	69fb      	ldr	r3, [r7, #28]
    997e:	2b00      	cmp	r3, #0
    9980:	d107      	bne.n	9992 <FreeRTOS_UART_ioctl+0x62>
    9982:	f997 301b 	ldrsb.w	r3, [r7, #27]
    9986:	4a22      	ldr	r2, [pc, #136]	; (9a10 <FreeRTOS_UART_ioctl+0xe0>)
    9988:	56d3      	ldrsb	r3, [r2, r3]
    998a:	4618      	mov	r0, r3
    998c:	f7ff fc5e 	bl	924c <NVIC_DisableIRQ>
    9990:	e037      	b.n	9a02 <FreeRTOS_UART_ioctl+0xd2>
    9992:	2101      	movs	r1, #1
    9994:	6978      	ldr	r0, [r7, #20]
    9996:	f7ff fcbb 	bl	9310 <Chip_UART_IntEnable>
    999a:	2102      	movs	r1, #2
    999c:	6978      	ldr	r0, [r7, #20]
    999e:	f7ff fcb7 	bl	9310 <Chip_UART_IntEnable>
    99a2:	f997 301b 	ldrsb.w	r3, [r7, #27]
    99a6:	4a1a      	ldr	r2, [pc, #104]	; (9a10 <FreeRTOS_UART_ioctl+0xe0>)
    99a8:	56d3      	ldrsb	r3, [r2, r3]
    99aa:	211f      	movs	r1, #31
    99ac:	4618      	mov	r0, r3
    99ae:	f7ff fc67 	bl	9280 <NVIC_SetPriority>
    99b2:	f997 301b 	ldrsb.w	r3, [r7, #27]
    99b6:	4a16      	ldr	r2, [pc, #88]	; (9a10 <FreeRTOS_UART_ioctl+0xe0>)
    99b8:	56d3      	ldrsb	r3, [r2, r3]
    99ba:	4618      	mov	r0, r3
    99bc:	f7ff fc2e 	bl	921c <NVIC_EnableIRQ>
    99c0:	f997 301b 	ldrsb.w	r3, [r7, #27]
    99c4:	6a3a      	ldr	r2, [r7, #32]
    99c6:	6912      	ldr	r2, [r2, #16]
    99c8:	4912      	ldr	r1, [pc, #72]	; (9a14 <FreeRTOS_UART_ioctl+0xe4>)
    99ca:	f841 2023 	str.w	r2, [r1, r3, lsl #2]
    99ce:	e018      	b.n	9a02 <FreeRTOS_UART_ioctl+0xd2>
    99d0:	69f9      	ldr	r1, [r7, #28]
    99d2:	6978      	ldr	r0, [r7, #20]
    99d4:	f004 f962 	bl	dc9c <Chip_UART_SetBaud>
    99d8:	e013      	b.n	9a02 <FreeRTOS_UART_ioctl+0xd2>
    99da:	69fb      	ldr	r3, [r7, #28]
    99dc:	2b04      	cmp	r3, #4
    99de:	d804      	bhi.n	99ea <FreeRTOS_UART_ioctl+0xba>
    99e0:	f04f 0028 	mov.w	r0, #40	; 0x28
    99e4:	f380 8811 	msr	BASEPRI, r0
    99e8:	e7fe      	b.n	99e8 <FreeRTOS_UART_ioctl+0xb8>
    99ea:	f997 301b 	ldrsb.w	r3, [r7, #27]
    99ee:	4a08      	ldr	r2, [pc, #32]	; (9a10 <FreeRTOS_UART_ioctl+0xe0>)
    99f0:	56d3      	ldrsb	r3, [r2, r3]
    99f2:	69f9      	ldr	r1, [r7, #28]
    99f4:	4618      	mov	r0, r3
    99f6:	f7ff fc43 	bl	9280 <NVIC_SetPriority>
    99fa:	e002      	b.n	9a02 <FreeRTOS_UART_ioctl+0xd2>
    99fc:	2300      	movs	r3, #0
    99fe:	627b      	str	r3, [r7, #36]	; 0x24
    9a00:	bf00      	nop
    9a02:	f7fe f9f7 	bl	7df4 <vPortExitCritical>
    9a06:	6a7b      	ldr	r3, [r7, #36]	; 0x24
    9a08:	4618      	mov	r0, r3
    9a0a:	3728      	adds	r7, #40	; 0x28
    9a0c:	46bd      	mov	sp, r7
    9a0e:	bd80      	pop	{r7, pc}
    9a10:	0000e654 	.word	0x0000e654
    9a14:	10004058 	.word	0x10004058

00009a18 <UART3_IRQHandler>:
    9a18:	b580      	push	{r7, lr}
    9a1a:	b090      	sub	sp, #64	; 0x40
    9a1c:	af00      	add	r7, sp, #0
    9a1e:	230c      	movs	r3, #12
    9a20:	637b      	str	r3, [r7, #52]	; 0x34
    9a22:	2300      	movs	r3, #0
    9a24:	607b      	str	r3, [r7, #4]
    9a26:	2303      	movs	r3, #3
    9a28:	633b      	str	r3, [r7, #48]	; 0x30
    9a2a:	489c      	ldr	r0, [pc, #624]	; (9c9c <UART3_IRQHandler+0x284>)
    9a2c:	f7ff fc92 	bl	9354 <Chip_UART_ReadIntIDReg>
    9a30:	62f8      	str	r0, [r7, #44]	; 0x2c
    9a32:	6afa      	ldr	r2, [r7, #44]	; 0x2c
    9a34:	6b7b      	ldr	r3, [r7, #52]	; 0x34
    9a36:	4013      	ands	r3, r2
    9a38:	2b00      	cmp	r3, #0
    9a3a:	f000 80c6 	beq.w	9bca <UART3_IRQHandler+0x1b2>
    9a3e:	4a98      	ldr	r2, [pc, #608]	; (9ca0 <UART3_IRQHandler+0x288>)
    9a40:	6b3b      	ldr	r3, [r7, #48]	; 0x30
    9a42:	f852 3023 	ldr.w	r3, [r2, r3, lsl #2]
    9a46:	62bb      	str	r3, [r7, #40]	; 0x28
    9a48:	6abb      	ldr	r3, [r7, #40]	; 0x28
    9a4a:	2b00      	cmp	r3, #0
    9a4c:	f000 80bd 	beq.w	9bca <UART3_IRQHandler+0x1b2>
    9a50:	6abb      	ldr	r3, [r7, #40]	; 0x28
    9a52:	791b      	ldrb	r3, [r3, #4]
    9a54:	2b05      	cmp	r3, #5
    9a56:	d005      	beq.n	9a64 <UART3_IRQHandler+0x4c>
    9a58:	2b06      	cmp	r3, #6
    9a5a:	d046      	beq.n	9aea <UART3_IRQHandler+0xd2>
    9a5c:	2b04      	cmp	r3, #4
    9a5e:	f000 8087 	beq.w	9b70 <UART3_IRQHandler+0x158>
    9a62:	e0a5      	b.n	9bb0 <UART3_IRQHandler+0x198>
    9a64:	6abb      	ldr	r3, [r7, #40]	; 0x28
    9a66:	681b      	ldr	r3, [r3, #0]
    9a68:	627b      	str	r3, [r7, #36]	; 0x24
    9a6a:	6a7b      	ldr	r3, [r7, #36]	; 0x24
    9a6c:	330a      	adds	r3, #10
    9a6e:	623b      	str	r3, [r7, #32]
    9a70:	e02a      	b.n	9ac8 <UART3_IRQHandler+0xb0>
    9a72:	6a7b      	ldr	r3, [r7, #36]	; 0x24
    9a74:	8a9a      	ldrh	r2, [r3, #20]
    9a76:	6a7b      	ldr	r3, [r7, #36]	; 0x24
    9a78:	891b      	ldrh	r3, [r3, #8]
    9a7a:	429a      	cmp	r2, r3
    9a7c:	d221      	bcs.n	9ac2 <UART3_IRQHandler+0xaa>
    9a7e:	6a7b      	ldr	r3, [r7, #36]	; 0x24
    9a80:	685b      	ldr	r3, [r3, #4]
    9a82:	6a3a      	ldr	r2, [r7, #32]
    9a84:	8812      	ldrh	r2, [r2, #0]
    9a86:	4413      	add	r3, r2
    9a88:	4a84      	ldr	r2, [pc, #528]	; (9c9c <UART3_IRQHandler+0x284>)
    9a8a:	6812      	ldr	r2, [r2, #0]
    9a8c:	b2d2      	uxtb	r2, r2
    9a8e:	701a      	strb	r2, [r3, #0]
    9a90:	6bfb      	ldr	r3, [r7, #60]	; 0x3c
    9a92:	3301      	adds	r3, #1
    9a94:	63fb      	str	r3, [r7, #60]	; 0x3c
    9a96:	6a7b      	ldr	r3, [r7, #36]	; 0x24
    9a98:	8a9b      	ldrh	r3, [r3, #20]
    9a9a:	3301      	adds	r3, #1
    9a9c:	b29a      	uxth	r2, r3
    9a9e:	6a7b      	ldr	r3, [r7, #36]	; 0x24
    9aa0:	829a      	strh	r2, [r3, #20]
    9aa2:	6a3b      	ldr	r3, [r7, #32]
    9aa4:	881b      	ldrh	r3, [r3, #0]
    9aa6:	3301      	adds	r3, #1
    9aa8:	b29a      	uxth	r2, r3
    9aaa:	6a3b      	ldr	r3, [r7, #32]
    9aac:	801a      	strh	r2, [r3, #0]
    9aae:	6a3b      	ldr	r3, [r7, #32]
    9ab0:	881a      	ldrh	r2, [r3, #0]
    9ab2:	6a7b      	ldr	r3, [r7, #36]	; 0x24
    9ab4:	891b      	ldrh	r3, [r3, #8]
    9ab6:	429a      	cmp	r2, r3
    9ab8:	d106      	bne.n	9ac8 <UART3_IRQHandler+0xb0>
    9aba:	6a3b      	ldr	r3, [r7, #32]
    9abc:	2200      	movs	r2, #0
    9abe:	801a      	strh	r2, [r3, #0]
    9ac0:	e002      	b.n	9ac8 <UART3_IRQHandler+0xb0>
    9ac2:	6a7b      	ldr	r3, [r7, #36]	; 0x24
    9ac4:	2201      	movs	r2, #1
    9ac6:	81da      	strh	r2, [r3, #14]
    9ac8:	4b74      	ldr	r3, [pc, #464]	; (9c9c <UART3_IRQHandler+0x284>)
    9aca:	695b      	ldr	r3, [r3, #20]
    9acc:	f003 0301 	and.w	r3, r3, #1
    9ad0:	2b00      	cmp	r3, #0
    9ad2:	d1ce      	bne.n	9a72 <UART3_IRQHandler+0x5a>
    9ad4:	6bfb      	ldr	r3, [r7, #60]	; 0x3c
    9ad6:	2b00      	cmp	r3, #0
    9ad8:	d072      	beq.n	9bc0 <UART3_IRQHandler+0x1a8>
    9ada:	6a7b      	ldr	r3, [r7, #36]	; 0x24
    9adc:	681b      	ldr	r3, [r3, #0]
    9ade:	1d3a      	adds	r2, r7, #4
    9ae0:	4611      	mov	r1, r2
    9ae2:	4618      	mov	r0, r3
    9ae4:	f7f7 f8fe 	bl	ce4 <xQueueGiveFromISR>
    9ae8:	e06a      	b.n	9bc0 <UART3_IRQHandler+0x1a8>
    9aea:	6abb      	ldr	r3, [r7, #40]	; 0x28
    9aec:	681b      	ldr	r3, [r3, #0]
    9aee:	61fb      	str	r3, [r7, #28]
    9af0:	69fb      	ldr	r3, [r7, #28]
    9af2:	330a      	adds	r3, #10
    9af4:	61bb      	str	r3, [r7, #24]
    9af6:	e02a      	b.n	9b4e <UART3_IRQHandler+0x136>
    9af8:	69fb      	ldr	r3, [r7, #28]
    9afa:	8a9a      	ldrh	r2, [r3, #20]
    9afc:	69fb      	ldr	r3, [r7, #28]
    9afe:	891b      	ldrh	r3, [r3, #8]
    9b00:	429a      	cmp	r2, r3
    9b02:	d221      	bcs.n	9b48 <UART3_IRQHandler+0x130>
    9b04:	69fb      	ldr	r3, [r7, #28]
    9b06:	685b      	ldr	r3, [r3, #4]
    9b08:	69ba      	ldr	r2, [r7, #24]
    9b0a:	8812      	ldrh	r2, [r2, #0]
    9b0c:	4413      	add	r3, r2
    9b0e:	4a63      	ldr	r2, [pc, #396]	; (9c9c <UART3_IRQHandler+0x284>)
    9b10:	6812      	ldr	r2, [r2, #0]
    9b12:	b2d2      	uxtb	r2, r2
    9b14:	701a      	strb	r2, [r3, #0]
    9b16:	6bfb      	ldr	r3, [r7, #60]	; 0x3c
    9b18:	3301      	adds	r3, #1
    9b1a:	63fb      	str	r3, [r7, #60]	; 0x3c
    9b1c:	69fb      	ldr	r3, [r7, #28]
    9b1e:	8a9b      	ldrh	r3, [r3, #20]
    9b20:	3301      	adds	r3, #1
    9b22:	b29a      	uxth	r2, r3
    9b24:	69fb      	ldr	r3, [r7, #28]
    9b26:	829a      	strh	r2, [r3, #20]
    9b28:	69bb      	ldr	r3, [r7, #24]
    9b2a:	881b      	ldrh	r3, [r3, #0]
    9b2c:	3301      	adds	r3, #1
    9b2e:	b29a      	uxth	r2, r3
    9b30:	69bb      	ldr	r3, [r7, #24]
    9b32:	801a      	strh	r2, [r3, #0]
    9b34:	69bb      	ldr	r3, [r7, #24]
    9b36:	881a      	ldrh	r2, [r3, #0]
    9b38:	69fb      	ldr	r3, [r7, #28]
    9b3a:	891b      	ldrh	r3, [r3, #8]
    9b3c:	429a      	cmp	r2, r3
    9b3e:	d106      	bne.n	9b4e <UART3_IRQHandler+0x136>
    9b40:	69bb      	ldr	r3, [r7, #24]
    9b42:	2200      	movs	r2, #0
    9b44:	801a      	strh	r2, [r3, #0]
    9b46:	e002      	b.n	9b4e <UART3_IRQHandler+0x136>
    9b48:	69fb      	ldr	r3, [r7, #28]
    9b4a:	2201      	movs	r2, #1
    9b4c:	81da      	strh	r2, [r3, #14]
    9b4e:	4b53      	ldr	r3, [pc, #332]	; (9c9c <UART3_IRQHandler+0x284>)
    9b50:	695b      	ldr	r3, [r3, #20]
    9b52:	f003 0301 	and.w	r3, r3, #1
    9b56:	2b00      	cmp	r3, #0
    9b58:	d1ce      	bne.n	9af8 <UART3_IRQHandler+0xe0>
    9b5a:	6bfb      	ldr	r3, [r7, #60]	; 0x3c
    9b5c:	2b00      	cmp	r3, #0
    9b5e:	d031      	beq.n	9bc4 <UART3_IRQHandler+0x1ac>
    9b60:	69fb      	ldr	r3, [r7, #28]
    9b62:	681b      	ldr	r3, [r3, #0]
    9b64:	1d3a      	adds	r2, r7, #4
    9b66:	4611      	mov	r1, r2
    9b68:	4618      	mov	r0, r3
    9b6a:	f7f8 fc55 	bl	2418 <vTaskNotifyGiveFromISR>
    9b6e:	e029      	b.n	9bc4 <UART3_IRQHandler+0x1ac>
    9b70:	6abb      	ldr	r3, [r7, #40]	; 0x28
    9b72:	681b      	ldr	r3, [r3, #0]
    9b74:	617b      	str	r3, [r7, #20]
    9b76:	e014      	b.n	9ba2 <UART3_IRQHandler+0x18a>
    9b78:	4b48      	ldr	r3, [pc, #288]	; (9c9c <UART3_IRQHandler+0x284>)
    9b7a:	681b      	ldr	r3, [r3, #0]
    9b7c:	b2db      	uxtb	r3, r3
    9b7e:	70fb      	strb	r3, [r7, #3]
    9b80:	697b      	ldr	r3, [r7, #20]
    9b82:	6818      	ldr	r0, [r3, #0]
    9b84:	1d3a      	adds	r2, r7, #4
    9b86:	1cf9      	adds	r1, r7, #3
    9b88:	2300      	movs	r3, #0
    9b8a:	f7f7 f839 	bl	c00 <xQueueGenericSendFromISR>
    9b8e:	4603      	mov	r3, r0
    9b90:	2b01      	cmp	r3, #1
    9b92:	d003      	beq.n	9b9c <UART3_IRQHandler+0x184>
    9b94:	697b      	ldr	r3, [r7, #20]
    9b96:	2201      	movs	r2, #1
    9b98:	811a      	strh	r2, [r3, #8]
    9b9a:	e002      	b.n	9ba2 <UART3_IRQHandler+0x18a>
    9b9c:	6bfb      	ldr	r3, [r7, #60]	; 0x3c
    9b9e:	3301      	adds	r3, #1
    9ba0:	63fb      	str	r3, [r7, #60]	; 0x3c
    9ba2:	4b3e      	ldr	r3, [pc, #248]	; (9c9c <UART3_IRQHandler+0x284>)
    9ba4:	695b      	ldr	r3, [r3, #20]
    9ba6:	f003 0301 	and.w	r3, r3, #1
    9baa:	2b00      	cmp	r3, #0
    9bac:	d1e4      	bne.n	9b78 <UART3_IRQHandler+0x160>
    9bae:	e00c      	b.n	9bca <UART3_IRQHandler+0x1b2>
    9bb0:	687b      	ldr	r3, [r7, #4]
    9bb2:	2b00      	cmp	r3, #0
    9bb4:	d108      	bne.n	9bc8 <UART3_IRQHandler+0x1b0>
    9bb6:	f04f 0028 	mov.w	r0, #40	; 0x28
    9bba:	f380 8811 	msr	BASEPRI, r0
    9bbe:	e7fe      	b.n	9bbe <UART3_IRQHandler+0x1a6>
    9bc0:	bf00      	nop
    9bc2:	e002      	b.n	9bca <UART3_IRQHandler+0x1b2>
    9bc4:	bf00      	nop
    9bc6:	e000      	b.n	9bca <UART3_IRQHandler+0x1b2>
    9bc8:	bf00      	nop
    9bca:	6afb      	ldr	r3, [r7, #44]	; 0x2c
    9bcc:	f003 0302 	and.w	r3, r3, #2
    9bd0:	2b00      	cmp	r3, #0
    9bd2:	f000 8086 	beq.w	9ce2 <UART3_IRQHandler+0x2ca>
    9bd6:	4a33      	ldr	r2, [pc, #204]	; (9ca4 <UART3_IRQHandler+0x28c>)
    9bd8:	6b3b      	ldr	r3, [r7, #48]	; 0x30
    9bda:	f852 3023 	ldr.w	r3, [r2, r3, lsl #2]
    9bde:	62bb      	str	r3, [r7, #40]	; 0x28
    9be0:	6abb      	ldr	r3, [r7, #40]	; 0x28
    9be2:	2b00      	cmp	r3, #0
    9be4:	d07d      	beq.n	9ce2 <UART3_IRQHandler+0x2ca>
    9be6:	6abb      	ldr	r3, [r7, #40]	; 0x28
    9be8:	791b      	ldrb	r3, [r3, #4]
    9bea:	2b03      	cmp	r3, #3
    9bec:	d03c      	beq.n	9c68 <UART3_IRQHandler+0x250>
    9bee:	2b07      	cmp	r3, #7
    9bf0:	d05c      	beq.n	9cac <UART3_IRQHandler+0x294>
    9bf2:	2b02      	cmp	r3, #2
    9bf4:	d16a      	bne.n	9ccc <UART3_IRQHandler+0x2b4>
    9bf6:	6abb      	ldr	r3, [r7, #40]	; 0x28
    9bf8:	681b      	ldr	r3, [r3, #0]
    9bfa:	613b      	str	r3, [r7, #16]
    9bfc:	693b      	ldr	r3, [r7, #16]
    9bfe:	891b      	ldrh	r3, [r3, #8]
    9c00:	2b00      	cmp	r3, #0
    9c02:	d06b      	beq.n	9cdc <UART3_IRQHandler+0x2c4>
    9c04:	e028      	b.n	9c58 <UART3_IRQHandler+0x240>
    9c06:	693b      	ldr	r3, [r7, #16]
    9c08:	685b      	ldr	r3, [r3, #4]
    9c0a:	2b00      	cmp	r3, #0
    9c0c:	d103      	bne.n	9c16 <UART3_IRQHandler+0x1fe>
    9c0e:	23ff      	movs	r3, #255	; 0xff
    9c10:	f887 303b 	strb.w	r3, [r7, #59]	; 0x3b
    9c14:	e009      	b.n	9c2a <UART3_IRQHandler+0x212>
    9c16:	693b      	ldr	r3, [r7, #16]
    9c18:	685b      	ldr	r3, [r3, #4]
    9c1a:	781b      	ldrb	r3, [r3, #0]
    9c1c:	f887 303b 	strb.w	r3, [r7, #59]	; 0x3b
    9c20:	693b      	ldr	r3, [r7, #16]
    9c22:	685b      	ldr	r3, [r3, #4]
    9c24:	1c5a      	adds	r2, r3, #1
    9c26:	693b      	ldr	r3, [r7, #16]
    9c28:	605a      	str	r2, [r3, #4]
    9c2a:	4a1c      	ldr	r2, [pc, #112]	; (9c9c <UART3_IRQHandler+0x284>)
    9c2c:	f897 303b 	ldrb.w	r3, [r7, #59]	; 0x3b
    9c30:	6013      	str	r3, [r2, #0]
    9c32:	693b      	ldr	r3, [r7, #16]
    9c34:	891b      	ldrh	r3, [r3, #8]
    9c36:	3b01      	subs	r3, #1
    9c38:	b29a      	uxth	r2, r3
    9c3a:	693b      	ldr	r3, [r7, #16]
    9c3c:	811a      	strh	r2, [r3, #8]
    9c3e:	693b      	ldr	r3, [r7, #16]
    9c40:	891b      	ldrh	r3, [r3, #8]
    9c42:	2b00      	cmp	r3, #0
    9c44:	d108      	bne.n	9c58 <UART3_IRQHandler+0x240>
    9c46:	693b      	ldr	r3, [r7, #16]
    9c48:	681b      	ldr	r3, [r3, #0]
    9c4a:	1d3a      	adds	r2, r7, #4
    9c4c:	4611      	mov	r1, r2
    9c4e:	4618      	mov	r0, r3
    9c50:	f7f7 f848 	bl	ce4 <xQueueGiveFromISR>
    9c54:	bf00      	nop
    9c56:	e041      	b.n	9cdc <UART3_IRQHandler+0x2c4>
    9c58:	4b10      	ldr	r3, [pc, #64]	; (9c9c <UART3_IRQHandler+0x284>)
    9c5a:	6d9b      	ldr	r3, [r3, #88]	; 0x58
    9c5c:	f403 6370 	and.w	r3, r3, #3840	; 0xf00
    9c60:	f5b3 6f70 	cmp.w	r3, #3840	; 0xf00
    9c64:	d1cf      	bne.n	9c06 <UART3_IRQHandler+0x1ee>
    9c66:	e039      	b.n	9cdc <UART3_IRQHandler+0x2c4>
    9c68:	6abb      	ldr	r3, [r7, #40]	; 0x28
    9c6a:	681b      	ldr	r3, [r3, #0]
    9c6c:	60fb      	str	r3, [r7, #12]
    9c6e:	e00c      	b.n	9c8a <UART3_IRQHandler+0x272>
    9c70:	68fb      	ldr	r3, [r7, #12]
    9c72:	681b      	ldr	r3, [r3, #0]
    9c74:	1d3a      	adds	r2, r7, #4
    9c76:	1cb9      	adds	r1, r7, #2
    9c78:	4618      	mov	r0, r3
    9c7a:	f7f7 f887 	bl	d8c <xQueueReceiveFromISR>
    9c7e:	4603      	mov	r3, r0
    9c80:	2b01      	cmp	r3, #1
    9c82:	d111      	bne.n	9ca8 <UART3_IRQHandler+0x290>
    9c84:	4b05      	ldr	r3, [pc, #20]	; (9c9c <UART3_IRQHandler+0x284>)
    9c86:	78ba      	ldrb	r2, [r7, #2]
    9c88:	601a      	str	r2, [r3, #0]
    9c8a:	4b04      	ldr	r3, [pc, #16]	; (9c9c <UART3_IRQHandler+0x284>)
    9c8c:	6d9b      	ldr	r3, [r3, #88]	; 0x58
    9c8e:	0a1b      	lsrs	r3, r3, #8
    9c90:	f003 030f 	and.w	r3, r3, #15
    9c94:	2b0f      	cmp	r3, #15
    9c96:	d1eb      	bne.n	9c70 <UART3_IRQHandler+0x258>
    9c98:	e023      	b.n	9ce2 <UART3_IRQHandler+0x2ca>
    9c9a:	bf00      	nop
    9c9c:	4009c000 	.word	0x4009c000
    9ca0:	10004058 	.word	0x10004058
    9ca4:	10004048 	.word	0x10004048
    9ca8:	bf00      	nop
    9caa:	e01a      	b.n	9ce2 <UART3_IRQHandler+0x2ca>
    9cac:	6abb      	ldr	r3, [r7, #40]	; 0x28
    9cae:	681b      	ldr	r3, [r3, #0]
    9cb0:	60bb      	str	r3, [r7, #8]
    9cb2:	687b      	ldr	r3, [r7, #4]
    9cb4:	4619      	mov	r1, r3
    9cb6:	6ab8      	ldr	r0, [r7, #40]	; 0x28
    9cb8:	f7fe fc8a 	bl	85d0 <xIOUtilsTxCharsFromTNCircularBufferFromISR>
    9cbc:	68bb      	ldr	r3, [r7, #8]
    9cbe:	681b      	ldr	r3, [r3, #0]
    9cc0:	1d3a      	adds	r2, r7, #4
    9cc2:	4611      	mov	r1, r2
    9cc4:	4618      	mov	r0, r3
    9cc6:	f7f8 fba7 	bl	2418 <vTaskNotifyGiveFromISR>
    9cca:	e00a      	b.n	9ce2 <UART3_IRQHandler+0x2ca>
    9ccc:	687b      	ldr	r3, [r7, #4]
    9cce:	2b00      	cmp	r3, #0
    9cd0:	d106      	bne.n	9ce0 <UART3_IRQHandler+0x2c8>
    9cd2:	f04f 0028 	mov.w	r0, #40	; 0x28
    9cd6:	f380 8811 	msr	BASEPRI, r0
    9cda:	e7fe      	b.n	9cda <UART3_IRQHandler+0x2c2>
    9cdc:	bf00      	nop
    9cde:	e000      	b.n	9ce2 <UART3_IRQHandler+0x2ca>
    9ce0:	bf00      	nop
    9ce2:	687b      	ldr	r3, [r7, #4]
    9ce4:	2b00      	cmp	r3, #0
    9ce6:	d003      	beq.n	9cf0 <UART3_IRQHandler+0x2d8>
    9ce8:	4b03      	ldr	r3, [pc, #12]	; (9cf8 <UART3_IRQHandler+0x2e0>)
    9cea:	f04f 5280 	mov.w	r2, #268435456	; 0x10000000
    9cee:	601a      	str	r2, [r3, #0]
    9cf0:	bf00      	nop
    9cf2:	3740      	adds	r7, #64	; 0x40
    9cf4:	46bd      	mov	sp, r7
    9cf6:	bd80      	pop	{r7, pc}
    9cf8:	e000ed04 	.word	0xe000ed04

00009cfc <UART0_IRQHandler>:
    9cfc:	b580      	push	{r7, lr}
    9cfe:	b090      	sub	sp, #64	; 0x40
    9d00:	af00      	add	r7, sp, #0
    9d02:	230c      	movs	r3, #12
    9d04:	637b      	str	r3, [r7, #52]	; 0x34
    9d06:	2300      	movs	r3, #0
    9d08:	607b      	str	r3, [r7, #4]
    9d0a:	2300      	movs	r3, #0
    9d0c:	633b      	str	r3, [r7, #48]	; 0x30
    9d0e:	489c      	ldr	r0, [pc, #624]	; (9f80 <UART0_IRQHandler+0x284>)
    9d10:	f7ff fb20 	bl	9354 <Chip_UART_ReadIntIDReg>
    9d14:	62f8      	str	r0, [r7, #44]	; 0x2c
    9d16:	6afa      	ldr	r2, [r7, #44]	; 0x2c
    9d18:	6b7b      	ldr	r3, [r7, #52]	; 0x34
    9d1a:	4013      	ands	r3, r2
    9d1c:	2b00      	cmp	r3, #0
    9d1e:	f000 80c6 	beq.w	9eae <UART0_IRQHandler+0x1b2>
    9d22:	4a98      	ldr	r2, [pc, #608]	; (9f84 <UART0_IRQHandler+0x288>)
    9d24:	6b3b      	ldr	r3, [r7, #48]	; 0x30
    9d26:	f852 3023 	ldr.w	r3, [r2, r3, lsl #2]
    9d2a:	62bb      	str	r3, [r7, #40]	; 0x28
    9d2c:	6abb      	ldr	r3, [r7, #40]	; 0x28
    9d2e:	2b00      	cmp	r3, #0
    9d30:	f000 80bd 	beq.w	9eae <UART0_IRQHandler+0x1b2>
    9d34:	6abb      	ldr	r3, [r7, #40]	; 0x28
    9d36:	791b      	ldrb	r3, [r3, #4]
    9d38:	2b05      	cmp	r3, #5
    9d3a:	d005      	beq.n	9d48 <UART0_IRQHandler+0x4c>
    9d3c:	2b06      	cmp	r3, #6
    9d3e:	d046      	beq.n	9dce <UART0_IRQHandler+0xd2>
    9d40:	2b04      	cmp	r3, #4
    9d42:	f000 8087 	beq.w	9e54 <UART0_IRQHandler+0x158>
    9d46:	e0a5      	b.n	9e94 <UART0_IRQHandler+0x198>
    9d48:	6abb      	ldr	r3, [r7, #40]	; 0x28
    9d4a:	681b      	ldr	r3, [r3, #0]
    9d4c:	627b      	str	r3, [r7, #36]	; 0x24
    9d4e:	6a7b      	ldr	r3, [r7, #36]	; 0x24
    9d50:	330a      	adds	r3, #10
    9d52:	623b      	str	r3, [r7, #32]
    9d54:	e02a      	b.n	9dac <UART0_IRQHandler+0xb0>
    9d56:	6a7b      	ldr	r3, [r7, #36]	; 0x24
    9d58:	8a9a      	ldrh	r2, [r3, #20]
    9d5a:	6a7b      	ldr	r3, [r7, #36]	; 0x24
    9d5c:	891b      	ldrh	r3, [r3, #8]
    9d5e:	429a      	cmp	r2, r3
    9d60:	d221      	bcs.n	9da6 <UART0_IRQHandler+0xaa>
    9d62:	6a7b      	ldr	r3, [r7, #36]	; 0x24
    9d64:	685b      	ldr	r3, [r3, #4]
    9d66:	6a3a      	ldr	r2, [r7, #32]
    9d68:	8812      	ldrh	r2, [r2, #0]
    9d6a:	4413      	add	r3, r2
    9d6c:	4a84      	ldr	r2, [pc, #528]	; (9f80 <UART0_IRQHandler+0x284>)
    9d6e:	6812      	ldr	r2, [r2, #0]
    9d70:	b2d2      	uxtb	r2, r2
    9d72:	701a      	strb	r2, [r3, #0]
    9d74:	6bfb      	ldr	r3, [r7, #60]	; 0x3c
    9d76:	3301      	adds	r3, #1
    9d78:	63fb      	str	r3, [r7, #60]	; 0x3c
    9d7a:	6a7b      	ldr	r3, [r7, #36]	; 0x24
    9d7c:	8a9b      	ldrh	r3, [r3, #20]
    9d7e:	3301      	adds	r3, #1
    9d80:	b29a      	uxth	r2, r3
    9d82:	6a7b      	ldr	r3, [r7, #36]	; 0x24
    9d84:	829a      	strh	r2, [r3, #20]
    9d86:	6a3b      	ldr	r3, [r7, #32]
    9d88:	881b      	ldrh	r3, [r3, #0]
    9d8a:	3301      	adds	r3, #1
    9d8c:	b29a      	uxth	r2, r3
    9d8e:	6a3b      	ldr	r3, [r7, #32]
    9d90:	801a      	strh	r2, [r3, #0]
    9d92:	6a3b      	ldr	r3, [r7, #32]
    9d94:	881a      	ldrh	r2, [r3, #0]
    9d96:	6a7b      	ldr	r3, [r7, #36]	; 0x24
    9d98:	891b      	ldrh	r3, [r3, #8]
    9d9a:	429a      	cmp	r2, r3
    9d9c:	d106      	bne.n	9dac <UART0_IRQHandler+0xb0>
    9d9e:	6a3b      	ldr	r3, [r7, #32]
    9da0:	2200      	movs	r2, #0
    9da2:	801a      	strh	r2, [r3, #0]
    9da4:	e002      	b.n	9dac <UART0_IRQHandler+0xb0>
    9da6:	6a7b      	ldr	r3, [r7, #36]	; 0x24
    9da8:	2201      	movs	r2, #1
    9daa:	81da      	strh	r2, [r3, #14]
    9dac:	4b74      	ldr	r3, [pc, #464]	; (9f80 <UART0_IRQHandler+0x284>)
    9dae:	695b      	ldr	r3, [r3, #20]
    9db0:	f003 0301 	and.w	r3, r3, #1
    9db4:	2b00      	cmp	r3, #0
    9db6:	d1ce      	bne.n	9d56 <UART0_IRQHandler+0x5a>
    9db8:	6bfb      	ldr	r3, [r7, #60]	; 0x3c
    9dba:	2b00      	cmp	r3, #0
    9dbc:	d072      	beq.n	9ea4 <UART0_IRQHandler+0x1a8>
    9dbe:	6a7b      	ldr	r3, [r7, #36]	; 0x24
    9dc0:	681b      	ldr	r3, [r3, #0]
    9dc2:	1d3a      	adds	r2, r7, #4
    9dc4:	4611      	mov	r1, r2
    9dc6:	4618      	mov	r0, r3
    9dc8:	f7f6 ff8c 	bl	ce4 <xQueueGiveFromISR>
    9dcc:	e06a      	b.n	9ea4 <UART0_IRQHandler+0x1a8>
    9dce:	6abb      	ldr	r3, [r7, #40]	; 0x28
    9dd0:	681b      	ldr	r3, [r3, #0]
    9dd2:	61fb      	str	r3, [r7, #28]
    9dd4:	69fb      	ldr	r3, [r7, #28]
    9dd6:	330a      	adds	r3, #10
    9dd8:	61bb      	str	r3, [r7, #24]
    9dda:	e02a      	b.n	9e32 <UART0_IRQHandler+0x136>
    9ddc:	69fb      	ldr	r3, [r7, #28]
    9dde:	8a9a      	ldrh	r2, [r3, #20]
    9de0:	69fb      	ldr	r3, [r7, #28]
    9de2:	891b      	ldrh	r3, [r3, #8]
    9de4:	429a      	cmp	r2, r3
    9de6:	d221      	bcs.n	9e2c <UART0_IRQHandler+0x130>
    9de8:	69fb      	ldr	r3, [r7, #28]
    9dea:	685b      	ldr	r3, [r3, #4]
    9dec:	69ba      	ldr	r2, [r7, #24]
    9dee:	8812      	ldrh	r2, [r2, #0]
    9df0:	4413      	add	r3, r2
    9df2:	4a63      	ldr	r2, [pc, #396]	; (9f80 <UART0_IRQHandler+0x284>)
    9df4:	6812      	ldr	r2, [r2, #0]
    9df6:	b2d2      	uxtb	r2, r2
    9df8:	701a      	strb	r2, [r3, #0]
    9dfa:	6bfb      	ldr	r3, [r7, #60]	; 0x3c
    9dfc:	3301      	adds	r3, #1
    9dfe:	63fb      	str	r3, [r7, #60]	; 0x3c
    9e00:	69fb      	ldr	r3, [r7, #28]
    9e02:	8a9b      	ldrh	r3, [r3, #20]
    9e04:	3301      	adds	r3, #1
    9e06:	b29a      	uxth	r2, r3
    9e08:	69fb      	ldr	r3, [r7, #28]
    9e0a:	829a      	strh	r2, [r3, #20]
    9e0c:	69bb      	ldr	r3, [r7, #24]
    9e0e:	881b      	ldrh	r3, [r3, #0]
    9e10:	3301      	adds	r3, #1
    9e12:	b29a      	uxth	r2, r3
    9e14:	69bb      	ldr	r3, [r7, #24]
    9e16:	801a      	strh	r2, [r3, #0]
    9e18:	69bb      	ldr	r3, [r7, #24]
    9e1a:	881a      	ldrh	r2, [r3, #0]
    9e1c:	69fb      	ldr	r3, [r7, #28]
    9e1e:	891b      	ldrh	r3, [r3, #8]
    9e20:	429a      	cmp	r2, r3
    9e22:	d106      	bne.n	9e32 <UART0_IRQHandler+0x136>
    9e24:	69bb      	ldr	r3, [r7, #24]
    9e26:	2200      	movs	r2, #0
    9e28:	801a      	strh	r2, [r3, #0]
    9e2a:	e002      	b.n	9e32 <UART0_IRQHandler+0x136>
    9e2c:	69fb      	ldr	r3, [r7, #28]
    9e2e:	2201      	movs	r2, #1
    9e30:	81da      	strh	r2, [r3, #14]
    9e32:	4b53      	ldr	r3, [pc, #332]	; (9f80 <UART0_IRQHandler+0x284>)
    9e34:	695b      	ldr	r3, [r3, #20]
    9e36:	f003 0301 	and.w	r3, r3, #1
    9e3a:	2b00      	cmp	r3, #0
    9e3c:	d1ce      	bne.n	9ddc <UART0_IRQHandler+0xe0>
    9e3e:	6bfb      	ldr	r3, [r7, #60]	; 0x3c
    9e40:	2b00      	cmp	r3, #0
    9e42:	d031      	beq.n	9ea8 <UART0_IRQHandler+0x1ac>
    9e44:	69fb      	ldr	r3, [r7, #28]
    9e46:	681b      	ldr	r3, [r3, #0]
    9e48:	1d3a      	adds	r2, r7, #4
    9e4a:	4611      	mov	r1, r2
    9e4c:	4618      	mov	r0, r3
    9e4e:	f7f8 fae3 	bl	2418 <vTaskNotifyGiveFromISR>
    9e52:	e029      	b.n	9ea8 <UART0_IRQHandler+0x1ac>
    9e54:	6abb      	ldr	r3, [r7, #40]	; 0x28
    9e56:	681b      	ldr	r3, [r3, #0]
    9e58:	617b      	str	r3, [r7, #20]
    9e5a:	e014      	b.n	9e86 <UART0_IRQHandler+0x18a>
    9e5c:	4b48      	ldr	r3, [pc, #288]	; (9f80 <UART0_IRQHandler+0x284>)
    9e5e:	681b      	ldr	r3, [r3, #0]
    9e60:	b2db      	uxtb	r3, r3
    9e62:	70fb      	strb	r3, [r7, #3]
    9e64:	697b      	ldr	r3, [r7, #20]
    9e66:	6818      	ldr	r0, [r3, #0]
    9e68:	1d3a      	adds	r2, r7, #4
    9e6a:	1cf9      	adds	r1, r7, #3
    9e6c:	2300      	movs	r3, #0
    9e6e:	f7f6 fec7 	bl	c00 <xQueueGenericSendFromISR>
    9e72:	4603      	mov	r3, r0
    9e74:	2b01      	cmp	r3, #1
    9e76:	d003      	beq.n	9e80 <UART0_IRQHandler+0x184>
    9e78:	697b      	ldr	r3, [r7, #20]
    9e7a:	2201      	movs	r2, #1
    9e7c:	811a      	strh	r2, [r3, #8]
    9e7e:	e002      	b.n	9e86 <UART0_IRQHandler+0x18a>
    9e80:	6bfb      	ldr	r3, [r7, #60]	; 0x3c
    9e82:	3301      	adds	r3, #1
    9e84:	63fb      	str	r3, [r7, #60]	; 0x3c
    9e86:	4b3e      	ldr	r3, [pc, #248]	; (9f80 <UART0_IRQHandler+0x284>)
    9e88:	695b      	ldr	r3, [r3, #20]
    9e8a:	f003 0301 	and.w	r3, r3, #1
    9e8e:	2b00      	cmp	r3, #0
    9e90:	d1e4      	bne.n	9e5c <UART0_IRQHandler+0x160>
    9e92:	e00c      	b.n	9eae <UART0_IRQHandler+0x1b2>
    9e94:	687b      	ldr	r3, [r7, #4]
    9e96:	2b00      	cmp	r3, #0
    9e98:	d108      	bne.n	9eac <UART0_IRQHandler+0x1b0>
    9e9a:	f04f 0028 	mov.w	r0, #40	; 0x28
    9e9e:	f380 8811 	msr	BASEPRI, r0
    9ea2:	e7fe      	b.n	9ea2 <UART0_IRQHandler+0x1a6>
    9ea4:	bf00      	nop
    9ea6:	e002      	b.n	9eae <UART0_IRQHandler+0x1b2>
    9ea8:	bf00      	nop
    9eaa:	e000      	b.n	9eae <UART0_IRQHandler+0x1b2>
    9eac:	bf00      	nop
    9eae:	6afb      	ldr	r3, [r7, #44]	; 0x2c
    9eb0:	f003 0302 	and.w	r3, r3, #2
    9eb4:	2b00      	cmp	r3, #0
    9eb6:	f000 8086 	beq.w	9fc6 <UART0_IRQHandler+0x2ca>
    9eba:	4a33      	ldr	r2, [pc, #204]	; (9f88 <UART0_IRQHandler+0x28c>)
    9ebc:	6b3b      	ldr	r3, [r7, #48]	; 0x30
    9ebe:	f852 3023 	ldr.w	r3, [r2, r3, lsl #2]
    9ec2:	62bb      	str	r3, [r7, #40]	; 0x28
    9ec4:	6abb      	ldr	r3, [r7, #40]	; 0x28
    9ec6:	2b00      	cmp	r3, #0
    9ec8:	d07d      	beq.n	9fc6 <UART0_IRQHandler+0x2ca>
    9eca:	6abb      	ldr	r3, [r7, #40]	; 0x28
    9ecc:	791b      	ldrb	r3, [r3, #4]
    9ece:	2b03      	cmp	r3, #3
    9ed0:	d03c      	beq.n	9f4c <UART0_IRQHandler+0x250>
    9ed2:	2b07      	cmp	r3, #7
    9ed4:	d05c      	beq.n	9f90 <UART0_IRQHandler+0x294>
    9ed6:	2b02      	cmp	r3, #2
    9ed8:	d16a      	bne.n	9fb0 <UART0_IRQHandler+0x2b4>
    9eda:	6abb      	ldr	r3, [r7, #40]	; 0x28
    9edc:	681b      	ldr	r3, [r3, #0]
    9ede:	613b      	str	r3, [r7, #16]
    9ee0:	693b      	ldr	r3, [r7, #16]
    9ee2:	891b      	ldrh	r3, [r3, #8]
    9ee4:	2b00      	cmp	r3, #0
    9ee6:	d06b      	beq.n	9fc0 <UART0_IRQHandler+0x2c4>
    9ee8:	e028      	b.n	9f3c <UART0_IRQHandler+0x240>
    9eea:	693b      	ldr	r3, [r7, #16]
    9eec:	685b      	ldr	r3, [r3, #4]
    9eee:	2b00      	cmp	r3, #0
    9ef0:	d103      	bne.n	9efa <UART0_IRQHandler+0x1fe>
    9ef2:	23ff      	movs	r3, #255	; 0xff
    9ef4:	f887 303b 	strb.w	r3, [r7, #59]	; 0x3b
    9ef8:	e009      	b.n	9f0e <UART0_IRQHandler+0x212>
    9efa:	693b      	ldr	r3, [r7, #16]
    9efc:	685b      	ldr	r3, [r3, #4]
    9efe:	781b      	ldrb	r3, [r3, #0]
    9f00:	f887 303b 	strb.w	r3, [r7, #59]	; 0x3b
    9f04:	693b      	ldr	r3, [r7, #16]
    9f06:	685b      	ldr	r3, [r3, #4]
    9f08:	1c5a      	adds	r2, r3, #1
    9f0a:	693b      	ldr	r3, [r7, #16]
    9f0c:	605a      	str	r2, [r3, #4]
    9f0e:	4a1c      	ldr	r2, [pc, #112]	; (9f80 <UART0_IRQHandler+0x284>)
    9f10:	f897 303b 	ldrb.w	r3, [r7, #59]	; 0x3b
    9f14:	6013      	str	r3, [r2, #0]
    9f16:	693b      	ldr	r3, [r7, #16]
    9f18:	891b      	ldrh	r3, [r3, #8]
    9f1a:	3b01      	subs	r3, #1
    9f1c:	b29a      	uxth	r2, r3
    9f1e:	693b      	ldr	r3, [r7, #16]
    9f20:	811a      	strh	r2, [r3, #8]
    9f22:	693b      	ldr	r3, [r7, #16]
    9f24:	891b      	ldrh	r3, [r3, #8]
    9f26:	2b00      	cmp	r3, #0
    9f28:	d108      	bne.n	9f3c <UART0_IRQHandler+0x240>
    9f2a:	693b      	ldr	r3, [r7, #16]
    9f2c:	681b      	ldr	r3, [r3, #0]
    9f2e:	1d3a      	adds	r2, r7, #4
    9f30:	4611      	mov	r1, r2
    9f32:	4618      	mov	r0, r3
    9f34:	f7f6 fed6 	bl	ce4 <xQueueGiveFromISR>
    9f38:	bf00      	nop
    9f3a:	e041      	b.n	9fc0 <UART0_IRQHandler+0x2c4>
    9f3c:	4b10      	ldr	r3, [pc, #64]	; (9f80 <UART0_IRQHandler+0x284>)
    9f3e:	6d9b      	ldr	r3, [r3, #88]	; 0x58
    9f40:	f403 6370 	and.w	r3, r3, #3840	; 0xf00
    9f44:	f5b3 6f70 	cmp.w	r3, #3840	; 0xf00
    9f48:	d1cf      	bne.n	9eea <UART0_IRQHandler+0x1ee>
    9f4a:	e039      	b.n	9fc0 <UART0_IRQHandler+0x2c4>
    9f4c:	6abb      	ldr	r3, [r7, #40]	; 0x28
    9f4e:	681b      	ldr	r3, [r3, #0]
    9f50:	60fb      	str	r3, [r7, #12]
    9f52:	e00c      	b.n	9f6e <UART0_IRQHandler+0x272>
    9f54:	68fb      	ldr	r3, [r7, #12]
    9f56:	681b      	ldr	r3, [r3, #0]
    9f58:	1d3a      	adds	r2, r7, #4
    9f5a:	1cb9      	adds	r1, r7, #2
    9f5c:	4618      	mov	r0, r3
    9f5e:	f7f6 ff15 	bl	d8c <xQueueReceiveFromISR>
    9f62:	4603      	mov	r3, r0
    9f64:	2b01      	cmp	r3, #1
    9f66:	d111      	bne.n	9f8c <UART0_IRQHandler+0x290>
    9f68:	4b05      	ldr	r3, [pc, #20]	; (9f80 <UART0_IRQHandler+0x284>)
    9f6a:	78ba      	ldrb	r2, [r7, #2]
    9f6c:	601a      	str	r2, [r3, #0]
    9f6e:	4b04      	ldr	r3, [pc, #16]	; (9f80 <UART0_IRQHandler+0x284>)
    9f70:	6d9b      	ldr	r3, [r3, #88]	; 0x58
    9f72:	0a1b      	lsrs	r3, r3, #8
    9f74:	f003 030f 	and.w	r3, r3, #15
    9f78:	2b0f      	cmp	r3, #15
    9f7a:	d1eb      	bne.n	9f54 <UART0_IRQHandler+0x258>
    9f7c:	e023      	b.n	9fc6 <UART0_IRQHandler+0x2ca>
    9f7e:	bf00      	nop
    9f80:	4000c000 	.word	0x4000c000
    9f84:	10004058 	.word	0x10004058
    9f88:	10004048 	.word	0x10004048
    9f8c:	bf00      	nop
    9f8e:	e01a      	b.n	9fc6 <UART0_IRQHandler+0x2ca>
    9f90:	6abb      	ldr	r3, [r7, #40]	; 0x28
    9f92:	681b      	ldr	r3, [r3, #0]
    9f94:	60bb      	str	r3, [r7, #8]
    9f96:	687b      	ldr	r3, [r7, #4]
    9f98:	4619      	mov	r1, r3
    9f9a:	6ab8      	ldr	r0, [r7, #40]	; 0x28
    9f9c:	f7fe fb18 	bl	85d0 <xIOUtilsTxCharsFromTNCircularBufferFromISR>
    9fa0:	68bb      	ldr	r3, [r7, #8]
    9fa2:	681b      	ldr	r3, [r3, #0]
    9fa4:	1d3a      	adds	r2, r7, #4
    9fa6:	4611      	mov	r1, r2
    9fa8:	4618      	mov	r0, r3
    9faa:	f7f8 fa35 	bl	2418 <vTaskNotifyGiveFromISR>
    9fae:	e00a      	b.n	9fc6 <UART0_IRQHandler+0x2ca>
    9fb0:	687b      	ldr	r3, [r7, #4]
    9fb2:	2b00      	cmp	r3, #0
    9fb4:	d106      	bne.n	9fc4 <UART0_IRQHandler+0x2c8>
    9fb6:	f04f 0028 	mov.w	r0, #40	; 0x28
    9fba:	f380 8811 	msr	BASEPRI, r0
    9fbe:	e7fe      	b.n	9fbe <UART0_IRQHandler+0x2c2>
    9fc0:	bf00      	nop
    9fc2:	e000      	b.n	9fc6 <UART0_IRQHandler+0x2ca>
    9fc4:	bf00      	nop
    9fc6:	687b      	ldr	r3, [r7, #4]
    9fc8:	2b00      	cmp	r3, #0
    9fca:	d003      	beq.n	9fd4 <UART0_IRQHandler+0x2d8>
    9fcc:	4b03      	ldr	r3, [pc, #12]	; (9fdc <UART0_IRQHandler+0x2e0>)
    9fce:	f04f 5280 	mov.w	r2, #268435456	; 0x10000000
    9fd2:	601a      	str	r2, [r3, #0]
    9fd4:	bf00      	nop
    9fd6:	3740      	adds	r7, #64	; 0x40
    9fd8:	46bd      	mov	sp, r7
    9fda:	bd80      	pop	{r7, pc}
    9fdc:	e000ed04 	.word	0xe000ed04

00009fe0 <FreeRTOS_open>:
    9fe0:	b580      	push	{r7, lr}
    9fe2:	b088      	sub	sp, #32
    9fe4:	af00      	add	r7, sp, #0
    9fe6:	6078      	str	r0, [r7, #4]
    9fe8:	6039      	str	r1, [r7, #0]
    9fea:	2305      	movs	r3, #5
    9fec:	617b      	str	r3, [r7, #20]
    9fee:	2300      	movs	r3, #0
    9ff0:	61bb      	str	r3, [r7, #24]
    9ff2:	2300      	movs	r3, #0
    9ff4:	61fb      	str	r3, [r7, #28]
    9ff6:	e011      	b.n	a01c <FreeRTOS_open+0x3c>
    9ff8:	493a      	ldr	r1, [pc, #232]	; (a0e4 <FreeRTOS_open+0x104>)
    9ffa:	69fa      	ldr	r2, [r7, #28]
    9ffc:	4613      	mov	r3, r2
    9ffe:	005b      	lsls	r3, r3, #1
    a000:	4413      	add	r3, r2
    a002:	009b      	lsls	r3, r3, #2
    a004:	440b      	add	r3, r1
    a006:	681b      	ldr	r3, [r3, #0]
    a008:	4619      	mov	r1, r3
    a00a:	6878      	ldr	r0, [r7, #4]
    a00c:	f003 fef8 	bl	de00 <strcmp>
    a010:	4603      	mov	r3, r0
    a012:	2b00      	cmp	r3, #0
    a014:	d007      	beq.n	a026 <FreeRTOS_open+0x46>
    a016:	69fb      	ldr	r3, [r7, #28]
    a018:	3301      	adds	r3, #1
    a01a:	61fb      	str	r3, [r7, #28]
    a01c:	69fa      	ldr	r2, [r7, #28]
    a01e:	697b      	ldr	r3, [r7, #20]
    a020:	429a      	cmp	r2, r3
    a022:	dbe9      	blt.n	9ff8 <FreeRTOS_open+0x18>
    a024:	e000      	b.n	a028 <FreeRTOS_open+0x48>
    a026:	bf00      	nop
    a028:	69fa      	ldr	r2, [r7, #28]
    a02a:	697b      	ldr	r3, [r7, #20]
    a02c:	429a      	cmp	r2, r3
    a02e:	da53      	bge.n	a0d8 <FreeRTOS_open+0xf8>
    a030:	e010      	b.n	a054 <FreeRTOS_open+0x74>
    a032:	687b      	ldr	r3, [r7, #4]
    a034:	3301      	adds	r3, #1
    a036:	607b      	str	r3, [r7, #4]
    a038:	e002      	b.n	a040 <FreeRTOS_open+0x60>
    a03a:	687b      	ldr	r3, [r7, #4]
    a03c:	3301      	adds	r3, #1
    a03e:	607b      	str	r3, [r7, #4]
    a040:	687b      	ldr	r3, [r7, #4]
    a042:	f993 3000 	ldrsb.w	r3, [r3]
    a046:	2b2f      	cmp	r3, #47	; 0x2f
    a048:	ddf7      	ble.n	a03a <FreeRTOS_open+0x5a>
    a04a:	687b      	ldr	r3, [r7, #4]
    a04c:	f993 3000 	ldrsb.w	r3, [r3]
    a050:	2b39      	cmp	r3, #57	; 0x39
    a052:	dcf2      	bgt.n	a03a <FreeRTOS_open+0x5a>
    a054:	687b      	ldr	r3, [r7, #4]
    a056:	3301      	adds	r3, #1
    a058:	f993 3000 	ldrsb.w	r3, [r3]
    a05c:	2b2f      	cmp	r3, #47	; 0x2f
    a05e:	d005      	beq.n	a06c <FreeRTOS_open+0x8c>
    a060:	687b      	ldr	r3, [r7, #4]
    a062:	3301      	adds	r3, #1
    a064:	f993 3000 	ldrsb.w	r3, [r3]
    a068:	2b00      	cmp	r3, #0
    a06a:	d1e2      	bne.n	a032 <FreeRTOS_open+0x52>
    a06c:	687b      	ldr	r3, [r7, #4]
    a06e:	f993 3000 	ldrsb.w	r3, [r3]
    a072:	b2db      	uxtb	r3, r3
    a074:	3b30      	subs	r3, #48	; 0x30
    a076:	b2db      	uxtb	r3, r3
    a078:	74fb      	strb	r3, [r7, #19]
    a07a:	201c      	movs	r0, #28
    a07c:	f7fe f82c 	bl	80d8 <MPU_pvPortMalloc>
    a080:	61b8      	str	r0, [r7, #24]
    a082:	69bb      	ldr	r3, [r7, #24]
    a084:	2b00      	cmp	r3, #0
    a086:	d027      	beq.n	a0d8 <FreeRTOS_open+0xf8>
    a088:	69bb      	ldr	r3, [r7, #24]
    a08a:	2200      	movs	r2, #0
    a08c:	60da      	str	r2, [r3, #12]
    a08e:	69bb      	ldr	r3, [r7, #24]
    a090:	2200      	movs	r2, #0
    a092:	611a      	str	r2, [r3, #16]
    a094:	69fa      	ldr	r2, [r7, #28]
    a096:	4613      	mov	r3, r2
    a098:	005b      	lsls	r3, r3, #1
    a09a:	4413      	add	r3, r2
    a09c:	009b      	lsls	r3, r3, #2
    a09e:	4a11      	ldr	r2, [pc, #68]	; (a0e4 <FreeRTOS_open+0x104>)
    a0a0:	441a      	add	r2, r3
    a0a2:	69bb      	ldr	r3, [r7, #24]
    a0a4:	615a      	str	r2, [r3, #20]
    a0a6:	69bb      	ldr	r3, [r7, #24]
    a0a8:	7cfa      	ldrb	r2, [r7, #19]
    a0aa:	761a      	strb	r2, [r3, #24]
    a0ac:	490d      	ldr	r1, [pc, #52]	; (a0e4 <FreeRTOS_open+0x104>)
    a0ae:	69fa      	ldr	r2, [r7, #28]
    a0b0:	4613      	mov	r3, r2
    a0b2:	005b      	lsls	r3, r3, #1
    a0b4:	4413      	add	r3, r2
    a0b6:	009b      	lsls	r3, r3, #2
    a0b8:	440b      	add	r3, r1
    a0ba:	3304      	adds	r3, #4
    a0bc:	781b      	ldrb	r3, [r3, #0]
    a0be:	69b9      	ldr	r1, [r7, #24]
    a0c0:	4618      	mov	r0, r3
    a0c2:	f7fe fac3 	bl	864c <vFreeRTOS_lpc17xx_PopulateFunctionPointers>
    a0c6:	60f8      	str	r0, [r7, #12]
    a0c8:	68fb      	ldr	r3, [r7, #12]
    a0ca:	2b01      	cmp	r3, #1
    a0cc:	d004      	beq.n	a0d8 <FreeRTOS_open+0xf8>
    a0ce:	69b8      	ldr	r0, [r7, #24]
    a0d0:	f7fe f81c 	bl	810c <MPU_vPortFree>
    a0d4:	2300      	movs	r3, #0
    a0d6:	61bb      	str	r3, [r7, #24]
    a0d8:	69bb      	ldr	r3, [r7, #24]
    a0da:	4618      	mov	r0, r3
    a0dc:	3720      	adds	r7, #32
    a0de:	46bd      	mov	sp, r7
    a0e0:	bd80      	pop	{r7, pc}
    a0e2:	bf00      	nop
    a0e4:	0000e680 	.word	0x0000e680

0000a0e8 <FreeRTOS_ioctl>:
    a0e8:	b580      	push	{r7, lr}
    a0ea:	b088      	sub	sp, #32
    a0ec:	af00      	add	r7, sp, #0
    a0ee:	60f8      	str	r0, [r7, #12]
    a0f0:	60b9      	str	r1, [r7, #8]
    a0f2:	607a      	str	r2, [r7, #4]
    a0f4:	68fb      	ldr	r3, [r7, #12]
    a0f6:	617b      	str	r3, [r7, #20]
    a0f8:	2300      	movs	r3, #0
    a0fa:	61fb      	str	r3, [r7, #28]
    a0fc:	2300      	movs	r3, #0
    a0fe:	61bb      	str	r3, [r7, #24]
    a100:	697b      	ldr	r3, [r7, #20]
    a102:	2b00      	cmp	r3, #0
    a104:	d104      	bne.n	a110 <FreeRTOS_ioctl+0x28>
    a106:	f04f 0028 	mov.w	r0, #40	; 0x28
    a10a:	f380 8811 	msr	BASEPRI, r0
    a10e:	e7fe      	b.n	a10e <FreeRTOS_ioctl+0x26>
    a110:	68bb      	ldr	r3, [r7, #8]
    a112:	3b02      	subs	r3, #2
    a114:	2b0d      	cmp	r3, #13
    a116:	f200 80b7 	bhi.w	a288 <FreeRTOS_ioctl+0x1a0>
    a11a:	a201      	add	r2, pc, #4	; (adr r2, a120 <FreeRTOS_ioctl+0x38>)
    a11c:	f852 f023 	ldr.w	pc, [r2, r3, lsl #2]
    a120:	0000a159 	.word	0x0000a159
    a124:	0000a1a5 	.word	0x0000a1a5
    a128:	0000a1a5 	.word	0x0000a1a5
    a12c:	0000a16f 	.word	0x0000a16f
    a130:	0000a189 	.word	0x0000a189
    a134:	0000a189 	.word	0x0000a189
    a138:	0000a289 	.word	0x0000a289
    a13c:	0000a289 	.word	0x0000a289
    a140:	0000a20f 	.word	0x0000a20f
    a144:	0000a20f 	.word	0x0000a20f
    a148:	0000a245 	.word	0x0000a245
    a14c:	0000a1c1 	.word	0x0000a1c1
    a150:	0000a1db 	.word	0x0000a1db
    a154:	0000a25d 	.word	0x0000a25d
    a158:	6978      	ldr	r0, [r7, #20]
    a15a:	f000 fb5f 	bl	a81c <xIOUtilsConfigureZeroCopyTx>
    a15e:	61f8      	str	r0, [r7, #28]
    a160:	2365      	movs	r3, #101	; 0x65
    a162:	60bb      	str	r3, [r7, #8]
    a164:	2301      	movs	r3, #1
    a166:	607b      	str	r3, [r7, #4]
    a168:	2301      	movs	r3, #1
    a16a:	61bb      	str	r3, [r7, #24]
    a16c:	e09a      	b.n	a2a4 <FreeRTOS_ioctl+0x1bc>
    a16e:	687b      	ldr	r3, [r7, #4]
    a170:	4619      	mov	r1, r3
    a172:	6978      	ldr	r0, [r7, #20]
    a174:	f000 fa24 	bl	a5c0 <xIOUtilsConfigureCircularBufferRx>
    a178:	61f8      	str	r0, [r7, #28]
    a17a:	2365      	movs	r3, #101	; 0x65
    a17c:	60bb      	str	r3, [r7, #8]
    a17e:	2301      	movs	r3, #1
    a180:	607b      	str	r3, [r7, #4]
    a182:	2301      	movs	r3, #1
    a184:	61bb      	str	r3, [r7, #24]
    a186:	e08d      	b.n	a2a4 <FreeRTOS_ioctl+0x1bc>
    a188:	687b      	ldr	r3, [r7, #4]
    a18a:	461a      	mov	r2, r3
    a18c:	68b9      	ldr	r1, [r7, #8]
    a18e:	6978      	ldr	r0, [r7, #20]
    a190:	f7fe f930 	bl	83f4 <xIOUtilsConfigureTaskNotificationBasedRx>
    a194:	61f8      	str	r0, [r7, #28]
    a196:	2365      	movs	r3, #101	; 0x65
    a198:	60bb      	str	r3, [r7, #8]
    a19a:	2301      	movs	r3, #1
    a19c:	607b      	str	r3, [r7, #4]
    a19e:	2301      	movs	r3, #1
    a1a0:	61bb      	str	r3, [r7, #24]
    a1a2:	e07f      	b.n	a2a4 <FreeRTOS_ioctl+0x1bc>
    a1a4:	687b      	ldr	r3, [r7, #4]
    a1a6:	461a      	mov	r2, r3
    a1a8:	68b9      	ldr	r1, [r7, #8]
    a1aa:	6978      	ldr	r0, [r7, #20]
    a1ac:	f000 f920 	bl	a3f0 <xIOUtilsConfigureTransferQueue>
    a1b0:	61f8      	str	r0, [r7, #28]
    a1b2:	2365      	movs	r3, #101	; 0x65
    a1b4:	60bb      	str	r3, [r7, #8]
    a1b6:	2301      	movs	r3, #1
    a1b8:	607b      	str	r3, [r7, #4]
    a1ba:	2301      	movs	r3, #1
    a1bc:	61bb      	str	r3, [r7, #24]
    a1be:	e071      	b.n	a2a4 <FreeRTOS_ioctl+0x1bc>
    a1c0:	697b      	ldr	r3, [r7, #20]
    a1c2:	68db      	ldr	r3, [r3, #12]
    a1c4:	791b      	ldrb	r3, [r3, #4]
    a1c6:	2b03      	cmp	r3, #3
    a1c8:	d163      	bne.n	a292 <FreeRTOS_ioctl+0x1aa>
    a1ca:	687b      	ldr	r3, [r7, #4]
    a1cc:	4619      	mov	r1, r3
    a1ce:	6978      	ldr	r0, [r7, #20]
    a1d0:	f000 f8e6 	bl	a3a0 <xIOUtilsSetTxQueueTimeout>
    a1d4:	2301      	movs	r3, #1
    a1d6:	61fb      	str	r3, [r7, #28]
    a1d8:	e05b      	b.n	a292 <FreeRTOS_ioctl+0x1aa>
    a1da:	697b      	ldr	r3, [r7, #20]
    a1dc:	691b      	ldr	r3, [r3, #16]
    a1de:	791b      	ldrb	r3, [r3, #4]
    a1e0:	2b05      	cmp	r3, #5
    a1e2:	d107      	bne.n	a1f4 <FreeRTOS_ioctl+0x10c>
    a1e4:	687b      	ldr	r3, [r7, #4]
    a1e6:	4619      	mov	r1, r3
    a1e8:	6978      	ldr	r0, [r7, #20]
    a1ea:	f000 fb03 	bl	a7f4 <vIOUtilsSetCircularBufferTimeout>
    a1ee:	2301      	movs	r3, #1
    a1f0:	61fb      	str	r3, [r7, #28]
    a1f2:	e050      	b.n	a296 <FreeRTOS_ioctl+0x1ae>
    a1f4:	697b      	ldr	r3, [r7, #20]
    a1f6:	691b      	ldr	r3, [r3, #16]
    a1f8:	791b      	ldrb	r3, [r3, #4]
    a1fa:	2b04      	cmp	r3, #4
    a1fc:	d14b      	bne.n	a296 <FreeRTOS_ioctl+0x1ae>
    a1fe:	687b      	ldr	r3, [r7, #4]
    a200:	4619      	mov	r1, r3
    a202:	6978      	ldr	r0, [r7, #20]
    a204:	f000 f8e0 	bl	a3c8 <vIOUtilsSetRxQueueTimeout>
    a208:	2301      	movs	r3, #1
    a20a:	61fb      	str	r3, [r7, #28]
    a20c:	e043      	b.n	a296 <FreeRTOS_ioctl+0x1ae>
    a20e:	2301      	movs	r3, #1
    a210:	61fb      	str	r3, [r7, #28]
    a212:	697b      	ldr	r3, [r7, #20]
    a214:	68db      	ldr	r3, [r3, #12]
    a216:	791b      	ldrb	r3, [r3, #4]
    a218:	2b02      	cmp	r3, #2
    a21a:	d107      	bne.n	a22c <FreeRTOS_ioctl+0x144>
    a21c:	687b      	ldr	r3, [r7, #4]
    a21e:	461a      	mov	r2, r3
    a220:	68b9      	ldr	r1, [r7, #8]
    a222:	6978      	ldr	r0, [r7, #20]
    a224:	f000 fb4a 	bl	a8bc <xIOUtilsGetZeroCopyWriteMutex>
    a228:	61f8      	str	r0, [r7, #28]
    a22a:	e036      	b.n	a29a <FreeRTOS_ioctl+0x1b2>
    a22c:	697b      	ldr	r3, [r7, #20]
    a22e:	68db      	ldr	r3, [r3, #12]
    a230:	791b      	ldrb	r3, [r3, #4]
    a232:	2b03      	cmp	r3, #3
    a234:	d131      	bne.n	a29a <FreeRTOS_ioctl+0x1b2>
    a236:	687b      	ldr	r3, [r7, #4]
    a238:	4619      	mov	r1, r3
    a23a:	6978      	ldr	r0, [r7, #20]
    a23c:	f000 f972 	bl	a524 <xIOUtilsWaitTxQueueEmpty>
    a240:	61f8      	str	r0, [r7, #28]
    a242:	e02a      	b.n	a29a <FreeRTOS_ioctl+0x1b2>
    a244:	2301      	movs	r3, #1
    a246:	61fb      	str	r3, [r7, #28]
    a248:	697b      	ldr	r3, [r7, #20]
    a24a:	68db      	ldr	r3, [r3, #12]
    a24c:	791b      	ldrb	r3, [r3, #4]
    a24e:	2b02      	cmp	r3, #2
    a250:	d125      	bne.n	a29e <FreeRTOS_ioctl+0x1b6>
    a252:	6978      	ldr	r0, [r7, #20]
    a254:	f000 fb60 	bl	a918 <xIOUtilsReleaseZeroCopyWriteMutex>
    a258:	61f8      	str	r0, [r7, #28]
    a25a:	e020      	b.n	a29e <FreeRTOS_ioctl+0x1b6>
    a25c:	697b      	ldr	r3, [r7, #20]
    a25e:	691b      	ldr	r3, [r3, #16]
    a260:	791b      	ldrb	r3, [r3, #4]
    a262:	2b05      	cmp	r3, #5
    a264:	d105      	bne.n	a272 <FreeRTOS_ioctl+0x18a>
    a266:	6978      	ldr	r0, [r7, #20]
    a268:	f000 fa24 	bl	a6b4 <vIOUtilsClearRxCircularBuffer>
    a26c:	2301      	movs	r3, #1
    a26e:	61fb      	str	r3, [r7, #28]
    a270:	e017      	b.n	a2a2 <FreeRTOS_ioctl+0x1ba>
    a272:	697b      	ldr	r3, [r7, #20]
    a274:	691b      	ldr	r3, [r3, #16]
    a276:	791b      	ldrb	r3, [r3, #4]
    a278:	2b04      	cmp	r3, #4
    a27a:	d112      	bne.n	a2a2 <FreeRTOS_ioctl+0x1ba>
    a27c:	6978      	ldr	r0, [r7, #20]
    a27e:	f000 f985 	bl	a58c <xIOUtilsClearRxCharQueue>
    a282:	2301      	movs	r3, #1
    a284:	61fb      	str	r3, [r7, #28]
    a286:	e00c      	b.n	a2a2 <FreeRTOS_ioctl+0x1ba>
    a288:	2301      	movs	r3, #1
    a28a:	61bb      	str	r3, [r7, #24]
    a28c:	2301      	movs	r3, #1
    a28e:	61fb      	str	r3, [r7, #28]
    a290:	e008      	b.n	a2a4 <FreeRTOS_ioctl+0x1bc>
    a292:	bf00      	nop
    a294:	e006      	b.n	a2a4 <FreeRTOS_ioctl+0x1bc>
    a296:	bf00      	nop
    a298:	e004      	b.n	a2a4 <FreeRTOS_ioctl+0x1bc>
    a29a:	bf00      	nop
    a29c:	e002      	b.n	a2a4 <FreeRTOS_ioctl+0x1bc>
    a29e:	bf00      	nop
    a2a0:	e000      	b.n	a2a4 <FreeRTOS_ioctl+0x1bc>
    a2a2:	bf00      	nop
    a2a4:	69bb      	ldr	r3, [r7, #24]
    a2a6:	2b01      	cmp	r3, #1
    a2a8:	d109      	bne.n	a2be <FreeRTOS_ioctl+0x1d6>
    a2aa:	69fb      	ldr	r3, [r7, #28]
    a2ac:	2b00      	cmp	r3, #0
    a2ae:	d006      	beq.n	a2be <FreeRTOS_ioctl+0x1d6>
    a2b0:	697b      	ldr	r3, [r7, #20]
    a2b2:	689b      	ldr	r3, [r3, #8]
    a2b4:	687a      	ldr	r2, [r7, #4]
    a2b6:	68b9      	ldr	r1, [r7, #8]
    a2b8:	6978      	ldr	r0, [r7, #20]
    a2ba:	4798      	blx	r3
    a2bc:	61f8      	str	r0, [r7, #28]
    a2be:	69fb      	ldr	r3, [r7, #28]
    a2c0:	4618      	mov	r0, r3
    a2c2:	3720      	adds	r7, #32
    a2c4:	46bd      	mov	sp, r7
    a2c6:	bd80      	pop	{r7, pc}

0000a2c8 <vIOUtilsCreateTransferControlStructure>:
    a2c8:	b580      	push	{r7, lr}
    a2ca:	b088      	sub	sp, #32
    a2cc:	af00      	add	r7, sp, #0
    a2ce:	6078      	str	r0, [r7, #4]
    a2d0:	687b      	ldr	r3, [r7, #4]
    a2d2:	681b      	ldr	r3, [r3, #0]
    a2d4:	61fb      	str	r3, [r7, #28]
    a2d6:	69fb      	ldr	r3, [r7, #28]
    a2d8:	2b00      	cmp	r3, #0
    a2da:	d106      	bne.n	a2ea <vIOUtilsCreateTransferControlStructure+0x22>
    a2dc:	2008      	movs	r0, #8
    a2de:	f7fd fefb 	bl	80d8 <MPU_pvPortMalloc>
    a2e2:	4602      	mov	r2, r0
    a2e4:	687b      	ldr	r3, [r7, #4]
    a2e6:	601a      	str	r2, [r3, #0]
    a2e8:	e055      	b.n	a396 <vIOUtilsCreateTransferControlStructure+0xce>
    a2ea:	69fb      	ldr	r3, [r7, #28]
    a2ec:	791b      	ldrb	r3, [r3, #4]
    a2ee:	2b07      	cmp	r3, #7
    a2f0:	d84d      	bhi.n	a38e <vIOUtilsCreateTransferControlStructure+0xc6>
    a2f2:	a201      	add	r2, pc, #4	; (adr r2, a2f8 <vIOUtilsCreateTransferControlStructure+0x30>)
    a2f4:	f852 f023 	ldr.w	pc, [r2, r3, lsl #2]
    a2f8:	0000a383 	.word	0x0000a383
    a2fc:	0000a38f 	.word	0x0000a38f
    a300:	0000a319 	.word	0x0000a319
    a304:	0000a331 	.word	0x0000a331
    a308:	0000a331 	.word	0x0000a331
    a30c:	0000a349 	.word	0x0000a349
    a310:	0000a36b 	.word	0x0000a36b
    a314:	0000a36b 	.word	0x0000a36b
    a318:	69fb      	ldr	r3, [r7, #28]
    a31a:	681b      	ldr	r3, [r3, #0]
    a31c:	61bb      	str	r3, [r7, #24]
    a31e:	69bb      	ldr	r3, [r7, #24]
    a320:	681b      	ldr	r3, [r3, #0]
    a322:	4618      	mov	r0, r3
    a324:	f7fd fec0 	bl	80a8 <MPU_vQueueDelete>
    a328:	69b8      	ldr	r0, [r7, #24]
    a32a:	f7fd feef 	bl	810c <MPU_vPortFree>
    a32e:	e02f      	b.n	a390 <vIOUtilsCreateTransferControlStructure+0xc8>
    a330:	69fb      	ldr	r3, [r7, #28]
    a332:	681b      	ldr	r3, [r3, #0]
    a334:	617b      	str	r3, [r7, #20]
    a336:	697b      	ldr	r3, [r7, #20]
    a338:	681b      	ldr	r3, [r3, #0]
    a33a:	4618      	mov	r0, r3
    a33c:	f7fd feb4 	bl	80a8 <MPU_vQueueDelete>
    a340:	6978      	ldr	r0, [r7, #20]
    a342:	f7fd fee3 	bl	810c <MPU_vPortFree>
    a346:	e023      	b.n	a390 <vIOUtilsCreateTransferControlStructure+0xc8>
    a348:	69fb      	ldr	r3, [r7, #28]
    a34a:	681b      	ldr	r3, [r3, #0]
    a34c:	613b      	str	r3, [r7, #16]
    a34e:	693b      	ldr	r3, [r7, #16]
    a350:	681b      	ldr	r3, [r3, #0]
    a352:	4618      	mov	r0, r3
    a354:	f7fd fea8 	bl	80a8 <MPU_vQueueDelete>
    a358:	693b      	ldr	r3, [r7, #16]
    a35a:	685b      	ldr	r3, [r3, #4]
    a35c:	4618      	mov	r0, r3
    a35e:	f7fd fed5 	bl	810c <MPU_vPortFree>
    a362:	6938      	ldr	r0, [r7, #16]
    a364:	f7fd fed2 	bl	810c <MPU_vPortFree>
    a368:	e012      	b.n	a390 <vIOUtilsCreateTransferControlStructure+0xc8>
    a36a:	69fb      	ldr	r3, [r7, #28]
    a36c:	681b      	ldr	r3, [r3, #0]
    a36e:	60fb      	str	r3, [r7, #12]
    a370:	68fb      	ldr	r3, [r7, #12]
    a372:	685b      	ldr	r3, [r3, #4]
    a374:	4618      	mov	r0, r3
    a376:	f7fd fec9 	bl	810c <MPU_vPortFree>
    a37a:	68f8      	ldr	r0, [r7, #12]
    a37c:	f7fd fec6 	bl	810c <MPU_vPortFree>
    a380:	e006      	b.n	a390 <vIOUtilsCreateTransferControlStructure+0xc8>
    a382:	69fb      	ldr	r3, [r7, #28]
    a384:	681b      	ldr	r3, [r3, #0]
    a386:	4618      	mov	r0, r3
    a388:	f7fd fec0 	bl	810c <MPU_vPortFree>
    a38c:	e000      	b.n	a390 <vIOUtilsCreateTransferControlStructure+0xc8>
    a38e:	bf00      	nop
    a390:	69fb      	ldr	r3, [r7, #28]
    a392:	2200      	movs	r2, #0
    a394:	601a      	str	r2, [r3, #0]
    a396:	bf00      	nop
    a398:	3720      	adds	r7, #32
    a39a:	46bd      	mov	sp, r7
    a39c:	bd80      	pop	{r7, pc}
    a39e:	bf00      	nop

0000a3a0 <xIOUtilsSetTxQueueTimeout>:
    a3a0:	b480      	push	{r7}
    a3a2:	b085      	sub	sp, #20
    a3a4:	af00      	add	r7, sp, #0
    a3a6:	6078      	str	r0, [r7, #4]
    a3a8:	6039      	str	r1, [r7, #0]
    a3aa:	687b      	ldr	r3, [r7, #4]
    a3ac:	68db      	ldr	r3, [r3, #12]
    a3ae:	60fb      	str	r3, [r7, #12]
    a3b0:	68fb      	ldr	r3, [r7, #12]
    a3b2:	681b      	ldr	r3, [r3, #0]
    a3b4:	60bb      	str	r3, [r7, #8]
    a3b6:	68bb      	ldr	r3, [r7, #8]
    a3b8:	683a      	ldr	r2, [r7, #0]
    a3ba:	605a      	str	r2, [r3, #4]
    a3bc:	bf00      	nop
    a3be:	3714      	adds	r7, #20
    a3c0:	46bd      	mov	sp, r7
    a3c2:	bc80      	pop	{r7}
    a3c4:	4770      	bx	lr
    a3c6:	bf00      	nop

0000a3c8 <vIOUtilsSetRxQueueTimeout>:
    a3c8:	b480      	push	{r7}
    a3ca:	b085      	sub	sp, #20
    a3cc:	af00      	add	r7, sp, #0
    a3ce:	6078      	str	r0, [r7, #4]
    a3d0:	6039      	str	r1, [r7, #0]
    a3d2:	687b      	ldr	r3, [r7, #4]
    a3d4:	691b      	ldr	r3, [r3, #16]
    a3d6:	60fb      	str	r3, [r7, #12]
    a3d8:	68fb      	ldr	r3, [r7, #12]
    a3da:	681b      	ldr	r3, [r3, #0]
    a3dc:	60bb      	str	r3, [r7, #8]
    a3de:	68bb      	ldr	r3, [r7, #8]
    a3e0:	683a      	ldr	r2, [r7, #0]
    a3e2:	605a      	str	r2, [r3, #4]
    a3e4:	bf00      	nop
    a3e6:	3714      	adds	r7, #20
    a3e8:	46bd      	mov	sp, r7
    a3ea:	bc80      	pop	{r7}
    a3ec:	4770      	bx	lr
    a3ee:	bf00      	nop

0000a3f0 <xIOUtilsConfigureTransferQueue>:
    a3f0:	b580      	push	{r7, lr}
    a3f2:	b088      	sub	sp, #32
    a3f4:	af00      	add	r7, sp, #0
    a3f6:	60f8      	str	r0, [r7, #12]
    a3f8:	60b9      	str	r1, [r7, #8]
    a3fa:	607a      	str	r2, [r7, #4]
    a3fc:	2300      	movs	r3, #0
    a3fe:	61fb      	str	r3, [r7, #28]
    a400:	68bb      	ldr	r3, [r7, #8]
    a402:	2b03      	cmp	r3, #3
    a404:	d103      	bne.n	a40e <xIOUtilsConfigureTransferQueue+0x1e>
    a406:	68fb      	ldr	r3, [r7, #12]
    a408:	330c      	adds	r3, #12
    a40a:	617b      	str	r3, [r7, #20]
    a40c:	e002      	b.n	a414 <xIOUtilsConfigureTransferQueue+0x24>
    a40e:	68fb      	ldr	r3, [r7, #12]
    a410:	3310      	adds	r3, #16
    a412:	617b      	str	r3, [r7, #20]
    a414:	6978      	ldr	r0, [r7, #20]
    a416:	f7ff ff57 	bl	a2c8 <vIOUtilsCreateTransferControlStructure>
    a41a:	697b      	ldr	r3, [r7, #20]
    a41c:	681b      	ldr	r3, [r3, #0]
    a41e:	2b00      	cmp	r3, #0
    a420:	d104      	bne.n	a42c <xIOUtilsConfigureTransferQueue+0x3c>
    a422:	f04f 0028 	mov.w	r0, #40	; 0x28
    a426:	f380 8811 	msr	BASEPRI, r0
    a42a:	e7fe      	b.n	a42a <xIOUtilsConfigureTransferQueue+0x3a>
    a42c:	697b      	ldr	r3, [r7, #20]
    a42e:	681b      	ldr	r3, [r3, #0]
    a430:	2b00      	cmp	r3, #0
    a432:	d038      	beq.n	a4a6 <xIOUtilsConfigureTransferQueue+0xb6>
    a434:	200c      	movs	r0, #12
    a436:	f7fd fe4f 	bl	80d8 <MPU_pvPortMalloc>
    a43a:	61b8      	str	r0, [r7, #24]
    a43c:	69bb      	ldr	r3, [r7, #24]
    a43e:	2b00      	cmp	r3, #0
    a440:	d026      	beq.n	a490 <xIOUtilsConfigureTransferQueue+0xa0>
    a442:	69bb      	ldr	r3, [r7, #24]
    a444:	2200      	movs	r2, #0
    a446:	601a      	str	r2, [r3, #0]
    a448:	2200      	movs	r2, #0
    a44a:	2101      	movs	r1, #1
    a44c:	6878      	ldr	r0, [r7, #4]
    a44e:	f7fd fd61 	bl	7f14 <MPU_xQueueGenericCreate>
    a452:	4602      	mov	r2, r0
    a454:	69bb      	ldr	r3, [r7, #24]
    a456:	601a      	str	r2, [r3, #0]
    a458:	69bb      	ldr	r3, [r7, #24]
    a45a:	681b      	ldr	r3, [r3, #0]
    a45c:	2b00      	cmp	r3, #0
    a45e:	d012      	beq.n	a486 <xIOUtilsConfigureTransferQueue+0x96>
    a460:	69bb      	ldr	r3, [r7, #24]
    a462:	f04f 32ff 	mov.w	r2, #4294967295
    a466:	605a      	str	r2, [r3, #4]
    a468:	69bb      	ldr	r3, [r7, #24]
    a46a:	2200      	movs	r2, #0
    a46c:	811a      	strh	r2, [r3, #8]
    a46e:	697b      	ldr	r3, [r7, #20]
    a470:	681b      	ldr	r3, [r3, #0]
    a472:	69ba      	ldr	r2, [r7, #24]
    a474:	601a      	str	r2, [r3, #0]
    a476:	697b      	ldr	r3, [r7, #20]
    a478:	681b      	ldr	r3, [r3, #0]
    a47a:	68ba      	ldr	r2, [r7, #8]
    a47c:	b2d2      	uxtb	r2, r2
    a47e:	711a      	strb	r2, [r3, #4]
    a480:	2301      	movs	r3, #1
    a482:	61fb      	str	r3, [r7, #28]
    a484:	e004      	b.n	a490 <xIOUtilsConfigureTransferQueue+0xa0>
    a486:	69b8      	ldr	r0, [r7, #24]
    a488:	f7fd fe40 	bl	810c <MPU_vPortFree>
    a48c:	2300      	movs	r3, #0
    a48e:	61bb      	str	r3, [r7, #24]
    a490:	69bb      	ldr	r3, [r7, #24]
    a492:	2b00      	cmp	r3, #0
    a494:	d107      	bne.n	a4a6 <xIOUtilsConfigureTransferQueue+0xb6>
    a496:	697b      	ldr	r3, [r7, #20]
    a498:	681b      	ldr	r3, [r3, #0]
    a49a:	4618      	mov	r0, r3
    a49c:	f7fd fe36 	bl	810c <MPU_vPortFree>
    a4a0:	697b      	ldr	r3, [r7, #20]
    a4a2:	2200      	movs	r2, #0
    a4a4:	601a      	str	r2, [r3, #0]
    a4a6:	69fb      	ldr	r3, [r7, #28]
    a4a8:	4618      	mov	r0, r3
    a4aa:	3720      	adds	r7, #32
    a4ac:	46bd      	mov	sp, r7
    a4ae:	bd80      	pop	{r7, pc}

0000a4b0 <xIOUtilsReceiveCharsFromRxQueue>:
    a4b0:	b580      	push	{r7, lr}
    a4b2:	b08a      	sub	sp, #40	; 0x28
    a4b4:	af00      	add	r7, sp, #0
    a4b6:	60f8      	str	r0, [r7, #12]
    a4b8:	60b9      	str	r1, [r7, #8]
    a4ba:	607a      	str	r2, [r7, #4]
    a4bc:	2300      	movs	r3, #0
    a4be:	627b      	str	r3, [r7, #36]	; 0x24
    a4c0:	68fb      	ldr	r3, [r7, #12]
    a4c2:	691b      	ldr	r3, [r3, #16]
    a4c4:	681b      	ldr	r3, [r3, #0]
    a4c6:	623b      	str	r3, [r7, #32]
    a4c8:	6a3b      	ldr	r3, [r7, #32]
    a4ca:	685b      	ldr	r3, [r3, #4]
    a4cc:	61fb      	str	r3, [r7, #28]
    a4ce:	f107 0314 	add.w	r3, r7, #20
    a4d2:	4618      	mov	r0, r3
    a4d4:	f7f8 fb60 	bl	2b98 <vTaskSetTimeOutState>
    a4d8:	e019      	b.n	a50e <xIOUtilsReceiveCharsFromRxQueue+0x5e>
    a4da:	6a3b      	ldr	r3, [r7, #32]
    a4dc:	6818      	ldr	r0, [r3, #0]
    a4de:	68ba      	ldr	r2, [r7, #8]
    a4e0:	6a7b      	ldr	r3, [r7, #36]	; 0x24
    a4e2:	18d1      	adds	r1, r2, r3
    a4e4:	69fa      	ldr	r2, [r7, #28]
    a4e6:	2300      	movs	r3, #0
    a4e8:	f7fd fd8a 	bl	8000 <MPU_xQueueGenericReceive>
    a4ec:	4603      	mov	r3, r0
    a4ee:	2b01      	cmp	r3, #1
    a4f0:	d102      	bne.n	a4f8 <xIOUtilsReceiveCharsFromRxQueue+0x48>
    a4f2:	6a7b      	ldr	r3, [r7, #36]	; 0x24
    a4f4:	3301      	adds	r3, #1
    a4f6:	627b      	str	r3, [r7, #36]	; 0x24
    a4f8:	f107 021c 	add.w	r2, r7, #28
    a4fc:	f107 0314 	add.w	r3, r7, #20
    a500:	4611      	mov	r1, r2
    a502:	4618      	mov	r0, r3
    a504:	f7f8 fb66 	bl	2bd4 <xTaskCheckForTimeOut>
    a508:	4603      	mov	r3, r0
    a50a:	2b00      	cmp	r3, #0
    a50c:	d104      	bne.n	a518 <xIOUtilsReceiveCharsFromRxQueue+0x68>
    a50e:	6a7a      	ldr	r2, [r7, #36]	; 0x24
    a510:	687b      	ldr	r3, [r7, #4]
    a512:	429a      	cmp	r2, r3
    a514:	d3e1      	bcc.n	a4da <xIOUtilsReceiveCharsFromRxQueue+0x2a>
    a516:	e000      	b.n	a51a <xIOUtilsReceiveCharsFromRxQueue+0x6a>
    a518:	bf00      	nop
    a51a:	6a7b      	ldr	r3, [r7, #36]	; 0x24
    a51c:	4618      	mov	r0, r3
    a51e:	3728      	adds	r7, #40	; 0x28
    a520:	46bd      	mov	sp, r7
    a522:	bd80      	pop	{r7, pc}

0000a524 <xIOUtilsWaitTxQueueEmpty>:
    a524:	b580      	push	{r7, lr}
    a526:	b086      	sub	sp, #24
    a528:	af00      	add	r7, sp, #0
    a52a:	6078      	str	r0, [r7, #4]
    a52c:	6039      	str	r1, [r7, #0]
    a52e:	2301      	movs	r3, #1
    a530:	617b      	str	r3, [r7, #20]
    a532:	687b      	ldr	r3, [r7, #4]
    a534:	68db      	ldr	r3, [r3, #12]
    a536:	681b      	ldr	r3, [r3, #0]
    a538:	613b      	str	r3, [r7, #16]
    a53a:	2302      	movs	r3, #2
    a53c:	60fb      	str	r3, [r7, #12]
    a53e:	693b      	ldr	r3, [r7, #16]
    a540:	2b00      	cmp	r3, #0
    a542:	d104      	bne.n	a54e <xIOUtilsWaitTxQueueEmpty+0x2a>
    a544:	f04f 0028 	mov.w	r0, #40	; 0x28
    a548:	f380 8811 	msr	BASEPRI, r0
    a54c:	e7fe      	b.n	a54c <xIOUtilsWaitTxQueueEmpty+0x28>
    a54e:	f7fd fcc9 	bl	7ee4 <MPU_xTaskGetTickCount>
    a552:	60b8      	str	r0, [r7, #8]
    a554:	e00d      	b.n	a572 <xIOUtilsWaitTxQueueEmpty+0x4e>
    a556:	68f8      	ldr	r0, [r7, #12]
    a558:	f7fd fcac 	bl	7eb4 <MPU_vTaskDelay>
    a55c:	f7fd fcc2 	bl	7ee4 <MPU_xTaskGetTickCount>
    a560:	4602      	mov	r2, r0
    a562:	68bb      	ldr	r3, [r7, #8]
    a564:	1ad2      	subs	r2, r2, r3
    a566:	683b      	ldr	r3, [r7, #0]
    a568:	429a      	cmp	r2, r3
    a56a:	d302      	bcc.n	a572 <xIOUtilsWaitTxQueueEmpty+0x4e>
    a56c:	2300      	movs	r3, #0
    a56e:	617b      	str	r3, [r7, #20]
    a570:	e007      	b.n	a582 <xIOUtilsWaitTxQueueEmpty+0x5e>
    a572:	693b      	ldr	r3, [r7, #16]
    a574:	681b      	ldr	r3, [r3, #0]
    a576:	4618      	mov	r0, r3
    a578:	f7fd fd28 	bl	7fcc <MPU_uxQueueMessagesWaiting>
    a57c:	4603      	mov	r3, r0
    a57e:	2b00      	cmp	r3, #0
    a580:	d1e9      	bne.n	a556 <xIOUtilsWaitTxQueueEmpty+0x32>
    a582:	697b      	ldr	r3, [r7, #20]
    a584:	4618      	mov	r0, r3
    a586:	3718      	adds	r7, #24
    a588:	46bd      	mov	sp, r7
    a58a:	bd80      	pop	{r7, pc}

0000a58c <xIOUtilsClearRxCharQueue>:
    a58c:	b580      	push	{r7, lr}
    a58e:	b084      	sub	sp, #16
    a590:	af00      	add	r7, sp, #0
    a592:	6078      	str	r0, [r7, #4]
    a594:	687b      	ldr	r3, [r7, #4]
    a596:	68db      	ldr	r3, [r3, #12]
    a598:	681b      	ldr	r3, [r3, #0]
    a59a:	60fb      	str	r3, [r7, #12]
    a59c:	68fb      	ldr	r3, [r7, #12]
    a59e:	2b00      	cmp	r3, #0
    a5a0:	d104      	bne.n	a5ac <xIOUtilsClearRxCharQueue+0x20>
    a5a2:	f04f 0028 	mov.w	r0, #40	; 0x28
    a5a6:	f380 8811 	msr	BASEPRI, r0
    a5aa:	e7fe      	b.n	a5aa <xIOUtilsClearRxCharQueue+0x1e>
    a5ac:	68fb      	ldr	r3, [r7, #12]
    a5ae:	681b      	ldr	r3, [r3, #0]
    a5b0:	2100      	movs	r1, #0
    a5b2:	4618      	mov	r0, r3
    a5b4:	f7fd fcce 	bl	7f54 <MPU_xQueueGenericReset>
    a5b8:	bf00      	nop
    a5ba:	3710      	adds	r7, #16
    a5bc:	46bd      	mov	sp, r7
    a5be:	bd80      	pop	{r7, pc}

0000a5c0 <xIOUtilsConfigureCircularBufferRx>:
    a5c0:	b580      	push	{r7, lr}
    a5c2:	b084      	sub	sp, #16
    a5c4:	af00      	add	r7, sp, #0
    a5c6:	6078      	str	r0, [r7, #4]
    a5c8:	6039      	str	r1, [r7, #0]
    a5ca:	2300      	movs	r3, #0
    a5cc:	60fb      	str	r3, [r7, #12]
    a5ce:	687b      	ldr	r3, [r7, #4]
    a5d0:	3310      	adds	r3, #16
    a5d2:	4618      	mov	r0, r3
    a5d4:	f7ff fe78 	bl	a2c8 <vIOUtilsCreateTransferControlStructure>
    a5d8:	687b      	ldr	r3, [r7, #4]
    a5da:	691b      	ldr	r3, [r3, #16]
    a5dc:	2b00      	cmp	r3, #0
    a5de:	d104      	bne.n	a5ea <xIOUtilsConfigureCircularBufferRx+0x2a>
    a5e0:	f04f 0028 	mov.w	r0, #40	; 0x28
    a5e4:	f380 8811 	msr	BASEPRI, r0
    a5e8:	e7fe      	b.n	a5e8 <xIOUtilsConfigureCircularBufferRx+0x28>
    a5ea:	687b      	ldr	r3, [r7, #4]
    a5ec:	691b      	ldr	r3, [r3, #16]
    a5ee:	2b00      	cmp	r3, #0
    a5f0:	d05b      	beq.n	a6aa <xIOUtilsConfigureCircularBufferRx+0xea>
    a5f2:	2018      	movs	r0, #24
    a5f4:	f7fd fd70 	bl	80d8 <MPU_pvPortMalloc>
    a5f8:	60b8      	str	r0, [r7, #8]
    a5fa:	68bb      	ldr	r3, [r7, #8]
    a5fc:	2b00      	cmp	r3, #0
    a5fe:	d049      	beq.n	a694 <xIOUtilsConfigureCircularBufferRx+0xd4>
    a600:	68bb      	ldr	r3, [r7, #8]
    a602:	2200      	movs	r2, #0
    a604:	601a      	str	r2, [r3, #0]
    a606:	2100      	movs	r1, #0
    a608:	f04f 30ff 	mov.w	r0, #4294967295
    a60c:	f7fd fd30 	bl	8070 <MPU_xQueueCreateCountingSemaphore>
    a610:	4602      	mov	r2, r0
    a612:	68bb      	ldr	r3, [r7, #8]
    a614:	601a      	str	r2, [r3, #0]
    a616:	68bb      	ldr	r3, [r7, #8]
    a618:	681b      	ldr	r3, [r3, #0]
    a61a:	2b00      	cmp	r3, #0
    a61c:	d031      	beq.n	a682 <xIOUtilsConfigureCircularBufferRx+0xc2>
    a61e:	683b      	ldr	r3, [r7, #0]
    a620:	4618      	mov	r0, r3
    a622:	f7fd fd59 	bl	80d8 <MPU_pvPortMalloc>
    a626:	4602      	mov	r2, r0
    a628:	68bb      	ldr	r3, [r7, #8]
    a62a:	605a      	str	r2, [r3, #4]
    a62c:	68bb      	ldr	r3, [r7, #8]
    a62e:	685b      	ldr	r3, [r3, #4]
    a630:	2b00      	cmp	r3, #0
    a632:	d01e      	beq.n	a672 <xIOUtilsConfigureCircularBufferRx+0xb2>
    a634:	683b      	ldr	r3, [r7, #0]
    a636:	b29a      	uxth	r2, r3
    a638:	68bb      	ldr	r3, [r7, #8]
    a63a:	811a      	strh	r2, [r3, #8]
    a63c:	68bb      	ldr	r3, [r7, #8]
    a63e:	2200      	movs	r2, #0
    a640:	81da      	strh	r2, [r3, #14]
    a642:	68bb      	ldr	r3, [r7, #8]
    a644:	2200      	movs	r2, #0
    a646:	819a      	strh	r2, [r3, #12]
    a648:	68bb      	ldr	r3, [r7, #8]
    a64a:	2200      	movs	r2, #0
    a64c:	829a      	strh	r2, [r3, #20]
    a64e:	68bb      	ldr	r3, [r7, #8]
    a650:	2200      	movs	r2, #0
    a652:	815a      	strh	r2, [r3, #10]
    a654:	687b      	ldr	r3, [r7, #4]
    a656:	691b      	ldr	r3, [r3, #16]
    a658:	68ba      	ldr	r2, [r7, #8]
    a65a:	601a      	str	r2, [r3, #0]
    a65c:	687b      	ldr	r3, [r7, #4]
    a65e:	691b      	ldr	r3, [r3, #16]
    a660:	2205      	movs	r2, #5
    a662:	711a      	strb	r2, [r3, #4]
    a664:	68bb      	ldr	r3, [r7, #8]
    a666:	f04f 32ff 	mov.w	r2, #4294967295
    a66a:	611a      	str	r2, [r3, #16]
    a66c:	2301      	movs	r3, #1
    a66e:	60fb      	str	r3, [r7, #12]
    a670:	e007      	b.n	a682 <xIOUtilsConfigureCircularBufferRx+0xc2>
    a672:	68bb      	ldr	r3, [r7, #8]
    a674:	681b      	ldr	r3, [r3, #0]
    a676:	4618      	mov	r0, r3
    a678:	f7fd fd16 	bl	80a8 <MPU_vQueueDelete>
    a67c:	68bb      	ldr	r3, [r7, #8]
    a67e:	2200      	movs	r2, #0
    a680:	601a      	str	r2, [r3, #0]
    a682:	68bb      	ldr	r3, [r7, #8]
    a684:	681b      	ldr	r3, [r3, #0]
    a686:	2b00      	cmp	r3, #0
    a688:	d104      	bne.n	a694 <xIOUtilsConfigureCircularBufferRx+0xd4>
    a68a:	68b8      	ldr	r0, [r7, #8]
    a68c:	f7fd fd3e 	bl	810c <MPU_vPortFree>
    a690:	2300      	movs	r3, #0
    a692:	60bb      	str	r3, [r7, #8]
    a694:	68bb      	ldr	r3, [r7, #8]
    a696:	2b00      	cmp	r3, #0
    a698:	d107      	bne.n	a6aa <xIOUtilsConfigureCircularBufferRx+0xea>
    a69a:	687b      	ldr	r3, [r7, #4]
    a69c:	691b      	ldr	r3, [r3, #16]
    a69e:	4618      	mov	r0, r3
    a6a0:	f7fd fd34 	bl	810c <MPU_vPortFree>
    a6a4:	687b      	ldr	r3, [r7, #4]
    a6a6:	2200      	movs	r2, #0
    a6a8:	611a      	str	r2, [r3, #16]
    a6aa:	68fb      	ldr	r3, [r7, #12]
    a6ac:	4618      	mov	r0, r3
    a6ae:	3710      	adds	r7, #16
    a6b0:	46bd      	mov	sp, r7
    a6b2:	bd80      	pop	{r7, pc}

0000a6b4 <vIOUtilsClearRxCircularBuffer>:
    a6b4:	b580      	push	{r7, lr}
    a6b6:	b084      	sub	sp, #16
    a6b8:	af00      	add	r7, sp, #0
    a6ba:	6078      	str	r0, [r7, #4]
    a6bc:	687b      	ldr	r3, [r7, #4]
    a6be:	691b      	ldr	r3, [r3, #16]
    a6c0:	681b      	ldr	r3, [r3, #0]
    a6c2:	60fb      	str	r3, [r7, #12]
    a6c4:	68fb      	ldr	r3, [r7, #12]
    a6c6:	2200      	movs	r2, #0
    a6c8:	81da      	strh	r2, [r3, #14]
    a6ca:	68fb      	ldr	r3, [r7, #12]
    a6cc:	2200      	movs	r2, #0
    a6ce:	819a      	strh	r2, [r3, #12]
    a6d0:	68fb      	ldr	r3, [r7, #12]
    a6d2:	2200      	movs	r2, #0
    a6d4:	829a      	strh	r2, [r3, #20]
    a6d6:	68fb      	ldr	r3, [r7, #12]
    a6d8:	2200      	movs	r2, #0
    a6da:	815a      	strh	r2, [r3, #10]
    a6dc:	68fb      	ldr	r3, [r7, #12]
    a6de:	6818      	ldr	r0, [r3, #0]
    a6e0:	2300      	movs	r3, #0
    a6e2:	2200      	movs	r2, #0
    a6e4:	2100      	movs	r1, #0
    a6e6:	f7fd fc8b 	bl	8000 <MPU_xQueueGenericReceive>
    a6ea:	bf00      	nop
    a6ec:	3710      	adds	r7, #16
    a6ee:	46bd      	mov	sp, r7
    a6f0:	bd80      	pop	{r7, pc}
    a6f2:	bf00      	nop

0000a6f4 <xIOUtilsReadCharsFromCircularBuffer>:
    a6f4:	b580      	push	{r7, lr}
    a6f6:	b088      	sub	sp, #32
    a6f8:	af00      	add	r7, sp, #0
    a6fa:	60f8      	str	r0, [r7, #12]
    a6fc:	60b9      	str	r1, [r7, #8]
    a6fe:	607a      	str	r2, [r7, #4]
    a700:	2300      	movs	r3, #0
    a702:	61bb      	str	r3, [r7, #24]
    a704:	2302      	movs	r3, #2
    a706:	613b      	str	r3, [r7, #16]
    a708:	2300      	movs	r3, #0
    a70a:	617b      	str	r3, [r7, #20]
    a70c:	e065      	b.n	a7da <xIOUtilsReadCharsFromCircularBuffer+0xe6>
    a70e:	68fb      	ldr	r3, [r7, #12]
    a710:	8a9b      	ldrh	r3, [r3, #20]
    a712:	2b00      	cmp	r3, #0
    a714:	d066      	beq.n	a7e4 <xIOUtilsReadCharsFromCircularBuffer+0xf0>
    a716:	68fb      	ldr	r3, [r7, #12]
    a718:	899a      	ldrh	r2, [r3, #12]
    a71a:	68fb      	ldr	r3, [r7, #12]
    a71c:	895b      	ldrh	r3, [r3, #10]
    a71e:	429a      	cmp	r2, r3
    a720:	d807      	bhi.n	a732 <xIOUtilsReadCharsFromCircularBuffer+0x3e>
    a722:	68fb      	ldr	r3, [r7, #12]
    a724:	895b      	ldrh	r3, [r3, #10]
    a726:	461a      	mov	r2, r3
    a728:	68fb      	ldr	r3, [r7, #12]
    a72a:	899b      	ldrh	r3, [r3, #12]
    a72c:	1ad3      	subs	r3, r2, r3
    a72e:	61fb      	str	r3, [r7, #28]
    a730:	e006      	b.n	a740 <xIOUtilsReadCharsFromCircularBuffer+0x4c>
    a732:	68fb      	ldr	r3, [r7, #12]
    a734:	891b      	ldrh	r3, [r3, #8]
    a736:	461a      	mov	r2, r3
    a738:	68fb      	ldr	r3, [r7, #12]
    a73a:	899b      	ldrh	r3, [r3, #12]
    a73c:	1ad3      	subs	r3, r2, r3
    a73e:	61fb      	str	r3, [r7, #28]
    a740:	687a      	ldr	r2, [r7, #4]
    a742:	69bb      	ldr	r3, [r7, #24]
    a744:	1ad2      	subs	r2, r2, r3
    a746:	69fb      	ldr	r3, [r7, #28]
    a748:	429a      	cmp	r2, r3
    a74a:	d203      	bcs.n	a754 <xIOUtilsReadCharsFromCircularBuffer+0x60>
    a74c:	687a      	ldr	r2, [r7, #4]
    a74e:	69bb      	ldr	r3, [r7, #24]
    a750:	1ad3      	subs	r3, r2, r3
    a752:	61fb      	str	r3, [r7, #28]
    a754:	69fb      	ldr	r3, [r7, #28]
    a756:	2b00      	cmp	r3, #0
    a758:	d104      	bne.n	a764 <xIOUtilsReadCharsFromCircularBuffer+0x70>
    a75a:	f04f 0028 	mov.w	r0, #40	; 0x28
    a75e:	f380 8811 	msr	BASEPRI, r0
    a762:	e7fe      	b.n	a762 <xIOUtilsReadCharsFromCircularBuffer+0x6e>
    a764:	68ba      	ldr	r2, [r7, #8]
    a766:	69bb      	ldr	r3, [r7, #24]
    a768:	18d0      	adds	r0, r2, r3
    a76a:	68fb      	ldr	r3, [r7, #12]
    a76c:	685b      	ldr	r3, [r3, #4]
    a76e:	68fa      	ldr	r2, [r7, #12]
    a770:	8992      	ldrh	r2, [r2, #12]
    a772:	4413      	add	r3, r2
    a774:	69fa      	ldr	r2, [r7, #28]
    a776:	4619      	mov	r1, r3
    a778:	f003 facc 	bl	dd14 <memcpy>
    a77c:	69ba      	ldr	r2, [r7, #24]
    a77e:	69fb      	ldr	r3, [r7, #28]
    a780:	4413      	add	r3, r2
    a782:	61bb      	str	r3, [r7, #24]
    a784:	68fb      	ldr	r3, [r7, #12]
    a786:	8a9a      	ldrh	r2, [r3, #20]
    a788:	69fb      	ldr	r3, [r7, #28]
    a78a:	b29b      	uxth	r3, r3
    a78c:	1ad3      	subs	r3, r2, r3
    a78e:	b29a      	uxth	r2, r3
    a790:	68fb      	ldr	r3, [r7, #12]
    a792:	829a      	strh	r2, [r3, #20]
    a794:	68fb      	ldr	r3, [r7, #12]
    a796:	899a      	ldrh	r2, [r3, #12]
    a798:	69fb      	ldr	r3, [r7, #28]
    a79a:	b29b      	uxth	r3, r3
    a79c:	4413      	add	r3, r2
    a79e:	b29a      	uxth	r2, r3
    a7a0:	68fb      	ldr	r3, [r7, #12]
    a7a2:	819a      	strh	r2, [r3, #12]
    a7a4:	68fb      	ldr	r3, [r7, #12]
    a7a6:	899a      	ldrh	r2, [r3, #12]
    a7a8:	68fb      	ldr	r3, [r7, #12]
    a7aa:	891b      	ldrh	r3, [r3, #8]
    a7ac:	429a      	cmp	r2, r3
    a7ae:	d904      	bls.n	a7ba <xIOUtilsReadCharsFromCircularBuffer+0xc6>
    a7b0:	f04f 0028 	mov.w	r0, #40	; 0x28
    a7b4:	f380 8811 	msr	BASEPRI, r0
    a7b8:	e7fe      	b.n	a7b8 <xIOUtilsReadCharsFromCircularBuffer+0xc4>
    a7ba:	68fb      	ldr	r3, [r7, #12]
    a7bc:	899a      	ldrh	r2, [r3, #12]
    a7be:	68fb      	ldr	r3, [r7, #12]
    a7c0:	891b      	ldrh	r3, [r3, #8]
    a7c2:	429a      	cmp	r2, r3
    a7c4:	d102      	bne.n	a7cc <xIOUtilsReadCharsFromCircularBuffer+0xd8>
    a7c6:	68fb      	ldr	r3, [r7, #12]
    a7c8:	2200      	movs	r2, #0
    a7ca:	819a      	strh	r2, [r3, #12]
    a7cc:	687a      	ldr	r2, [r7, #4]
    a7ce:	69bb      	ldr	r3, [r7, #24]
    a7d0:	429a      	cmp	r2, r3
    a7d2:	d009      	beq.n	a7e8 <xIOUtilsReadCharsFromCircularBuffer+0xf4>
    a7d4:	697b      	ldr	r3, [r7, #20]
    a7d6:	3301      	adds	r3, #1
    a7d8:	617b      	str	r3, [r7, #20]
    a7da:	697a      	ldr	r2, [r7, #20]
    a7dc:	693b      	ldr	r3, [r7, #16]
    a7de:	429a      	cmp	r2, r3
    a7e0:	db95      	blt.n	a70e <xIOUtilsReadCharsFromCircularBuffer+0x1a>
    a7e2:	e002      	b.n	a7ea <xIOUtilsReadCharsFromCircularBuffer+0xf6>
    a7e4:	bf00      	nop
    a7e6:	e000      	b.n	a7ea <xIOUtilsReadCharsFromCircularBuffer+0xf6>
    a7e8:	bf00      	nop
    a7ea:	69bb      	ldr	r3, [r7, #24]
    a7ec:	4618      	mov	r0, r3
    a7ee:	3720      	adds	r7, #32
    a7f0:	46bd      	mov	sp, r7
    a7f2:	bd80      	pop	{r7, pc}

0000a7f4 <vIOUtilsSetCircularBufferTimeout>:
    a7f4:	b480      	push	{r7}
    a7f6:	b085      	sub	sp, #20
    a7f8:	af00      	add	r7, sp, #0
    a7fa:	6078      	str	r0, [r7, #4]
    a7fc:	6039      	str	r1, [r7, #0]
    a7fe:	687b      	ldr	r3, [r7, #4]
    a800:	691b      	ldr	r3, [r3, #16]
    a802:	60fb      	str	r3, [r7, #12]
    a804:	68fb      	ldr	r3, [r7, #12]
    a806:	681b      	ldr	r3, [r3, #0]
    a808:	60bb      	str	r3, [r7, #8]
    a80a:	68bb      	ldr	r3, [r7, #8]
    a80c:	683a      	ldr	r2, [r7, #0]
    a80e:	611a      	str	r2, [r3, #16]
    a810:	bf00      	nop
    a812:	3714      	adds	r7, #20
    a814:	46bd      	mov	sp, r7
    a816:	bc80      	pop	{r7}
    a818:	4770      	bx	lr
    a81a:	bf00      	nop

0000a81c <xIOUtilsConfigureZeroCopyTx>:
    a81c:	b580      	push	{r7, lr}
    a81e:	b084      	sub	sp, #16
    a820:	af00      	add	r7, sp, #0
    a822:	6078      	str	r0, [r7, #4]
    a824:	2300      	movs	r3, #0
    a826:	60fb      	str	r3, [r7, #12]
    a828:	687b      	ldr	r3, [r7, #4]
    a82a:	330c      	adds	r3, #12
    a82c:	4618      	mov	r0, r3
    a82e:	f7ff fd4b 	bl	a2c8 <vIOUtilsCreateTransferControlStructure>
    a832:	687b      	ldr	r3, [r7, #4]
    a834:	68db      	ldr	r3, [r3, #12]
    a836:	2b00      	cmp	r3, #0
    a838:	d104      	bne.n	a844 <xIOUtilsConfigureZeroCopyTx+0x28>
    a83a:	f04f 0028 	mov.w	r0, #40	; 0x28
    a83e:	f380 8811 	msr	BASEPRI, r0
    a842:	e7fe      	b.n	a842 <xIOUtilsConfigureZeroCopyTx+0x26>
    a844:	687b      	ldr	r3, [r7, #4]
    a846:	68db      	ldr	r3, [r3, #12]
    a848:	2b00      	cmp	r3, #0
    a84a:	d031      	beq.n	a8b0 <xIOUtilsConfigureZeroCopyTx+0x94>
    a84c:	200c      	movs	r0, #12
    a84e:	f7fd fc43 	bl	80d8 <MPU_pvPortMalloc>
    a852:	60b8      	str	r0, [r7, #8]
    a854:	68bb      	ldr	r3, [r7, #8]
    a856:	2b00      	cmp	r3, #0
    a858:	d01f      	beq.n	a89a <xIOUtilsConfigureZeroCopyTx+0x7e>
    a85a:	68bb      	ldr	r3, [r7, #8]
    a85c:	2200      	movs	r2, #0
    a85e:	601a      	str	r2, [r3, #0]
    a860:	2001      	movs	r0, #1
    a862:	f7fd fbed 	bl	8040 <MPU_xQueueCreateMutex>
    a866:	4602      	mov	r2, r0
    a868:	68bb      	ldr	r3, [r7, #8]
    a86a:	601a      	str	r2, [r3, #0]
    a86c:	68bb      	ldr	r3, [r7, #8]
    a86e:	2200      	movs	r2, #0
    a870:	811a      	strh	r2, [r3, #8]
    a872:	68bb      	ldr	r3, [r7, #8]
    a874:	681b      	ldr	r3, [r3, #0]
    a876:	2b00      	cmp	r3, #0
    a878:	d00a      	beq.n	a890 <xIOUtilsConfigureZeroCopyTx+0x74>
    a87a:	687b      	ldr	r3, [r7, #4]
    a87c:	68db      	ldr	r3, [r3, #12]
    a87e:	68ba      	ldr	r2, [r7, #8]
    a880:	601a      	str	r2, [r3, #0]
    a882:	687b      	ldr	r3, [r7, #4]
    a884:	68db      	ldr	r3, [r3, #12]
    a886:	2202      	movs	r2, #2
    a888:	711a      	strb	r2, [r3, #4]
    a88a:	2301      	movs	r3, #1
    a88c:	60fb      	str	r3, [r7, #12]
    a88e:	e004      	b.n	a89a <xIOUtilsConfigureZeroCopyTx+0x7e>
    a890:	68b8      	ldr	r0, [r7, #8]
    a892:	f7fd fc3b 	bl	810c <MPU_vPortFree>
    a896:	2300      	movs	r3, #0
    a898:	60bb      	str	r3, [r7, #8]
    a89a:	68bb      	ldr	r3, [r7, #8]
    a89c:	2b00      	cmp	r3, #0
    a89e:	d107      	bne.n	a8b0 <xIOUtilsConfigureZeroCopyTx+0x94>
    a8a0:	687b      	ldr	r3, [r7, #4]
    a8a2:	68db      	ldr	r3, [r3, #12]
    a8a4:	4618      	mov	r0, r3
    a8a6:	f7fd fc31 	bl	810c <MPU_vPortFree>
    a8aa:	687b      	ldr	r3, [r7, #4]
    a8ac:	2200      	movs	r2, #0
    a8ae:	60da      	str	r2, [r3, #12]
    a8b0:	68fb      	ldr	r3, [r7, #12]
    a8b2:	4618      	mov	r0, r3
    a8b4:	3710      	adds	r7, #16
    a8b6:	46bd      	mov	sp, r7
    a8b8:	bd80      	pop	{r7, pc}
    a8ba:	bf00      	nop

0000a8bc <xIOUtilsGetZeroCopyWriteMutex>:
    a8bc:	b580      	push	{r7, lr}
    a8be:	b088      	sub	sp, #32
    a8c0:	af00      	add	r7, sp, #0
    a8c2:	60f8      	str	r0, [r7, #12]
    a8c4:	60b9      	str	r1, [r7, #8]
    a8c6:	607a      	str	r2, [r7, #4]
    a8c8:	68fb      	ldr	r3, [r7, #12]
    a8ca:	68db      	ldr	r3, [r3, #12]
    a8cc:	61fb      	str	r3, [r7, #28]
    a8ce:	69fb      	ldr	r3, [r7, #28]
    a8d0:	2b00      	cmp	r3, #0
    a8d2:	d104      	bne.n	a8de <xIOUtilsGetZeroCopyWriteMutex+0x22>
    a8d4:	f04f 0028 	mov.w	r0, #40	; 0x28
    a8d8:	f380 8811 	msr	BASEPRI, r0
    a8dc:	e7fe      	b.n	a8dc <xIOUtilsGetZeroCopyWriteMutex+0x20>
    a8de:	69fb      	ldr	r3, [r7, #28]
    a8e0:	681b      	ldr	r3, [r3, #0]
    a8e2:	61bb      	str	r3, [r7, #24]
    a8e4:	69bb      	ldr	r3, [r7, #24]
    a8e6:	6818      	ldr	r0, [r3, #0]
    a8e8:	2300      	movs	r3, #0
    a8ea:	687a      	ldr	r2, [r7, #4]
    a8ec:	2100      	movs	r1, #0
    a8ee:	f7fd fb87 	bl	8000 <MPU_xQueueGenericReceive>
    a8f2:	6178      	str	r0, [r7, #20]
    a8f4:	697b      	ldr	r3, [r7, #20]
    a8f6:	2b01      	cmp	r3, #1
    a8f8:	d109      	bne.n	a90e <xIOUtilsGetZeroCopyWriteMutex+0x52>
    a8fa:	68bb      	ldr	r3, [r7, #8]
    a8fc:	2b0b      	cmp	r3, #11
    a8fe:	d106      	bne.n	a90e <xIOUtilsGetZeroCopyWriteMutex+0x52>
    a900:	69bb      	ldr	r3, [r7, #24]
    a902:	6818      	ldr	r0, [r3, #0]
    a904:	2300      	movs	r3, #0
    a906:	2200      	movs	r2, #0
    a908:	2100      	movs	r1, #0
    a90a:	f7fd fb3f 	bl	7f8c <MPU_xQueueGenericSend>
    a90e:	697b      	ldr	r3, [r7, #20]
    a910:	4618      	mov	r0, r3
    a912:	3720      	adds	r7, #32
    a914:	46bd      	mov	sp, r7
    a916:	bd80      	pop	{r7, pc}

0000a918 <xIOUtilsReleaseZeroCopyWriteMutex>:
    a918:	b580      	push	{r7, lr}
    a91a:	b086      	sub	sp, #24
    a91c:	af00      	add	r7, sp, #0
    a91e:	6078      	str	r0, [r7, #4]
    a920:	687b      	ldr	r3, [r7, #4]
    a922:	68db      	ldr	r3, [r3, #12]
    a924:	617b      	str	r3, [r7, #20]
    a926:	697b      	ldr	r3, [r7, #20]
    a928:	2b00      	cmp	r3, #0
    a92a:	d104      	bne.n	a936 <xIOUtilsReleaseZeroCopyWriteMutex+0x1e>
    a92c:	f04f 0028 	mov.w	r0, #40	; 0x28
    a930:	f380 8811 	msr	BASEPRI, r0
    a934:	e7fe      	b.n	a934 <xIOUtilsReleaseZeroCopyWriteMutex+0x1c>
    a936:	697b      	ldr	r3, [r7, #20]
    a938:	681b      	ldr	r3, [r3, #0]
    a93a:	613b      	str	r3, [r7, #16]
    a93c:	693b      	ldr	r3, [r7, #16]
    a93e:	6818      	ldr	r0, [r3, #0]
    a940:	2300      	movs	r3, #0
    a942:	2200      	movs	r2, #0
    a944:	2100      	movs	r1, #0
    a946:	f7fd fb21 	bl	7f8c <MPU_xQueueGenericSend>
    a94a:	60f8      	str	r0, [r7, #12]
    a94c:	68fb      	ldr	r3, [r7, #12]
    a94e:	4618      	mov	r0, r3
    a950:	3718      	adds	r7, #24
    a952:	46bd      	mov	sp, r7
    a954:	bd80      	pop	{r7, pc}
    a956:	bf00      	nop

0000a958 <NVIC_EnableIRQ>:
    a958:	b480      	push	{r7}
    a95a:	b083      	sub	sp, #12
    a95c:	af00      	add	r7, sp, #0
    a95e:	4603      	mov	r3, r0
    a960:	71fb      	strb	r3, [r7, #7]
    a962:	4908      	ldr	r1, [pc, #32]	; (a984 <NVIC_EnableIRQ+0x2c>)
    a964:	f997 3007 	ldrsb.w	r3, [r7, #7]
    a968:	095b      	lsrs	r3, r3, #5
    a96a:	79fa      	ldrb	r2, [r7, #7]
    a96c:	f002 021f 	and.w	r2, r2, #31
    a970:	2001      	movs	r0, #1
    a972:	fa00 f202 	lsl.w	r2, r0, r2
    a976:	f841 2023 	str.w	r2, [r1, r3, lsl #2]
    a97a:	bf00      	nop
    a97c:	370c      	adds	r7, #12
    a97e:	46bd      	mov	sp, r7
    a980:	bc80      	pop	{r7}
    a982:	4770      	bx	lr
    a984:	e000e100 	.word	0xe000e100

0000a988 <NVIC_DisableIRQ>:
    a988:	b480      	push	{r7}
    a98a:	b083      	sub	sp, #12
    a98c:	af00      	add	r7, sp, #0
    a98e:	4603      	mov	r3, r0
    a990:	71fb      	strb	r3, [r7, #7]
    a992:	4909      	ldr	r1, [pc, #36]	; (a9b8 <NVIC_DisableIRQ+0x30>)
    a994:	f997 3007 	ldrsb.w	r3, [r7, #7]
    a998:	095b      	lsrs	r3, r3, #5
    a99a:	79fa      	ldrb	r2, [r7, #7]
    a99c:	f002 021f 	and.w	r2, r2, #31
    a9a0:	2001      	movs	r0, #1
    a9a2:	fa00 f202 	lsl.w	r2, r0, r2
    a9a6:	3320      	adds	r3, #32
    a9a8:	f841 2023 	str.w	r2, [r1, r3, lsl #2]
    a9ac:	bf00      	nop
    a9ae:	370c      	adds	r7, #12
    a9b0:	46bd      	mov	sp, r7
    a9b2:	bc80      	pop	{r7}
    a9b4:	4770      	bx	lr
    a9b6:	bf00      	nop
    a9b8:	e000e100 	.word	0xe000e100

0000a9bc <NVIC_SystemReset>:
    a9bc:	b480      	push	{r7}
    a9be:	af00      	add	r7, sp, #0
    a9c0:	f3bf 8f4f 	dsb	sy
    a9c4:	4905      	ldr	r1, [pc, #20]	; (a9dc <NVIC_SystemReset+0x20>)
    a9c6:	4b05      	ldr	r3, [pc, #20]	; (a9dc <NVIC_SystemReset+0x20>)
    a9c8:	68db      	ldr	r3, [r3, #12]
    a9ca:	f403 62e0 	and.w	r2, r3, #1792	; 0x700
    a9ce:	4b04      	ldr	r3, [pc, #16]	; (a9e0 <NVIC_SystemReset+0x24>)
    a9d0:	4313      	orrs	r3, r2
    a9d2:	60cb      	str	r3, [r1, #12]
    a9d4:	f3bf 8f4f 	dsb	sy
    a9d8:	e7fe      	b.n	a9d8 <NVIC_SystemReset+0x1c>
    a9da:	bf00      	nop
    a9dc:	e000ed00 	.word	0xe000ed00
    a9e0:	05fa0004 	.word	0x05fa0004

0000a9e4 <Chip_GPIO_SetPinState>:
    a9e4:	b480      	push	{r7}
    a9e6:	b083      	sub	sp, #12
    a9e8:	af00      	add	r7, sp, #0
    a9ea:	6078      	str	r0, [r7, #4]
    a9ec:	4608      	mov	r0, r1
    a9ee:	4611      	mov	r1, r2
    a9f0:	461a      	mov	r2, r3
    a9f2:	4603      	mov	r3, r0
    a9f4:	70fb      	strb	r3, [r7, #3]
    a9f6:	460b      	mov	r3, r1
    a9f8:	70bb      	strb	r3, [r7, #2]
    a9fa:	4613      	mov	r3, r2
    a9fc:	707b      	strb	r3, [r7, #1]
    a9fe:	787b      	ldrb	r3, [r7, #1]
    aa00:	2b00      	cmp	r3, #0
    aa02:	d00f      	beq.n	aa24 <Chip_GPIO_SetPinState+0x40>
    aa04:	78fb      	ldrb	r3, [r7, #3]
    aa06:	015b      	lsls	r3, r3, #5
    aa08:	687a      	ldr	r2, [r7, #4]
    aa0a:	4413      	add	r3, r2
    aa0c:	78fa      	ldrb	r2, [r7, #3]
    aa0e:	0152      	lsls	r2, r2, #5
    aa10:	6879      	ldr	r1, [r7, #4]
    aa12:	440a      	add	r2, r1
    aa14:	6991      	ldr	r1, [r2, #24]
    aa16:	78ba      	ldrb	r2, [r7, #2]
    aa18:	2001      	movs	r0, #1
    aa1a:	fa00 f202 	lsl.w	r2, r0, r2
    aa1e:	430a      	orrs	r2, r1
    aa20:	619a      	str	r2, [r3, #24]
    aa22:	e00e      	b.n	aa42 <Chip_GPIO_SetPinState+0x5e>
    aa24:	78fb      	ldrb	r3, [r7, #3]
    aa26:	015b      	lsls	r3, r3, #5
    aa28:	687a      	ldr	r2, [r7, #4]
    aa2a:	4413      	add	r3, r2
    aa2c:	78fa      	ldrb	r2, [r7, #3]
    aa2e:	0152      	lsls	r2, r2, #5
    aa30:	6879      	ldr	r1, [r7, #4]
    aa32:	440a      	add	r2, r1
    aa34:	69d1      	ldr	r1, [r2, #28]
    aa36:	78ba      	ldrb	r2, [r7, #2]
    aa38:	2001      	movs	r0, #1
    aa3a:	fa00 f202 	lsl.w	r2, r0, r2
    aa3e:	430a      	orrs	r2, r1
    aa40:	61da      	str	r2, [r3, #28]
    aa42:	bf00      	nop
    aa44:	370c      	adds	r7, #12
    aa46:	46bd      	mov	sp, r7
    aa48:	bc80      	pop	{r7}
    aa4a:	4770      	bx	lr

0000aa4c <Chip_GPIO_SetPinDIROutput>:
    aa4c:	b480      	push	{r7}
    aa4e:	b083      	sub	sp, #12
    aa50:	af00      	add	r7, sp, #0
    aa52:	6078      	str	r0, [r7, #4]
    aa54:	460b      	mov	r3, r1
    aa56:	70fb      	strb	r3, [r7, #3]
    aa58:	4613      	mov	r3, r2
    aa5a:	70bb      	strb	r3, [r7, #2]
    aa5c:	78fb      	ldrb	r3, [r7, #3]
    aa5e:	015b      	lsls	r3, r3, #5
    aa60:	687a      	ldr	r2, [r7, #4]
    aa62:	4413      	add	r3, r2
    aa64:	78fa      	ldrb	r2, [r7, #3]
    aa66:	0152      	lsls	r2, r2, #5
    aa68:	6879      	ldr	r1, [r7, #4]
    aa6a:	440a      	add	r2, r1
    aa6c:	6811      	ldr	r1, [r2, #0]
    aa6e:	78ba      	ldrb	r2, [r7, #2]
    aa70:	2001      	movs	r0, #1
    aa72:	fa00 f202 	lsl.w	r2, r0, r2
    aa76:	430a      	orrs	r2, r1
    aa78:	601a      	str	r2, [r3, #0]
    aa7a:	bf00      	nop
    aa7c:	370c      	adds	r7, #12
    aa7e:	46bd      	mov	sp, r7
    aa80:	bc80      	pop	{r7}
    aa82:	4770      	bx	lr

0000aa84 <Chip_GPIO_SetPinDIRInput>:
    aa84:	b480      	push	{r7}
    aa86:	b083      	sub	sp, #12
    aa88:	af00      	add	r7, sp, #0
    aa8a:	6078      	str	r0, [r7, #4]
    aa8c:	460b      	mov	r3, r1
    aa8e:	70fb      	strb	r3, [r7, #3]
    aa90:	4613      	mov	r3, r2
    aa92:	70bb      	strb	r3, [r7, #2]
    aa94:	78fb      	ldrb	r3, [r7, #3]
    aa96:	015b      	lsls	r3, r3, #5
    aa98:	687a      	ldr	r2, [r7, #4]
    aa9a:	4413      	add	r3, r2
    aa9c:	78fa      	ldrb	r2, [r7, #3]
    aa9e:	0152      	lsls	r2, r2, #5
    aaa0:	6879      	ldr	r1, [r7, #4]
    aaa2:	440a      	add	r2, r1
    aaa4:	6811      	ldr	r1, [r2, #0]
    aaa6:	78ba      	ldrb	r2, [r7, #2]
    aaa8:	2001      	movs	r0, #1
    aaaa:	fa00 f202 	lsl.w	r2, r0, r2
    aaae:	43d2      	mvns	r2, r2
    aab0:	400a      	ands	r2, r1
    aab2:	601a      	str	r2, [r3, #0]
    aab4:	bf00      	nop
    aab6:	370c      	adds	r7, #12
    aab8:	46bd      	mov	sp, r7
    aaba:	bc80      	pop	{r7}
    aabc:	4770      	bx	lr
    aabe:	bf00      	nop

0000aac0 <Chip_GPIO_SetPinDIR>:
    aac0:	b580      	push	{r7, lr}
    aac2:	b082      	sub	sp, #8
    aac4:	af00      	add	r7, sp, #0
    aac6:	6078      	str	r0, [r7, #4]
    aac8:	4608      	mov	r0, r1
    aaca:	4611      	mov	r1, r2
    aacc:	461a      	mov	r2, r3
    aace:	4603      	mov	r3, r0
    aad0:	70fb      	strb	r3, [r7, #3]
    aad2:	460b      	mov	r3, r1
    aad4:	70bb      	strb	r3, [r7, #2]
    aad6:	4613      	mov	r3, r2
    aad8:	707b      	strb	r3, [r7, #1]
    aada:	787b      	ldrb	r3, [r7, #1]
    aadc:	2b00      	cmp	r3, #0
    aade:	d006      	beq.n	aaee <Chip_GPIO_SetPinDIR+0x2e>
    aae0:	78ba      	ldrb	r2, [r7, #2]
    aae2:	78fb      	ldrb	r3, [r7, #3]
    aae4:	4619      	mov	r1, r3
    aae6:	6878      	ldr	r0, [r7, #4]
    aae8:	f7ff ffb0 	bl	aa4c <Chip_GPIO_SetPinDIROutput>
    aaec:	e005      	b.n	aafa <Chip_GPIO_SetPinDIR+0x3a>
    aaee:	78ba      	ldrb	r2, [r7, #2]
    aaf0:	78fb      	ldrb	r3, [r7, #3]
    aaf2:	4619      	mov	r1, r3
    aaf4:	6878      	ldr	r0, [r7, #4]
    aaf6:	f7ff ffc5 	bl	aa84 <Chip_GPIO_SetPinDIRInput>
    aafa:	bf00      	nop
    aafc:	3708      	adds	r7, #8
    aafe:	46bd      	mov	sp, r7
    ab00:	bd80      	pop	{r7, pc}
    ab02:	bf00      	nop

0000ab04 <Chip_GPIO_SetDir>:
    ab04:	b580      	push	{r7, lr}
    ab06:	b084      	sub	sp, #16
    ab08:	af00      	add	r7, sp, #0
    ab0a:	60f8      	str	r0, [r7, #12]
    ab0c:	607a      	str	r2, [r7, #4]
    ab0e:	461a      	mov	r2, r3
    ab10:	460b      	mov	r3, r1
    ab12:	72fb      	strb	r3, [r7, #11]
    ab14:	4613      	mov	r3, r2
    ab16:	72bb      	strb	r3, [r7, #10]
    ab18:	687b      	ldr	r3, [r7, #4]
    ab1a:	b2da      	uxtb	r2, r3
    ab1c:	7abb      	ldrb	r3, [r7, #10]
    ab1e:	2b00      	cmp	r3, #0
    ab20:	bf14      	ite	ne
    ab22:	2301      	movne	r3, #1
    ab24:	2300      	moveq	r3, #0
    ab26:	b2db      	uxtb	r3, r3
    ab28:	7af9      	ldrb	r1, [r7, #11]
    ab2a:	68f8      	ldr	r0, [r7, #12]
    ab2c:	f7ff ffc8 	bl	aac0 <Chip_GPIO_SetPinDIR>
    ab30:	bf00      	nop
    ab32:	3710      	adds	r7, #16
    ab34:	46bd      	mov	sp, r7
    ab36:	bd80      	pop	{r7, pc}

0000ab38 <i2c_state_handling>:
    ab38:	b580      	push	{r7, lr}
    ab3a:	b082      	sub	sp, #8
    ab3c:	af00      	add	r7, sp, #0
    ab3e:	4603      	mov	r3, r0
    ab40:	71fb      	strb	r3, [r7, #7]
    ab42:	79fb      	ldrb	r3, [r7, #7]
    ab44:	4618      	mov	r0, r3
    ab46:	f002 fa5f 	bl	d008 <Chip_I2C_IsMasterActive>
    ab4a:	4603      	mov	r3, r0
    ab4c:	2b00      	cmp	r3, #0
    ab4e:	d004      	beq.n	ab5a <i2c_state_handling+0x22>
    ab50:	79fb      	ldrb	r3, [r7, #7]
    ab52:	4618      	mov	r0, r3
    ab54:	f002 fa70 	bl	d038 <Chip_I2C_MasterStateHandler>
    ab58:	e003      	b.n	ab62 <i2c_state_handling+0x2a>
    ab5a:	79fb      	ldrb	r3, [r7, #7]
    ab5c:	4618      	mov	r0, r3
    ab5e:	f002 fa9b 	bl	d098 <Chip_I2C_SlaveStateHandler>
    ab62:	bf00      	nop
    ab64:	3708      	adds	r7, #8
    ab66:	46bd      	mov	sp, r7
    ab68:	bd80      	pop	{r7, pc}
    ab6a:	bf00      	nop

0000ab6c <i2c_set_mode>:
    ab6c:	b580      	push	{r7, lr}
    ab6e:	b082      	sub	sp, #8
    ab70:	af00      	add	r7, sp, #0
    ab72:	4603      	mov	r3, r0
    ab74:	6039      	str	r1, [r7, #0]
    ab76:	71fb      	strb	r3, [r7, #7]
    ab78:	683b      	ldr	r3, [r7, #0]
    ab7a:	2b00      	cmp	r3, #0
    ab7c:	d118      	bne.n	abb0 <i2c_set_mode+0x44>
    ab7e:	79fb      	ldrb	r3, [r7, #7]
    ab80:	2201      	movs	r2, #1
    ab82:	fa02 f303 	lsl.w	r3, r2, r3
    ab86:	43da      	mvns	r2, r3
    ab88:	4b16      	ldr	r3, [pc, #88]	; (abe4 <i2c_set_mode+0x78>)
    ab8a:	681b      	ldr	r3, [r3, #0]
    ab8c:	4013      	ands	r3, r2
    ab8e:	4a15      	ldr	r2, [pc, #84]	; (abe4 <i2c_set_mode+0x78>)
    ab90:	6013      	str	r3, [r2, #0]
    ab92:	79fb      	ldrb	r3, [r7, #7]
    ab94:	4914      	ldr	r1, [pc, #80]	; (abe8 <i2c_set_mode+0x7c>)
    ab96:	4618      	mov	r0, r3
    ab98:	f002 f998 	bl	cecc <Chip_I2C_SetMasterEventHandler>
    ab9c:	79fb      	ldrb	r3, [r7, #7]
    ab9e:	2b00      	cmp	r3, #0
    aba0:	d101      	bne.n	aba6 <i2c_set_mode+0x3a>
    aba2:	230a      	movs	r3, #10
    aba4:	e000      	b.n	aba8 <i2c_set_mode+0x3c>
    aba6:	230b      	movs	r3, #11
    aba8:	4618      	mov	r0, r3
    abaa:	f7ff fed5 	bl	a958 <NVIC_EnableIRQ>
    abae:	e015      	b.n	abdc <i2c_set_mode+0x70>
    abb0:	79fb      	ldrb	r3, [r7, #7]
    abb2:	2201      	movs	r2, #1
    abb4:	409a      	lsls	r2, r3
    abb6:	4b0b      	ldr	r3, [pc, #44]	; (abe4 <i2c_set_mode+0x78>)
    abb8:	681b      	ldr	r3, [r3, #0]
    abba:	4313      	orrs	r3, r2
    abbc:	4a09      	ldr	r2, [pc, #36]	; (abe4 <i2c_set_mode+0x78>)
    abbe:	6013      	str	r3, [r2, #0]
    abc0:	79fb      	ldrb	r3, [r7, #7]
    abc2:	2b00      	cmp	r3, #0
    abc4:	d101      	bne.n	abca <i2c_set_mode+0x5e>
    abc6:	230a      	movs	r3, #10
    abc8:	e000      	b.n	abcc <i2c_set_mode+0x60>
    abca:	230b      	movs	r3, #11
    abcc:	4618      	mov	r0, r3
    abce:	f7ff fedb 	bl	a988 <NVIC_DisableIRQ>
    abd2:	79fb      	ldrb	r3, [r7, #7]
    abd4:	4905      	ldr	r1, [pc, #20]	; (abec <i2c_set_mode+0x80>)
    abd6:	4618      	mov	r0, r3
    abd8:	f002 f978 	bl	cecc <Chip_I2C_SetMasterEventHandler>
    abdc:	bf00      	nop
    abde:	3708      	adds	r7, #8
    abe0:	46bd      	mov	sp, r7
    abe2:	bd80      	pop	{r7, pc}
    abe4:	10004068 	.word	0x10004068
    abe8:	0000cd85 	.word	0x0000cd85
    abec:	0000cdd1 	.word	0x0000cdd1

0000abf0 <i2c_app_init>:
    abf0:	b580      	push	{r7, lr}
    abf2:	b082      	sub	sp, #8
    abf4:	af00      	add	r7, sp, #0
    abf6:	4603      	mov	r3, r0
    abf8:	6039      	str	r1, [r7, #0]
    abfa:	71fb      	strb	r3, [r7, #7]
    abfc:	79fb      	ldrb	r3, [r7, #7]
    abfe:	4618      	mov	r0, r3
    ac00:	f001 fa66 	bl	c0d0 <Board_I2C_Init>
    ac04:	79fb      	ldrb	r3, [r7, #7]
    ac06:	4618      	mov	r0, r3
    ac08:	f002 f912 	bl	ce30 <Chip_I2C_Init>
    ac0c:	683a      	ldr	r2, [r7, #0]
    ac0e:	79fb      	ldrb	r3, [r7, #7]
    ac10:	4611      	mov	r1, r2
    ac12:	4618      	mov	r0, r3
    ac14:	f002 f926 	bl	ce64 <Chip_I2C_SetClockRate>
    ac18:	79fb      	ldrb	r3, [r7, #7]
    ac1a:	2100      	movs	r1, #0
    ac1c:	4618      	mov	r0, r3
    ac1e:	f7ff ffa5 	bl	ab6c <i2c_set_mode>
    ac22:	bf00      	nop
    ac24:	3708      	adds	r7, #8
    ac26:	46bd      	mov	sp, r7
    ac28:	bd80      	pop	{r7, pc}
    ac2a:	bf00      	nop

0000ac2c <I2C1_IRQHandler>:
    ac2c:	b580      	push	{r7, lr}
    ac2e:	af00      	add	r7, sp, #0
    ac30:	2001      	movs	r0, #1
    ac32:	f7ff ff81 	bl	ab38 <i2c_state_handling>
    ac36:	bf00      	nop
    ac38:	bd80      	pop	{r7, pc}
    ac3a:	bf00      	nop

0000ac3c <I2C0_IRQHandler>:
    ac3c:	b580      	push	{r7, lr}
    ac3e:	af00      	add	r7, sp, #0
    ac40:	2000      	movs	r0, #0
    ac42:	f7ff ff79 	bl	ab38 <i2c_state_handling>
    ac46:	bf00      	nop
    ac48:	bd80      	pop	{r7, pc}
    ac4a:	bf00      	nop

0000ac4c <test>:
    ac4c:	b580      	push	{r7, lr}
    ac4e:	b08e      	sub	sp, #56	; 0x38
    ac50:	af00      	add	r7, sp, #0
    ac52:	463b      	mov	r3, r7
    ac54:	2228      	movs	r2, #40	; 0x28
    ac56:	2100      	movs	r1, #0
    ac58:	4618      	mov	r0, r3
    ac5a:	f003 f85d 	bl	dd18 <memset>
    ac5e:	2300      	movs	r3, #0
    ac60:	703b      	strb	r3, [r7, #0]
    ac62:	2300      	movs	r3, #0
    ac64:	707b      	strb	r3, [r7, #1]
    ac66:	4b68      	ldr	r3, [pc, #416]	; (ae08 <test+0x1bc>)
    ac68:	69db      	ldr	r3, [r3, #28]
    ac6a:	0e1b      	lsrs	r3, r3, #24
    ac6c:	b2db      	uxtb	r3, r3
    ac6e:	70bb      	strb	r3, [r7, #2]
    ac70:	4b65      	ldr	r3, [pc, #404]	; (ae08 <test+0x1bc>)
    ac72:	69db      	ldr	r3, [r3, #28]
    ac74:	0c1b      	lsrs	r3, r3, #16
    ac76:	b2db      	uxtb	r3, r3
    ac78:	70fb      	strb	r3, [r7, #3]
    ac7a:	4b63      	ldr	r3, [pc, #396]	; (ae08 <test+0x1bc>)
    ac7c:	69db      	ldr	r3, [r3, #28]
    ac7e:	0a1b      	lsrs	r3, r3, #8
    ac80:	b2db      	uxtb	r3, r3
    ac82:	713b      	strb	r3, [r7, #4]
    ac84:	4b60      	ldr	r3, [pc, #384]	; (ae08 <test+0x1bc>)
    ac86:	69db      	ldr	r3, [r3, #28]
    ac88:	b2db      	uxtb	r3, r3
    ac8a:	717b      	strb	r3, [r7, #5]
    ac8c:	4b5e      	ldr	r3, [pc, #376]	; (ae08 <test+0x1bc>)
    ac8e:	685b      	ldr	r3, [r3, #4]
    ac90:	0e1b      	lsrs	r3, r3, #24
    ac92:	b2db      	uxtb	r3, r3
    ac94:	71bb      	strb	r3, [r7, #6]
    ac96:	4b5c      	ldr	r3, [pc, #368]	; (ae08 <test+0x1bc>)
    ac98:	685b      	ldr	r3, [r3, #4]
    ac9a:	0c1b      	lsrs	r3, r3, #16
    ac9c:	b2db      	uxtb	r3, r3
    ac9e:	71fb      	strb	r3, [r7, #7]
    aca0:	4b59      	ldr	r3, [pc, #356]	; (ae08 <test+0x1bc>)
    aca2:	685b      	ldr	r3, [r3, #4]
    aca4:	0a1b      	lsrs	r3, r3, #8
    aca6:	b2db      	uxtb	r3, r3
    aca8:	723b      	strb	r3, [r7, #8]
    acaa:	4b57      	ldr	r3, [pc, #348]	; (ae08 <test+0x1bc>)
    acac:	685b      	ldr	r3, [r3, #4]
    acae:	b2db      	uxtb	r3, r3
    acb0:	727b      	strb	r3, [r7, #9]
    acb2:	4b55      	ldr	r3, [pc, #340]	; (ae08 <test+0x1bc>)
    acb4:	689b      	ldr	r3, [r3, #8]
    acb6:	0e1b      	lsrs	r3, r3, #24
    acb8:	b2db      	uxtb	r3, r3
    acba:	72bb      	strb	r3, [r7, #10]
    acbc:	4b52      	ldr	r3, [pc, #328]	; (ae08 <test+0x1bc>)
    acbe:	689b      	ldr	r3, [r3, #8]
    acc0:	0c1b      	lsrs	r3, r3, #16
    acc2:	b2db      	uxtb	r3, r3
    acc4:	72fb      	strb	r3, [r7, #11]
    acc6:	4b50      	ldr	r3, [pc, #320]	; (ae08 <test+0x1bc>)
    acc8:	689b      	ldr	r3, [r3, #8]
    acca:	0a1b      	lsrs	r3, r3, #8
    accc:	b2db      	uxtb	r3, r3
    acce:	733b      	strb	r3, [r7, #12]
    acd0:	4b4d      	ldr	r3, [pc, #308]	; (ae08 <test+0x1bc>)
    acd2:	689b      	ldr	r3, [r3, #8]
    acd4:	b2db      	uxtb	r3, r3
    acd6:	737b      	strb	r3, [r7, #13]
    acd8:	4b4b      	ldr	r3, [pc, #300]	; (ae08 <test+0x1bc>)
    acda:	68db      	ldr	r3, [r3, #12]
    acdc:	0e1b      	lsrs	r3, r3, #24
    acde:	b2db      	uxtb	r3, r3
    ace0:	73bb      	strb	r3, [r7, #14]
    ace2:	4b49      	ldr	r3, [pc, #292]	; (ae08 <test+0x1bc>)
    ace4:	68db      	ldr	r3, [r3, #12]
    ace6:	0c1b      	lsrs	r3, r3, #16
    ace8:	b2db      	uxtb	r3, r3
    acea:	73fb      	strb	r3, [r7, #15]
    acec:	4b46      	ldr	r3, [pc, #280]	; (ae08 <test+0x1bc>)
    acee:	68db      	ldr	r3, [r3, #12]
    acf0:	0a1b      	lsrs	r3, r3, #8
    acf2:	b2db      	uxtb	r3, r3
    acf4:	743b      	strb	r3, [r7, #16]
    acf6:	4b44      	ldr	r3, [pc, #272]	; (ae08 <test+0x1bc>)
    acf8:	68db      	ldr	r3, [r3, #12]
    acfa:	b2db      	uxtb	r3, r3
    acfc:	747b      	strb	r3, [r7, #17]
    acfe:	4b42      	ldr	r3, [pc, #264]	; (ae08 <test+0x1bc>)
    ad00:	691b      	ldr	r3, [r3, #16]
    ad02:	0e1b      	lsrs	r3, r3, #24
    ad04:	b2db      	uxtb	r3, r3
    ad06:	74bb      	strb	r3, [r7, #18]
    ad08:	4b3f      	ldr	r3, [pc, #252]	; (ae08 <test+0x1bc>)
    ad0a:	691b      	ldr	r3, [r3, #16]
    ad0c:	0c1b      	lsrs	r3, r3, #16
    ad0e:	b2db      	uxtb	r3, r3
    ad10:	74fb      	strb	r3, [r7, #19]
    ad12:	4b3d      	ldr	r3, [pc, #244]	; (ae08 <test+0x1bc>)
    ad14:	691b      	ldr	r3, [r3, #16]
    ad16:	0a1b      	lsrs	r3, r3, #8
    ad18:	b2db      	uxtb	r3, r3
    ad1a:	753b      	strb	r3, [r7, #20]
    ad1c:	4b3a      	ldr	r3, [pc, #232]	; (ae08 <test+0x1bc>)
    ad1e:	691b      	ldr	r3, [r3, #16]
    ad20:	b2db      	uxtb	r3, r3
    ad22:	757b      	strb	r3, [r7, #21]
    ad24:	4b38      	ldr	r3, [pc, #224]	; (ae08 <test+0x1bc>)
    ad26:	695b      	ldr	r3, [r3, #20]
    ad28:	0e1b      	lsrs	r3, r3, #24
    ad2a:	b2db      	uxtb	r3, r3
    ad2c:	75bb      	strb	r3, [r7, #22]
    ad2e:	4b36      	ldr	r3, [pc, #216]	; (ae08 <test+0x1bc>)
    ad30:	695b      	ldr	r3, [r3, #20]
    ad32:	0c1b      	lsrs	r3, r3, #16
    ad34:	b2db      	uxtb	r3, r3
    ad36:	75fb      	strb	r3, [r7, #23]
    ad38:	4b33      	ldr	r3, [pc, #204]	; (ae08 <test+0x1bc>)
    ad3a:	695b      	ldr	r3, [r3, #20]
    ad3c:	0a1b      	lsrs	r3, r3, #8
    ad3e:	b2db      	uxtb	r3, r3
    ad40:	763b      	strb	r3, [r7, #24]
    ad42:	4b31      	ldr	r3, [pc, #196]	; (ae08 <test+0x1bc>)
    ad44:	695b      	ldr	r3, [r3, #20]
    ad46:	b2db      	uxtb	r3, r3
    ad48:	767b      	strb	r3, [r7, #25]
    ad4a:	4b2f      	ldr	r3, [pc, #188]	; (ae08 <test+0x1bc>)
    ad4c:	6a1b      	ldr	r3, [r3, #32]
    ad4e:	0e1b      	lsrs	r3, r3, #24
    ad50:	b2db      	uxtb	r3, r3
    ad52:	76bb      	strb	r3, [r7, #26]
    ad54:	4b2c      	ldr	r3, [pc, #176]	; (ae08 <test+0x1bc>)
    ad56:	6a1b      	ldr	r3, [r3, #32]
    ad58:	0c1b      	lsrs	r3, r3, #16
    ad5a:	b2db      	uxtb	r3, r3
    ad5c:	76fb      	strb	r3, [r7, #27]
    ad5e:	4b2a      	ldr	r3, [pc, #168]	; (ae08 <test+0x1bc>)
    ad60:	6a1b      	ldr	r3, [r3, #32]
    ad62:	0a1b      	lsrs	r3, r3, #8
    ad64:	b2db      	uxtb	r3, r3
    ad66:	773b      	strb	r3, [r7, #28]
    ad68:	4b27      	ldr	r3, [pc, #156]	; (ae08 <test+0x1bc>)
    ad6a:	6a1b      	ldr	r3, [r3, #32]
    ad6c:	b2db      	uxtb	r3, r3
    ad6e:	777b      	strb	r3, [r7, #29]
    ad70:	4b25      	ldr	r3, [pc, #148]	; (ae08 <test+0x1bc>)
    ad72:	6b1b      	ldr	r3, [r3, #48]	; 0x30
    ad74:	0e1b      	lsrs	r3, r3, #24
    ad76:	b2db      	uxtb	r3, r3
    ad78:	77bb      	strb	r3, [r7, #30]
    ad7a:	4b23      	ldr	r3, [pc, #140]	; (ae08 <test+0x1bc>)
    ad7c:	6b1b      	ldr	r3, [r3, #48]	; 0x30
    ad7e:	0c1b      	lsrs	r3, r3, #16
    ad80:	b2db      	uxtb	r3, r3
    ad82:	77fb      	strb	r3, [r7, #31]
    ad84:	4b20      	ldr	r3, [pc, #128]	; (ae08 <test+0x1bc>)
    ad86:	6b1b      	ldr	r3, [r3, #48]	; 0x30
    ad88:	0a1b      	lsrs	r3, r3, #8
    ad8a:	b2db      	uxtb	r3, r3
    ad8c:	f887 3020 	strb.w	r3, [r7, #32]
    ad90:	4b1d      	ldr	r3, [pc, #116]	; (ae08 <test+0x1bc>)
    ad92:	6b1b      	ldr	r3, [r3, #48]	; 0x30
    ad94:	b2db      	uxtb	r3, r3
    ad96:	f887 3021 	strb.w	r3, [r7, #33]	; 0x21
    ad9a:	f001 fa2f 	bl	c1fc <SystemCoreClockUpdate>
    ad9e:	f001 f987 	bl	c0b0 <Board_Init>
    ada2:	491a      	ldr	r1, [pc, #104]	; (ae0c <test+0x1c0>)
    ada4:	2000      	movs	r0, #0
    ada6:	f7ff ff23 	bl	abf0 <i2c_app_init>
    adaa:	2323      	movs	r3, #35	; 0x23
    adac:	62fb      	str	r3, [r7, #44]	; 0x2c
    adae:	4b18      	ldr	r3, [pc, #96]	; (ae10 <test+0x1c4>)
    adb0:	2250      	movs	r2, #80	; 0x50
    adb2:	701a      	strb	r2, [r3, #0]
    adb4:	4a16      	ldr	r2, [pc, #88]	; (ae10 <test+0x1c4>)
    adb6:	6afb      	ldr	r3, [r7, #44]	; 0x2c
    adb8:	6093      	str	r3, [r2, #8]
    adba:	4a15      	ldr	r2, [pc, #84]	; (ae10 <test+0x1c4>)
    adbc:	463b      	mov	r3, r7
    adbe:	6053      	str	r3, [r2, #4]
    adc0:	4b14      	ldr	r3, [pc, #80]	; (ae14 <test+0x1c8>)
    adc2:	7818      	ldrb	r0, [r3, #0]
    adc4:	4b12      	ldr	r3, [pc, #72]	; (ae10 <test+0x1c4>)
    adc6:	7819      	ldrb	r1, [r3, #0]
    adc8:	4b11      	ldr	r3, [pc, #68]	; (ae10 <test+0x1c4>)
    adca:	685a      	ldr	r2, [r3, #4]
    adcc:	4b10      	ldr	r3, [pc, #64]	; (ae10 <test+0x1c4>)
    adce:	689b      	ldr	r3, [r3, #8]
    add0:	b2db      	uxtb	r3, r3
    add2:	f002 f8ed 	bl	cfb0 <Chip_I2C_MasterSend>
    add6:	62b8      	str	r0, [r7, #40]	; 0x28
    add8:	2300      	movs	r3, #0
    adda:	637b      	str	r3, [r7, #52]	; 0x34
    addc:	e00b      	b.n	adf6 <test+0x1aa>
    adde:	2300      	movs	r3, #0
    ade0:	633b      	str	r3, [r7, #48]	; 0x30
    ade2:	e002      	b.n	adea <test+0x19e>
    ade4:	6b3b      	ldr	r3, [r7, #48]	; 0x30
    ade6:	3301      	adds	r3, #1
    ade8:	633b      	str	r3, [r7, #48]	; 0x30
    adea:	6b3b      	ldr	r3, [r7, #48]	; 0x30
    adec:	2b09      	cmp	r3, #9
    adee:	ddf9      	ble.n	ade4 <test+0x198>
    adf0:	6b7b      	ldr	r3, [r7, #52]	; 0x34
    adf2:	3301      	adds	r3, #1
    adf4:	637b      	str	r3, [r7, #52]	; 0x34
    adf6:	6b7b      	ldr	r3, [r7, #52]	; 0x34
    adf8:	4a07      	ldr	r2, [pc, #28]	; (ae18 <test+0x1cc>)
    adfa:	4293      	cmp	r3, r2
    adfc:	ddef      	ble.n	adde <test+0x192>
    adfe:	bf00      	nop
    ae00:	3738      	adds	r7, #56	; 0x38
    ae02:	46bd      	mov	sp, r7
    ae04:	bd80      	pop	{r7, pc}
    ae06:	bf00      	nop
    ae08:	10004bd0 	.word	0x10004bd0
    ae0c:	000186a0 	.word	0x000186a0
    ae10:	10004070 	.word	0x10004070
    ae14:	1000406c 	.word	0x1000406c
    ae18:	000176ff 	.word	0x000176ff

0000ae1c <delay>:
    ae1c:	b480      	push	{r7}
    ae1e:	b083      	sub	sp, #12
    ae20:	af00      	add	r7, sp, #0
    ae22:	2300      	movs	r3, #0
    ae24:	607b      	str	r3, [r7, #4]
    ae26:	e00b      	b.n	ae40 <delay+0x24>
    ae28:	2300      	movs	r3, #0
    ae2a:	603b      	str	r3, [r7, #0]
    ae2c:	e002      	b.n	ae34 <delay+0x18>
    ae2e:	683b      	ldr	r3, [r7, #0]
    ae30:	3301      	adds	r3, #1
    ae32:	603b      	str	r3, [r7, #0]
    ae34:	683b      	ldr	r3, [r7, #0]
    ae36:	2b09      	cmp	r3, #9
    ae38:	d9f9      	bls.n	ae2e <delay+0x12>
    ae3a:	687b      	ldr	r3, [r7, #4]
    ae3c:	3301      	adds	r3, #1
    ae3e:	607b      	str	r3, [r7, #4]
    ae40:	687b      	ldr	r3, [r7, #4]
    ae42:	4a04      	ldr	r2, [pc, #16]	; (ae54 <delay+0x38>)
    ae44:	4293      	cmp	r3, r2
    ae46:	d9ef      	bls.n	ae28 <delay+0xc>
    ae48:	bf00      	nop
    ae4a:	370c      	adds	r7, #12
    ae4c:	46bd      	mov	sp, r7
    ae4e:	bc80      	pop	{r7}
    ae50:	4770      	bx	lr
    ae52:	bf00      	nop
    ae54:	000176ff 	.word	0x000176ff

0000ae58 <pop_registers_from_fault_stack>:
    ae58:	b580      	push	{r7, lr}
    ae5a:	b084      	sub	sp, #16
    ae5c:	af00      	add	r7, sp, #0
    ae5e:	6078      	str	r0, [r7, #4]
    ae60:	2300      	movs	r3, #0
    ae62:	60bb      	str	r3, [r7, #8]
    ae64:	2301      	movs	r3, #1
    ae66:	220a      	movs	r2, #10
    ae68:	2100      	movs	r1, #0
    ae6a:	4842      	ldr	r0, [pc, #264]	; (af74 <pop_registers_from_fault_stack+0x11c>)
    ae6c:	f7ff fe4a 	bl	ab04 <Chip_GPIO_SetDir>
    ae70:	2301      	movs	r3, #1
    ae72:	2202      	movs	r2, #2
    ae74:	2102      	movs	r1, #2
    ae76:	483f      	ldr	r0, [pc, #252]	; (af74 <pop_registers_from_fault_stack+0x11c>)
    ae78:	f7ff fe44 	bl	ab04 <Chip_GPIO_SetDir>
    ae7c:	2301      	movs	r3, #1
    ae7e:	220a      	movs	r2, #10
    ae80:	2100      	movs	r1, #0
    ae82:	483c      	ldr	r0, [pc, #240]	; (af74 <pop_registers_from_fault_stack+0x11c>)
    ae84:	f7ff fdae 	bl	a9e4 <Chip_GPIO_SetPinState>
    ae88:	2301      	movs	r3, #1
    ae8a:	2202      	movs	r2, #2
    ae8c:	2102      	movs	r1, #2
    ae8e:	4839      	ldr	r0, [pc, #228]	; (af74 <pop_registers_from_fault_stack+0x11c>)
    ae90:	f7ff fda8 	bl	a9e4 <Chip_GPIO_SetPinState>
    ae94:	687b      	ldr	r3, [r7, #4]
    ae96:	681b      	ldr	r3, [r3, #0]
    ae98:	4a37      	ldr	r2, [pc, #220]	; (af78 <pop_registers_from_fault_stack+0x120>)
    ae9a:	6053      	str	r3, [r2, #4]
    ae9c:	687b      	ldr	r3, [r7, #4]
    ae9e:	685b      	ldr	r3, [r3, #4]
    aea0:	4a35      	ldr	r2, [pc, #212]	; (af78 <pop_registers_from_fault_stack+0x120>)
    aea2:	6093      	str	r3, [r2, #8]
    aea4:	687b      	ldr	r3, [r7, #4]
    aea6:	689b      	ldr	r3, [r3, #8]
    aea8:	4a33      	ldr	r2, [pc, #204]	; (af78 <pop_registers_from_fault_stack+0x120>)
    aeaa:	60d3      	str	r3, [r2, #12]
    aeac:	687b      	ldr	r3, [r7, #4]
    aeae:	68db      	ldr	r3, [r3, #12]
    aeb0:	4a31      	ldr	r2, [pc, #196]	; (af78 <pop_registers_from_fault_stack+0x120>)
    aeb2:	6113      	str	r3, [r2, #16]
    aeb4:	687b      	ldr	r3, [r7, #4]
    aeb6:	691b      	ldr	r3, [r3, #16]
    aeb8:	4a2f      	ldr	r2, [pc, #188]	; (af78 <pop_registers_from_fault_stack+0x120>)
    aeba:	6153      	str	r3, [r2, #20]
    aebc:	687b      	ldr	r3, [r7, #4]
    aebe:	695b      	ldr	r3, [r3, #20]
    aec0:	4a2d      	ldr	r2, [pc, #180]	; (af78 <pop_registers_from_fault_stack+0x120>)
    aec2:	6193      	str	r3, [r2, #24]
    aec4:	687b      	ldr	r3, [r7, #4]
    aec6:	699b      	ldr	r3, [r3, #24]
    aec8:	4a2b      	ldr	r2, [pc, #172]	; (af78 <pop_registers_from_fault_stack+0x120>)
    aeca:	61d3      	str	r3, [r2, #28]
    aecc:	687b      	ldr	r3, [r7, #4]
    aece:	69db      	ldr	r3, [r3, #28]
    aed0:	4a29      	ldr	r2, [pc, #164]	; (af78 <pop_registers_from_fault_stack+0x120>)
    aed2:	6213      	str	r3, [r2, #32]
    aed4:	4b29      	ldr	r3, [pc, #164]	; (af7c <pop_registers_from_fault_stack+0x124>)
    aed6:	681b      	ldr	r3, [r3, #0]
    aed8:	4a27      	ldr	r2, [pc, #156]	; (af78 <pop_registers_from_fault_stack+0x120>)
    aeda:	6253      	str	r3, [r2, #36]	; 0x24
    aedc:	4b28      	ldr	r3, [pc, #160]	; (af80 <pop_registers_from_fault_stack+0x128>)
    aede:	681b      	ldr	r3, [r3, #0]
    aee0:	4a25      	ldr	r2, [pc, #148]	; (af78 <pop_registers_from_fault_stack+0x120>)
    aee2:	6293      	str	r3, [r2, #40]	; 0x28
    aee4:	4b27      	ldr	r3, [pc, #156]	; (af84 <pop_registers_from_fault_stack+0x12c>)
    aee6:	681b      	ldr	r3, [r3, #0]
    aee8:	4a23      	ldr	r2, [pc, #140]	; (af78 <pop_registers_from_fault_stack+0x120>)
    aeea:	62d3      	str	r3, [r2, #44]	; 0x2c
    aeec:	4b26      	ldr	r3, [pc, #152]	; (af88 <pop_registers_from_fault_stack+0x130>)
    aeee:	681b      	ldr	r3, [r3, #0]
    aef0:	4a21      	ldr	r2, [pc, #132]	; (af78 <pop_registers_from_fault_stack+0x120>)
    aef2:	6313      	str	r3, [r2, #48]	; 0x30
    aef4:	4b25      	ldr	r3, [pc, #148]	; (af8c <pop_registers_from_fault_stack+0x134>)
    aef6:	681b      	ldr	r3, [r3, #0]
    aef8:	4a1f      	ldr	r2, [pc, #124]	; (af78 <pop_registers_from_fault_stack+0x120>)
    aefa:	6393      	str	r3, [r2, #56]	; 0x38
    aefc:	4a24      	ldr	r2, [pc, #144]	; (af90 <pop_registers_from_fault_stack+0x138>)
    aefe:	4b24      	ldr	r3, [pc, #144]	; (af90 <pop_registers_from_fault_stack+0x138>)
    af00:	6a9b      	ldr	r3, [r3, #40]	; 0x28
    af02:	f043 0382 	orr.w	r3, r3, #130	; 0x82
    af06:	6293      	str	r3, [r2, #40]	; 0x28
    af08:	2300      	movs	r3, #0
    af0a:	60fb      	str	r3, [r7, #12]
    af0c:	68fb      	ldr	r3, [r7, #12]
    af0e:	f383 8814 	msr	CONTROL, r3
    af12:	f7ff fe9b 	bl	ac4c <test>
    af16:	2300      	movs	r3, #0
    af18:	2202      	movs	r2, #2
    af1a:	2102      	movs	r1, #2
    af1c:	4815      	ldr	r0, [pc, #84]	; (af74 <pop_registers_from_fault_stack+0x11c>)
    af1e:	f7ff fd61 	bl	a9e4 <Chip_GPIO_SetPinState>
    af22:	2300      	movs	r3, #0
    af24:	220a      	movs	r2, #10
    af26:	2100      	movs	r1, #0
    af28:	4812      	ldr	r0, [pc, #72]	; (af74 <pop_registers_from_fault_stack+0x11c>)
    af2a:	f7ff fd5b 	bl	a9e4 <Chip_GPIO_SetPinState>
    af2e:	f7ff ff75 	bl	ae1c <delay>
    af32:	2301      	movs	r3, #1
    af34:	2202      	movs	r2, #2
    af36:	2102      	movs	r1, #2
    af38:	480e      	ldr	r0, [pc, #56]	; (af74 <pop_registers_from_fault_stack+0x11c>)
    af3a:	f7ff fd53 	bl	a9e4 <Chip_GPIO_SetPinState>
    af3e:	2301      	movs	r3, #1
    af40:	220a      	movs	r2, #10
    af42:	2100      	movs	r1, #0
    af44:	480b      	ldr	r0, [pc, #44]	; (af74 <pop_registers_from_fault_stack+0x11c>)
    af46:	f7ff fd4d 	bl	a9e4 <Chip_GPIO_SetPinState>
    af4a:	f7ff ff67 	bl	ae1c <delay>
    af4e:	68bb      	ldr	r3, [r7, #8]
    af50:	3301      	adds	r3, #1
    af52:	60bb      	str	r3, [r7, #8]
    af54:	68bb      	ldr	r3, [r7, #8]
    af56:	2b0a      	cmp	r3, #10
    af58:	d800      	bhi.n	af5c <pop_registers_from_fault_stack+0x104>
    af5a:	e7dc      	b.n	af16 <pop_registers_from_fault_stack+0xbe>
    af5c:	bf00      	nop
    af5e:	f7ff fd2d 	bl	a9bc <NVIC_SystemReset>
    af62:	4b0c      	ldr	r3, [pc, #48]	; (af94 <pop_registers_from_fault_stack+0x13c>)
    af64:	681b      	ldr	r3, [r3, #0]
    af66:	4618      	mov	r0, r3
    af68:	f7f6 fda8 	bl	1abc <xTaskResumeFromISR>
    af6c:	bf00      	nop
    af6e:	3710      	adds	r7, #16
    af70:	46bd      	mov	sp, r7
    af72:	bd80      	pop	{r7, pc}
    af74:	2009c000 	.word	0x2009c000
    af78:	10004bd0 	.word	0x10004bd0
    af7c:	e000ed38 	.word	0xe000ed38
    af80:	e000ed28 	.word	0xe000ed28
    af84:	e000ed2c 	.word	0xe000ed2c
    af88:	e000ed34 	.word	0xe000ed34
    af8c:	e000ed24 	.word	0xe000ed24
    af90:	e000ed00 	.word	0xe000ed00
    af94:	10004a00 	.word	0x10004a00

0000af98 <vMyControlTaskStart>:
    af98:	b5f0      	push	{r4, r5, r6, r7, lr}
    af9a:	b085      	sub	sp, #20
    af9c:	af04      	add	r7, sp, #16
    af9e:	4b0e      	ldr	r3, [pc, #56]	; (afd8 <vMyControlTaskStart+0x40>)
    afa0:	6818      	ldr	r0, [r3, #0]
    afa2:	4b0d      	ldr	r3, [pc, #52]	; (afd8 <vMyControlTaskStart+0x40>)
    afa4:	685c      	ldr	r4, [r3, #4]
    afa6:	4b0c      	ldr	r3, [pc, #48]	; (afd8 <vMyControlTaskStart+0x40>)
    afa8:	891b      	ldrh	r3, [r3, #8]
    afaa:	b29d      	uxth	r5, r3
    afac:	4b0a      	ldr	r3, [pc, #40]	; (afd8 <vMyControlTaskStart+0x40>)
    afae:	68de      	ldr	r6, [r3, #12]
    afb0:	4b09      	ldr	r3, [pc, #36]	; (afd8 <vMyControlTaskStart+0x40>)
    afb2:	691b      	ldr	r3, [r3, #16]
    afb4:	4a08      	ldr	r2, [pc, #32]	; (afd8 <vMyControlTaskStart+0x40>)
    afb6:	6952      	ldr	r2, [r2, #20]
    afb8:	4908      	ldr	r1, [pc, #32]	; (afdc <vMyControlTaskStart+0x44>)
    afba:	9103      	str	r1, [sp, #12]
    afbc:	9202      	str	r2, [sp, #8]
    afbe:	2200      	movs	r2, #0
    afc0:	9201      	str	r2, [sp, #4]
    afc2:	9300      	str	r3, [sp, #0]
    afc4:	4633      	mov	r3, r6
    afc6:	462a      	mov	r2, r5
    afc8:	4621      	mov	r1, r4
    afca:	f7fc ff4b 	bl	7e64 <MPU_xTaskGenericCreate>
    afce:	bf00      	nop
    afd0:	3704      	adds	r7, #4
    afd2:	46bd      	mov	sp, r7
    afd4:	bdf0      	pop	{r4, r5, r6, r7, pc}
    afd6:	bf00      	nop
    afd8:	10004c5c 	.word	0x10004c5c
    afdc:	10004c74 	.word	0x10004c74

0000afe0 <prvMyControlTask>:
    afe0:	b580      	push	{r7, lr}
    afe2:	b088      	sub	sp, #32
    afe4:	af00      	add	r7, sp, #0
    afe6:	6078      	str	r0, [r7, #4]
    afe8:	2300      	movs	r3, #0
    afea:	77fb      	strb	r3, [r7, #31]
    afec:	2300      	movs	r3, #0
    afee:	77bb      	strb	r3, [r7, #30]
    aff0:	4b2d      	ldr	r3, [pc, #180]	; (b0a8 <prvMyControlTask+0xc8>)
    aff2:	681b      	ldr	r3, [r3, #0]
    aff4:	61bb      	str	r3, [r7, #24]
    aff6:	4b2d      	ldr	r3, [pc, #180]	; (b0ac <prvMyControlTask+0xcc>)
    aff8:	681b      	ldr	r3, [r3, #0]
    affa:	617b      	str	r3, [r7, #20]
    affc:	f3ef 8014 	mrs	r0, CONTROL
    b000:	f040 0001 	orr.w	r0, r0, #1
    b004:	f380 8814 	msr	CONTROL, r0
    b008:	f107 010c 	add.w	r1, r7, #12
    b00c:	2300      	movs	r3, #0
    b00e:	2205      	movs	r2, #5
    b010:	69b8      	ldr	r0, [r7, #24]
    b012:	f7fc fff5 	bl	8000 <MPU_xQueueGenericReceive>
    b016:	4603      	mov	r3, r0
    b018:	2b01      	cmp	r3, #1
    b01a:	d140      	bne.n	b09e <prvMyControlTask+0xbe>
    b01c:	7b3b      	ldrb	r3, [r7, #12]
    b01e:	2b41      	cmp	r3, #65	; 0x41
    b020:	d10e      	bne.n	b040 <prvMyControlTask+0x60>
    b022:	7b7b      	ldrb	r3, [r7, #13]
    b024:	77fb      	strb	r3, [r7, #31]
    b026:	2341      	movs	r3, #65	; 0x41
    b028:	723b      	strb	r3, [r7, #8]
    b02a:	7b7b      	ldrb	r3, [r7, #13]
    b02c:	f083 0301 	eor.w	r3, r3, #1
    b030:	b2db      	uxtb	r3, r3
    b032:	2b00      	cmp	r3, #0
    b034:	d002      	beq.n	b03c <prvMyControlTask+0x5c>
    b036:	2301      	movs	r3, #1
    b038:	727b      	strb	r3, [r7, #9]
    b03a:	e001      	b.n	b040 <prvMyControlTask+0x60>
    b03c:	2300      	movs	r3, #0
    b03e:	727b      	strb	r3, [r7, #9]
    b040:	f107 0108 	add.w	r1, r7, #8
    b044:	2300      	movs	r3, #0
    b046:	220a      	movs	r2, #10
    b048:	6978      	ldr	r0, [r7, #20]
    b04a:	f7fc ff9f 	bl	7f8c <MPU_xQueueGenericSend>
    b04e:	7b3b      	ldrb	r3, [r7, #12]
    b050:	2b42      	cmp	r3, #66	; 0x42
    b052:	d10e      	bne.n	b072 <prvMyControlTask+0x92>
    b054:	7b7b      	ldrb	r3, [r7, #13]
    b056:	77bb      	strb	r3, [r7, #30]
    b058:	2342      	movs	r3, #66	; 0x42
    b05a:	723b      	strb	r3, [r7, #8]
    b05c:	7b7b      	ldrb	r3, [r7, #13]
    b05e:	f083 0301 	eor.w	r3, r3, #1
    b062:	b2db      	uxtb	r3, r3
    b064:	2b00      	cmp	r3, #0
    b066:	d002      	beq.n	b06e <prvMyControlTask+0x8e>
    b068:	2301      	movs	r3, #1
    b06a:	727b      	strb	r3, [r7, #9]
    b06c:	e001      	b.n	b072 <prvMyControlTask+0x92>
    b06e:	2300      	movs	r3, #0
    b070:	727b      	strb	r3, [r7, #9]
    b072:	f107 0108 	add.w	r1, r7, #8
    b076:	2300      	movs	r3, #0
    b078:	220a      	movs	r2, #10
    b07a:	6978      	ldr	r0, [r7, #20]
    b07c:	f7fc ff86 	bl	7f8c <MPU_xQueueGenericSend>
    b080:	7ffb      	ldrb	r3, [r7, #31]
    b082:	f083 0301 	eor.w	r3, r3, #1
    b086:	b2db      	uxtb	r3, r3
    b088:	2b00      	cmp	r3, #0
    b08a:	d008      	beq.n	b09e <prvMyControlTask+0xbe>
    b08c:	7fbb      	ldrb	r3, [r7, #30]
    b08e:	f083 0301 	eor.w	r3, r3, #1
    b092:	b2db      	uxtb	r3, r3
    b094:	2b00      	cmp	r3, #0
    b096:	d002      	beq.n	b09e <prvMyControlTask+0xbe>
    b098:	4b03      	ldr	r3, [pc, #12]	; (b0a8 <prvMyControlTask+0xc8>)
    b09a:	681b      	ldr	r3, [r3, #0]
    b09c:	613b      	str	r3, [r7, #16]
    b09e:	2019      	movs	r0, #25
    b0a0:	f7fc ff08 	bl	7eb4 <MPU_vTaskDelay>
    b0a4:	e7b0      	b.n	b008 <prvMyControlTask+0x28>
    b0a6:	bf00      	nop
    b0a8:	10004c10 	.word	0x10004c10
    b0ac:	10004c0c 	.word	0x10004c0c

0000b0b0 <Chip_GPIO_GetPinState>:
    b0b0:	b480      	push	{r7}
    b0b2:	b083      	sub	sp, #12
    b0b4:	af00      	add	r7, sp, #0
    b0b6:	6078      	str	r0, [r7, #4]
    b0b8:	460b      	mov	r3, r1
    b0ba:	70fb      	strb	r3, [r7, #3]
    b0bc:	4613      	mov	r3, r2
    b0be:	70bb      	strb	r3, [r7, #2]
    b0c0:	78fb      	ldrb	r3, [r7, #3]
    b0c2:	015b      	lsls	r3, r3, #5
    b0c4:	687a      	ldr	r2, [r7, #4]
    b0c6:	4413      	add	r3, r2
    b0c8:	695a      	ldr	r2, [r3, #20]
    b0ca:	78bb      	ldrb	r3, [r7, #2]
    b0cc:	fa22 f303 	lsr.w	r3, r2, r3
    b0d0:	f003 0301 	and.w	r3, r3, #1
    b0d4:	2b00      	cmp	r3, #0
    b0d6:	bf14      	ite	ne
    b0d8:	2301      	movne	r3, #1
    b0da:	2300      	moveq	r3, #0
    b0dc:	b2db      	uxtb	r3, r3
    b0de:	4618      	mov	r0, r3
    b0e0:	370c      	adds	r7, #12
    b0e2:	46bd      	mov	sp, r7
    b0e4:	bc80      	pop	{r7}
    b0e6:	4770      	bx	lr

0000b0e8 <Chip_GPIO_ReadPortBit>:
    b0e8:	b580      	push	{r7, lr}
    b0ea:	b084      	sub	sp, #16
    b0ec:	af00      	add	r7, sp, #0
    b0ee:	60f8      	str	r0, [r7, #12]
    b0f0:	60b9      	str	r1, [r7, #8]
    b0f2:	4613      	mov	r3, r2
    b0f4:	71fb      	strb	r3, [r7, #7]
    b0f6:	68bb      	ldr	r3, [r7, #8]
    b0f8:	b2db      	uxtb	r3, r3
    b0fa:	79fa      	ldrb	r2, [r7, #7]
    b0fc:	4619      	mov	r1, r3
    b0fe:	68f8      	ldr	r0, [r7, #12]
    b100:	f7ff ffd6 	bl	b0b0 <Chip_GPIO_GetPinState>
    b104:	4603      	mov	r3, r0
    b106:	4618      	mov	r0, r3
    b108:	3710      	adds	r7, #16
    b10a:	46bd      	mov	sp, r7
    b10c:	bd80      	pop	{r7, pc}
    b10e:	bf00      	nop

0000b110 <Chip_GPIO_SetPinDIROutput>:
    b110:	b480      	push	{r7}
    b112:	b083      	sub	sp, #12
    b114:	af00      	add	r7, sp, #0
    b116:	6078      	str	r0, [r7, #4]
    b118:	460b      	mov	r3, r1
    b11a:	70fb      	strb	r3, [r7, #3]
    b11c:	4613      	mov	r3, r2
    b11e:	70bb      	strb	r3, [r7, #2]
    b120:	78fb      	ldrb	r3, [r7, #3]
    b122:	015b      	lsls	r3, r3, #5
    b124:	687a      	ldr	r2, [r7, #4]
    b126:	4413      	add	r3, r2
    b128:	78fa      	ldrb	r2, [r7, #3]
    b12a:	0152      	lsls	r2, r2, #5
    b12c:	6879      	ldr	r1, [r7, #4]
    b12e:	440a      	add	r2, r1
    b130:	6811      	ldr	r1, [r2, #0]
    b132:	78ba      	ldrb	r2, [r7, #2]
    b134:	2001      	movs	r0, #1
    b136:	fa00 f202 	lsl.w	r2, r0, r2
    b13a:	430a      	orrs	r2, r1
    b13c:	601a      	str	r2, [r3, #0]
    b13e:	bf00      	nop
    b140:	370c      	adds	r7, #12
    b142:	46bd      	mov	sp, r7
    b144:	bc80      	pop	{r7}
    b146:	4770      	bx	lr

0000b148 <Chip_GPIO_SetPinDIRInput>:
    b148:	b480      	push	{r7}
    b14a:	b083      	sub	sp, #12
    b14c:	af00      	add	r7, sp, #0
    b14e:	6078      	str	r0, [r7, #4]
    b150:	460b      	mov	r3, r1
    b152:	70fb      	strb	r3, [r7, #3]
    b154:	4613      	mov	r3, r2
    b156:	70bb      	strb	r3, [r7, #2]
    b158:	78fb      	ldrb	r3, [r7, #3]
    b15a:	015b      	lsls	r3, r3, #5
    b15c:	687a      	ldr	r2, [r7, #4]
    b15e:	4413      	add	r3, r2
    b160:	78fa      	ldrb	r2, [r7, #3]
    b162:	0152      	lsls	r2, r2, #5
    b164:	6879      	ldr	r1, [r7, #4]
    b166:	440a      	add	r2, r1
    b168:	6811      	ldr	r1, [r2, #0]
    b16a:	78ba      	ldrb	r2, [r7, #2]
    b16c:	2001      	movs	r0, #1
    b16e:	fa00 f202 	lsl.w	r2, r0, r2
    b172:	43d2      	mvns	r2, r2
    b174:	400a      	ands	r2, r1
    b176:	601a      	str	r2, [r3, #0]
    b178:	bf00      	nop
    b17a:	370c      	adds	r7, #12
    b17c:	46bd      	mov	sp, r7
    b17e:	bc80      	pop	{r7}
    b180:	4770      	bx	lr
    b182:	bf00      	nop

0000b184 <Chip_GPIO_SetPinDIR>:
    b184:	b580      	push	{r7, lr}
    b186:	b082      	sub	sp, #8
    b188:	af00      	add	r7, sp, #0
    b18a:	6078      	str	r0, [r7, #4]
    b18c:	4608      	mov	r0, r1
    b18e:	4611      	mov	r1, r2
    b190:	461a      	mov	r2, r3
    b192:	4603      	mov	r3, r0
    b194:	70fb      	strb	r3, [r7, #3]
    b196:	460b      	mov	r3, r1
    b198:	70bb      	strb	r3, [r7, #2]
    b19a:	4613      	mov	r3, r2
    b19c:	707b      	strb	r3, [r7, #1]
    b19e:	787b      	ldrb	r3, [r7, #1]
    b1a0:	2b00      	cmp	r3, #0
    b1a2:	d006      	beq.n	b1b2 <Chip_GPIO_SetPinDIR+0x2e>
    b1a4:	78ba      	ldrb	r2, [r7, #2]
    b1a6:	78fb      	ldrb	r3, [r7, #3]
    b1a8:	4619      	mov	r1, r3
    b1aa:	6878      	ldr	r0, [r7, #4]
    b1ac:	f7ff ffb0 	bl	b110 <Chip_GPIO_SetPinDIROutput>
    b1b0:	e005      	b.n	b1be <Chip_GPIO_SetPinDIR+0x3a>
    b1b2:	78ba      	ldrb	r2, [r7, #2]
    b1b4:	78fb      	ldrb	r3, [r7, #3]
    b1b6:	4619      	mov	r1, r3
    b1b8:	6878      	ldr	r0, [r7, #4]
    b1ba:	f7ff ffc5 	bl	b148 <Chip_GPIO_SetPinDIRInput>
    b1be:	bf00      	nop
    b1c0:	3708      	adds	r7, #8
    b1c2:	46bd      	mov	sp, r7
    b1c4:	bd80      	pop	{r7, pc}
    b1c6:	bf00      	nop

0000b1c8 <vMyBrakeTaskStart>:
    b1c8:	b5f0      	push	{r4, r5, r6, r7, lr}
    b1ca:	b085      	sub	sp, #20
    b1cc:	af04      	add	r7, sp, #16
    b1ce:	4b0e      	ldr	r3, [pc, #56]	; (b208 <vMyBrakeTaskStart+0x40>)
    b1d0:	6818      	ldr	r0, [r3, #0]
    b1d2:	4b0d      	ldr	r3, [pc, #52]	; (b208 <vMyBrakeTaskStart+0x40>)
    b1d4:	685c      	ldr	r4, [r3, #4]
    b1d6:	4b0c      	ldr	r3, [pc, #48]	; (b208 <vMyBrakeTaskStart+0x40>)
    b1d8:	891b      	ldrh	r3, [r3, #8]
    b1da:	b29d      	uxth	r5, r3
    b1dc:	4b0a      	ldr	r3, [pc, #40]	; (b208 <vMyBrakeTaskStart+0x40>)
    b1de:	68de      	ldr	r6, [r3, #12]
    b1e0:	4b09      	ldr	r3, [pc, #36]	; (b208 <vMyBrakeTaskStart+0x40>)
    b1e2:	691b      	ldr	r3, [r3, #16]
    b1e4:	4a08      	ldr	r2, [pc, #32]	; (b208 <vMyBrakeTaskStart+0x40>)
    b1e6:	6952      	ldr	r2, [r2, #20]
    b1e8:	4908      	ldr	r1, [pc, #32]	; (b20c <vMyBrakeTaskStart+0x44>)
    b1ea:	9103      	str	r1, [sp, #12]
    b1ec:	9202      	str	r2, [sp, #8]
    b1ee:	2200      	movs	r2, #0
    b1f0:	9201      	str	r2, [sp, #4]
    b1f2:	9300      	str	r3, [sp, #0]
    b1f4:	4633      	mov	r3, r6
    b1f6:	462a      	mov	r2, r5
    b1f8:	4621      	mov	r1, r4
    b1fa:	f7fc fe33 	bl	7e64 <MPU_xTaskGenericCreate>
    b1fe:	bf00      	nop
    b200:	3704      	adds	r7, #4
    b202:	46bd      	mov	sp, r7
    b204:	bdf0      	pop	{r4, r5, r6, r7, pc}
    b206:	bf00      	nop
    b208:	10004c98 	.word	0x10004c98
    b20c:	10004cb0 	.word	0x10004cb0

0000b210 <prvMyBrakeTask>:
    b210:	b580      	push	{r7, lr}
    b212:	b084      	sub	sp, #16
    b214:	af00      	add	r7, sp, #0
    b216:	6078      	str	r0, [r7, #4]
    b218:	2300      	movs	r3, #0
    b21a:	220c      	movs	r2, #12
    b21c:	2102      	movs	r1, #2
    b21e:	4811      	ldr	r0, [pc, #68]	; (b264 <prvMyBrakeTask+0x54>)
    b220:	f7ff ffb0 	bl	b184 <Chip_GPIO_SetPinDIR>
    b224:	4b10      	ldr	r3, [pc, #64]	; (b268 <prvMyBrakeTask+0x58>)
    b226:	681b      	ldr	r3, [r3, #0]
    b228:	60fb      	str	r3, [r7, #12]
    b22a:	f3ef 8014 	mrs	r0, CONTROL
    b22e:	f040 0001 	orr.w	r0, r0, #1
    b232:	f380 8814 	msr	CONTROL, r0
    b236:	220c      	movs	r2, #12
    b238:	2102      	movs	r1, #2
    b23a:	480a      	ldr	r0, [pc, #40]	; (b264 <prvMyBrakeTask+0x54>)
    b23c:	f7ff ff54 	bl	b0e8 <Chip_GPIO_ReadPortBit>
    b240:	4603      	mov	r3, r0
    b242:	72fb      	strb	r3, [r7, #11]
    b244:	2342      	movs	r3, #66	; 0x42
    b246:	723b      	strb	r3, [r7, #8]
    b248:	7afb      	ldrb	r3, [r7, #11]
    b24a:	727b      	strb	r3, [r7, #9]
    b24c:	f107 0108 	add.w	r1, r7, #8
    b250:	2300      	movs	r3, #0
    b252:	220a      	movs	r2, #10
    b254:	68f8      	ldr	r0, [r7, #12]
    b256:	f7fc fe99 	bl	7f8c <MPU_xQueueGenericSend>
    b25a:	2019      	movs	r0, #25
    b25c:	f7fc fe2a 	bl	7eb4 <MPU_vTaskDelay>
    b260:	e7e9      	b.n	b236 <prvMyBrakeTask+0x26>
    b262:	bf00      	nop
    b264:	2009c000 	.word	0x2009c000
    b268:	10004c10 	.word	0x10004c10

0000b26c <Chip_GPIO_GetPinState>:
    b26c:	b480      	push	{r7}
    b26e:	b083      	sub	sp, #12
    b270:	af00      	add	r7, sp, #0
    b272:	6078      	str	r0, [r7, #4]
    b274:	460b      	mov	r3, r1
    b276:	70fb      	strb	r3, [r7, #3]
    b278:	4613      	mov	r3, r2
    b27a:	70bb      	strb	r3, [r7, #2]
    b27c:	78fb      	ldrb	r3, [r7, #3]
    b27e:	015b      	lsls	r3, r3, #5
    b280:	687a      	ldr	r2, [r7, #4]
    b282:	4413      	add	r3, r2
    b284:	695a      	ldr	r2, [r3, #20]
    b286:	78bb      	ldrb	r3, [r7, #2]
    b288:	fa22 f303 	lsr.w	r3, r2, r3
    b28c:	f003 0301 	and.w	r3, r3, #1
    b290:	2b00      	cmp	r3, #0
    b292:	bf14      	ite	ne
    b294:	2301      	movne	r3, #1
    b296:	2300      	moveq	r3, #0
    b298:	b2db      	uxtb	r3, r3
    b29a:	4618      	mov	r0, r3
    b29c:	370c      	adds	r7, #12
    b29e:	46bd      	mov	sp, r7
    b2a0:	bc80      	pop	{r7}
    b2a2:	4770      	bx	lr

0000b2a4 <Chip_GPIO_ReadPortBit>:
    b2a4:	b580      	push	{r7, lr}
    b2a6:	b084      	sub	sp, #16
    b2a8:	af00      	add	r7, sp, #0
    b2aa:	60f8      	str	r0, [r7, #12]
    b2ac:	60b9      	str	r1, [r7, #8]
    b2ae:	4613      	mov	r3, r2
    b2b0:	71fb      	strb	r3, [r7, #7]
    b2b2:	68bb      	ldr	r3, [r7, #8]
    b2b4:	b2db      	uxtb	r3, r3
    b2b6:	79fa      	ldrb	r2, [r7, #7]
    b2b8:	4619      	mov	r1, r3
    b2ba:	68f8      	ldr	r0, [r7, #12]
    b2bc:	f7ff ffd6 	bl	b26c <Chip_GPIO_GetPinState>
    b2c0:	4603      	mov	r3, r0
    b2c2:	4618      	mov	r0, r3
    b2c4:	3710      	adds	r7, #16
    b2c6:	46bd      	mov	sp, r7
    b2c8:	bd80      	pop	{r7, pc}
    b2ca:	bf00      	nop

0000b2cc <Chip_GPIO_SetPinDIROutput>:
    b2cc:	b480      	push	{r7}
    b2ce:	b083      	sub	sp, #12
    b2d0:	af00      	add	r7, sp, #0
    b2d2:	6078      	str	r0, [r7, #4]
    b2d4:	460b      	mov	r3, r1
    b2d6:	70fb      	strb	r3, [r7, #3]
    b2d8:	4613      	mov	r3, r2
    b2da:	70bb      	strb	r3, [r7, #2]
    b2dc:	78fb      	ldrb	r3, [r7, #3]
    b2de:	015b      	lsls	r3, r3, #5
    b2e0:	687a      	ldr	r2, [r7, #4]
    b2e2:	4413      	add	r3, r2
    b2e4:	78fa      	ldrb	r2, [r7, #3]
    b2e6:	0152      	lsls	r2, r2, #5
    b2e8:	6879      	ldr	r1, [r7, #4]
    b2ea:	440a      	add	r2, r1
    b2ec:	6811      	ldr	r1, [r2, #0]
    b2ee:	78ba      	ldrb	r2, [r7, #2]
    b2f0:	2001      	movs	r0, #1
    b2f2:	fa00 f202 	lsl.w	r2, r0, r2
    b2f6:	430a      	orrs	r2, r1
    b2f8:	601a      	str	r2, [r3, #0]
    b2fa:	bf00      	nop
    b2fc:	370c      	adds	r7, #12
    b2fe:	46bd      	mov	sp, r7
    b300:	bc80      	pop	{r7}
    b302:	4770      	bx	lr

0000b304 <Chip_GPIO_SetPinDIRInput>:
    b304:	b480      	push	{r7}
    b306:	b083      	sub	sp, #12
    b308:	af00      	add	r7, sp, #0
    b30a:	6078      	str	r0, [r7, #4]
    b30c:	460b      	mov	r3, r1
    b30e:	70fb      	strb	r3, [r7, #3]
    b310:	4613      	mov	r3, r2
    b312:	70bb      	strb	r3, [r7, #2]
    b314:	78fb      	ldrb	r3, [r7, #3]
    b316:	015b      	lsls	r3, r3, #5
    b318:	687a      	ldr	r2, [r7, #4]
    b31a:	4413      	add	r3, r2
    b31c:	78fa      	ldrb	r2, [r7, #3]
    b31e:	0152      	lsls	r2, r2, #5
    b320:	6879      	ldr	r1, [r7, #4]
    b322:	440a      	add	r2, r1
    b324:	6811      	ldr	r1, [r2, #0]
    b326:	78ba      	ldrb	r2, [r7, #2]
    b328:	2001      	movs	r0, #1
    b32a:	fa00 f202 	lsl.w	r2, r0, r2
    b32e:	43d2      	mvns	r2, r2
    b330:	400a      	ands	r2, r1
    b332:	601a      	str	r2, [r3, #0]
    b334:	bf00      	nop
    b336:	370c      	adds	r7, #12
    b338:	46bd      	mov	sp, r7
    b33a:	bc80      	pop	{r7}
    b33c:	4770      	bx	lr
    b33e:	bf00      	nop

0000b340 <Chip_GPIO_SetPinDIR>:
    b340:	b580      	push	{r7, lr}
    b342:	b082      	sub	sp, #8
    b344:	af00      	add	r7, sp, #0
    b346:	6078      	str	r0, [r7, #4]
    b348:	4608      	mov	r0, r1
    b34a:	4611      	mov	r1, r2
    b34c:	461a      	mov	r2, r3
    b34e:	4603      	mov	r3, r0
    b350:	70fb      	strb	r3, [r7, #3]
    b352:	460b      	mov	r3, r1
    b354:	70bb      	strb	r3, [r7, #2]
    b356:	4613      	mov	r3, r2
    b358:	707b      	strb	r3, [r7, #1]
    b35a:	787b      	ldrb	r3, [r7, #1]
    b35c:	2b00      	cmp	r3, #0
    b35e:	d006      	beq.n	b36e <Chip_GPIO_SetPinDIR+0x2e>
    b360:	78ba      	ldrb	r2, [r7, #2]
    b362:	78fb      	ldrb	r3, [r7, #3]
    b364:	4619      	mov	r1, r3
    b366:	6878      	ldr	r0, [r7, #4]
    b368:	f7ff ffb0 	bl	b2cc <Chip_GPIO_SetPinDIROutput>
    b36c:	e005      	b.n	b37a <Chip_GPIO_SetPinDIR+0x3a>
    b36e:	78ba      	ldrb	r2, [r7, #2]
    b370:	78fb      	ldrb	r3, [r7, #3]
    b372:	4619      	mov	r1, r3
    b374:	6878      	ldr	r0, [r7, #4]
    b376:	f7ff ffc5 	bl	b304 <Chip_GPIO_SetPinDIRInput>
    b37a:	bf00      	nop
    b37c:	3708      	adds	r7, #8
    b37e:	46bd      	mov	sp, r7
    b380:	bd80      	pop	{r7, pc}
    b382:	bf00      	nop

0000b384 <vMyAccelerationTaskStart>:
    b384:	b5f0      	push	{r4, r5, r6, r7, lr}
    b386:	b085      	sub	sp, #20
    b388:	af04      	add	r7, sp, #16
    b38a:	4b0e      	ldr	r3, [pc, #56]	; (b3c4 <vMyAccelerationTaskStart+0x40>)
    b38c:	6818      	ldr	r0, [r3, #0]
    b38e:	4b0d      	ldr	r3, [pc, #52]	; (b3c4 <vMyAccelerationTaskStart+0x40>)
    b390:	685c      	ldr	r4, [r3, #4]
    b392:	4b0c      	ldr	r3, [pc, #48]	; (b3c4 <vMyAccelerationTaskStart+0x40>)
    b394:	891b      	ldrh	r3, [r3, #8]
    b396:	b29d      	uxth	r5, r3
    b398:	4b0a      	ldr	r3, [pc, #40]	; (b3c4 <vMyAccelerationTaskStart+0x40>)
    b39a:	68de      	ldr	r6, [r3, #12]
    b39c:	4b09      	ldr	r3, [pc, #36]	; (b3c4 <vMyAccelerationTaskStart+0x40>)
    b39e:	691b      	ldr	r3, [r3, #16]
    b3a0:	4a08      	ldr	r2, [pc, #32]	; (b3c4 <vMyAccelerationTaskStart+0x40>)
    b3a2:	6952      	ldr	r2, [r2, #20]
    b3a4:	4908      	ldr	r1, [pc, #32]	; (b3c8 <vMyAccelerationTaskStart+0x44>)
    b3a6:	9103      	str	r1, [sp, #12]
    b3a8:	9202      	str	r2, [sp, #8]
    b3aa:	2200      	movs	r2, #0
    b3ac:	9201      	str	r2, [sp, #4]
    b3ae:	9300      	str	r3, [sp, #0]
    b3b0:	4633      	mov	r3, r6
    b3b2:	462a      	mov	r2, r5
    b3b4:	4621      	mov	r1, r4
    b3b6:	f7fc fd55 	bl	7e64 <MPU_xTaskGenericCreate>
    b3ba:	bf00      	nop
    b3bc:	3704      	adds	r7, #4
    b3be:	46bd      	mov	sp, r7
    b3c0:	bdf0      	pop	{r4, r5, r6, r7, pc}
    b3c2:	bf00      	nop
    b3c4:	10004cd4 	.word	0x10004cd4
    b3c8:	10004cec 	.word	0x10004cec

0000b3cc <prvMyAccelerationTask>:
    b3cc:	b580      	push	{r7, lr}
    b3ce:	b084      	sub	sp, #16
    b3d0:	af00      	add	r7, sp, #0
    b3d2:	6078      	str	r0, [r7, #4]
    b3d4:	2300      	movs	r3, #0
    b3d6:	2204      	movs	r2, #4
    b3d8:	2100      	movs	r1, #0
    b3da:	4811      	ldr	r0, [pc, #68]	; (b420 <prvMyAccelerationTask+0x54>)
    b3dc:	f7ff ffb0 	bl	b340 <Chip_GPIO_SetPinDIR>
    b3e0:	4b10      	ldr	r3, [pc, #64]	; (b424 <prvMyAccelerationTask+0x58>)
    b3e2:	681b      	ldr	r3, [r3, #0]
    b3e4:	60fb      	str	r3, [r7, #12]
    b3e6:	f3ef 8014 	mrs	r0, CONTROL
    b3ea:	f040 0001 	orr.w	r0, r0, #1
    b3ee:	f380 8814 	msr	CONTROL, r0
    b3f2:	2204      	movs	r2, #4
    b3f4:	2100      	movs	r1, #0
    b3f6:	480a      	ldr	r0, [pc, #40]	; (b420 <prvMyAccelerationTask+0x54>)
    b3f8:	f7ff ff54 	bl	b2a4 <Chip_GPIO_ReadPortBit>
    b3fc:	4603      	mov	r3, r0
    b3fe:	72fb      	strb	r3, [r7, #11]
    b400:	2341      	movs	r3, #65	; 0x41
    b402:	723b      	strb	r3, [r7, #8]
    b404:	7afb      	ldrb	r3, [r7, #11]
    b406:	727b      	strb	r3, [r7, #9]
    b408:	f107 0108 	add.w	r1, r7, #8
    b40c:	2300      	movs	r3, #0
    b40e:	220a      	movs	r2, #10
    b410:	68f8      	ldr	r0, [r7, #12]
    b412:	f7fc fdbb 	bl	7f8c <MPU_xQueueGenericSend>
    b416:	2019      	movs	r0, #25
    b418:	f7fc fd4c 	bl	7eb4 <MPU_vTaskDelay>
    b41c:	e7e9      	b.n	b3f2 <prvMyAccelerationTask+0x26>
    b41e:	bf00      	nop
    b420:	2009c000 	.word	0x2009c000
    b424:	10004c10 	.word	0x10004c10

0000b428 <vMyDisplayStart>:
    b428:	b5f0      	push	{r4, r5, r6, r7, lr}
    b42a:	b085      	sub	sp, #20
    b42c:	af04      	add	r7, sp, #16
    b42e:	f000 fdef 	bl	c010 <Board_LCD_Init>
    b432:	4b0e      	ldr	r3, [pc, #56]	; (b46c <vMyDisplayStart+0x44>)
    b434:	6818      	ldr	r0, [r3, #0]
    b436:	4b0d      	ldr	r3, [pc, #52]	; (b46c <vMyDisplayStart+0x44>)
    b438:	685c      	ldr	r4, [r3, #4]
    b43a:	4b0c      	ldr	r3, [pc, #48]	; (b46c <vMyDisplayStart+0x44>)
    b43c:	891b      	ldrh	r3, [r3, #8]
    b43e:	b29d      	uxth	r5, r3
    b440:	4b0a      	ldr	r3, [pc, #40]	; (b46c <vMyDisplayStart+0x44>)
    b442:	68de      	ldr	r6, [r3, #12]
    b444:	4b09      	ldr	r3, [pc, #36]	; (b46c <vMyDisplayStart+0x44>)
    b446:	691b      	ldr	r3, [r3, #16]
    b448:	4a08      	ldr	r2, [pc, #32]	; (b46c <vMyDisplayStart+0x44>)
    b44a:	6952      	ldr	r2, [r2, #20]
    b44c:	4908      	ldr	r1, [pc, #32]	; (b470 <vMyDisplayStart+0x48>)
    b44e:	9103      	str	r1, [sp, #12]
    b450:	9202      	str	r2, [sp, #8]
    b452:	4a08      	ldr	r2, [pc, #32]	; (b474 <vMyDisplayStart+0x4c>)
    b454:	9201      	str	r2, [sp, #4]
    b456:	9300      	str	r3, [sp, #0]
    b458:	4633      	mov	r3, r6
    b45a:	462a      	mov	r2, r5
    b45c:	4621      	mov	r1, r4
    b45e:	f7fc fd01 	bl	7e64 <MPU_xTaskGenericCreate>
    b462:	bf00      	nop
    b464:	3704      	adds	r7, #4
    b466:	46bd      	mov	sp, r7
    b468:	bdf0      	pop	{r4, r5, r6, r7, pc}
    b46a:	bf00      	nop
    b46c:	10004d10 	.word	0x10004d10
    b470:	10004d28 	.word	0x10004d28
    b474:	10004a00 	.word	0x10004a00

0000b478 <prvMyDisplayTask>:
    b478:	b580      	push	{r7, lr}
    b47a:	b084      	sub	sp, #16
    b47c:	af00      	add	r7, sp, #0
    b47e:	6078      	str	r0, [r7, #4]
    b480:	4b25      	ldr	r3, [pc, #148]	; (b518 <prvMyDisplayTask+0xa0>)
    b482:	681b      	ldr	r3, [r3, #0]
    b484:	60fb      	str	r3, [r7, #12]
    b486:	f3ef 8014 	mrs	r0, CONTROL
    b48a:	f040 0001 	orr.w	r0, r0, #1
    b48e:	f380 8814 	msr	CONTROL, r0
    b492:	2081      	movs	r0, #129	; 0x81
    b494:	f000 fd24 	bl	bee0 <Board_Lcd_Cmd_Write>
    b498:	4820      	ldr	r0, [pc, #128]	; (b51c <prvMyDisplayTask+0xa4>)
    b49a:	f000 fd61 	bl	bf60 <Board_LCD_Write_String>
    b49e:	20c0      	movs	r0, #192	; 0xc0
    b4a0:	f000 fd1e 	bl	bee0 <Board_Lcd_Cmd_Write>
    b4a4:	481e      	ldr	r0, [pc, #120]	; (b520 <prvMyDisplayTask+0xa8>)
    b4a6:	f000 fd5b 	bl	bf60 <Board_LCD_Write_String>
    b4aa:	20ca      	movs	r0, #202	; 0xca
    b4ac:	f000 fd18 	bl	bee0 <Board_Lcd_Cmd_Write>
    b4b0:	481c      	ldr	r0, [pc, #112]	; (b524 <prvMyDisplayTask+0xac>)
    b4b2:	f000 fd55 	bl	bf60 <Board_LCD_Write_String>
    b4b6:	f107 0108 	add.w	r1, r7, #8
    b4ba:	2300      	movs	r3, #0
    b4bc:	2205      	movs	r2, #5
    b4be:	68f8      	ldr	r0, [r7, #12]
    b4c0:	f7fc fd9e 	bl	8000 <MPU_xQueueGenericReceive>
    b4c4:	4603      	mov	r3, r0
    b4c6:	2b01      	cmp	r3, #1
    b4c8:	d1f5      	bne.n	b4b6 <prvMyDisplayTask+0x3e>
    b4ca:	7a3b      	ldrb	r3, [r7, #8]
    b4cc:	2b41      	cmp	r3, #65	; 0x41
    b4ce:	d10f      	bne.n	b4f0 <prvMyDisplayTask+0x78>
    b4d0:	7a7b      	ldrb	r3, [r7, #9]
    b4d2:	2b00      	cmp	r3, #0
    b4d4:	d006      	beq.n	b4e4 <prvMyDisplayTask+0x6c>
    b4d6:	20c5      	movs	r0, #197	; 0xc5
    b4d8:	f000 fd02 	bl	bee0 <Board_Lcd_Cmd_Write>
    b4dc:	4812      	ldr	r0, [pc, #72]	; (b528 <prvMyDisplayTask+0xb0>)
    b4de:	f000 fd3f 	bl	bf60 <Board_LCD_Write_String>
    b4e2:	e005      	b.n	b4f0 <prvMyDisplayTask+0x78>
    b4e4:	20c5      	movs	r0, #197	; 0xc5
    b4e6:	f000 fcfb 	bl	bee0 <Board_Lcd_Cmd_Write>
    b4ea:	4810      	ldr	r0, [pc, #64]	; (b52c <prvMyDisplayTask+0xb4>)
    b4ec:	f000 fd38 	bl	bf60 <Board_LCD_Write_String>
    b4f0:	7a3b      	ldrb	r3, [r7, #8]
    b4f2:	2b42      	cmp	r3, #66	; 0x42
    b4f4:	d1df      	bne.n	b4b6 <prvMyDisplayTask+0x3e>
    b4f6:	7a7b      	ldrb	r3, [r7, #9]
    b4f8:	2b00      	cmp	r3, #0
    b4fa:	d006      	beq.n	b50a <prvMyDisplayTask+0x92>
    b4fc:	20cd      	movs	r0, #205	; 0xcd
    b4fe:	f000 fcef 	bl	bee0 <Board_Lcd_Cmd_Write>
    b502:	4809      	ldr	r0, [pc, #36]	; (b528 <prvMyDisplayTask+0xb0>)
    b504:	f000 fd2c 	bl	bf60 <Board_LCD_Write_String>
    b508:	e7d5      	b.n	b4b6 <prvMyDisplayTask+0x3e>
    b50a:	20cd      	movs	r0, #205	; 0xcd
    b50c:	f000 fce8 	bl	bee0 <Board_Lcd_Cmd_Write>
    b510:	4806      	ldr	r0, [pc, #24]	; (b52c <prvMyDisplayTask+0xb4>)
    b512:	f000 fd25 	bl	bf60 <Board_LCD_Write_String>
    b516:	e7ce      	b.n	b4b6 <prvMyDisplayTask+0x3e>
    b518:	10004c0c 	.word	0x10004c0c
    b51c:	0000e6f0 	.word	0x0000e6f0
    b520:	0000e700 	.word	0x0000e700
    b524:	0000e708 	.word	0x0000e708
    b528:	0000e70c 	.word	0x0000e70c
    b52c:	0000e710 	.word	0x0000e710

0000b530 <ResetISR>:
    b530:	b580      	push	{r7, lr}
    b532:	b082      	sub	sp, #8
    b534:	af00      	add	r7, sp, #0
    b536:	4b0f      	ldr	r3, [pc, #60]	; (b574 <zero_loop+0x14>)
    b538:	607b      	str	r3, [r7, #4]
    b53a:	4b0f      	ldr	r3, [pc, #60]	; (b578 <zero_loop+0x18>)
    b53c:	603b      	str	r3, [r7, #0]
    b53e:	e007      	b.n	b550 <ResetISR+0x20>
    b540:	683b      	ldr	r3, [r7, #0]
    b542:	1d1a      	adds	r2, r3, #4
    b544:	603a      	str	r2, [r7, #0]
    b546:	687a      	ldr	r2, [r7, #4]
    b548:	1d11      	adds	r1, r2, #4
    b54a:	6079      	str	r1, [r7, #4]
    b54c:	6812      	ldr	r2, [r2, #0]
    b54e:	601a      	str	r2, [r3, #0]
    b550:	683b      	ldr	r3, [r7, #0]
    b552:	4a0a      	ldr	r2, [pc, #40]	; (b57c <zero_loop+0x1c>)
    b554:	4293      	cmp	r3, r2
    b556:	d3f3      	bcc.n	b540 <ResetISR+0x10>
    b558:	4809      	ldr	r0, [pc, #36]	; (b580 <zero_loop+0x20>)
    b55a:	490a      	ldr	r1, [pc, #40]	; (b584 <zero_loop+0x24>)
    b55c:	f04f 0200 	mov.w	r2, #0

0000b560 <zero_loop>:
    b560:	4288      	cmp	r0, r1
    b562:	bfb8      	it	lt
    b564:	f840 2b04 	strlt.w	r2, [r0], #4
    b568:	dbfa      	blt.n	b560 <zero_loop>
    b56a:	f000 fac5 	bl	baf8 <SystemInit>
    b56e:	f002 fbc7 	bl	dd00 <__main>
    b572:	e7fe      	b.n	b572 <zero_loop+0x12>
    b574:	0000e908 	.word	0x0000e908
    b578:	10004c18 	.word	0x10004c18
    b57c:	10004da0 	.word	0x10004da0
    b580:	10000000 	.word	0x10000000
    b584:	10004c18 	.word	0x10004c18

0000b588 <NVIC_SetPriorityGrouping>:
    b588:	b480      	push	{r7}
    b58a:	b085      	sub	sp, #20
    b58c:	af00      	add	r7, sp, #0
    b58e:	6078      	str	r0, [r7, #4]
    b590:	687b      	ldr	r3, [r7, #4]
    b592:	f003 0307 	and.w	r3, r3, #7
    b596:	60fb      	str	r3, [r7, #12]
    b598:	4b0c      	ldr	r3, [pc, #48]	; (b5cc <NVIC_SetPriorityGrouping+0x44>)
    b59a:	68db      	ldr	r3, [r3, #12]
    b59c:	60bb      	str	r3, [r7, #8]
    b59e:	68ba      	ldr	r2, [r7, #8]
    b5a0:	f64f 03ff 	movw	r3, #63743	; 0xf8ff
    b5a4:	4013      	ands	r3, r2
    b5a6:	60bb      	str	r3, [r7, #8]
    b5a8:	68fb      	ldr	r3, [r7, #12]
    b5aa:	021a      	lsls	r2, r3, #8
    b5ac:	68bb      	ldr	r3, [r7, #8]
    b5ae:	4313      	orrs	r3, r2
    b5b0:	f043 63bf 	orr.w	r3, r3, #100139008	; 0x5f80000
    b5b4:	f443 3300 	orr.w	r3, r3, #131072	; 0x20000
    b5b8:	60bb      	str	r3, [r7, #8]
    b5ba:	4a04      	ldr	r2, [pc, #16]	; (b5cc <NVIC_SetPriorityGrouping+0x44>)
    b5bc:	68bb      	ldr	r3, [r7, #8]
    b5be:	60d3      	str	r3, [r2, #12]
    b5c0:	bf00      	nop
    b5c2:	3714      	adds	r7, #20
    b5c4:	46bd      	mov	sp, r7
    b5c6:	bc80      	pop	{r7}
    b5c8:	4770      	bx	lr
    b5ca:	bf00      	nop
    b5cc:	e000ed00 	.word	0xe000ed00

0000b5d0 <NVIC_SetPriority>:
    b5d0:	b480      	push	{r7}
    b5d2:	b083      	sub	sp, #12
    b5d4:	af00      	add	r7, sp, #0
    b5d6:	4603      	mov	r3, r0
    b5d8:	6039      	str	r1, [r7, #0]
    b5da:	71fb      	strb	r3, [r7, #7]
    b5dc:	f997 3007 	ldrsb.w	r3, [r7, #7]
    b5e0:	2b00      	cmp	r3, #0
    b5e2:	da0b      	bge.n	b5fc <NVIC_SetPriority+0x2c>
    b5e4:	490d      	ldr	r1, [pc, #52]	; (b61c <NVIC_SetPriority+0x4c>)
    b5e6:	79fb      	ldrb	r3, [r7, #7]
    b5e8:	f003 030f 	and.w	r3, r3, #15
    b5ec:	3b04      	subs	r3, #4
    b5ee:	683a      	ldr	r2, [r7, #0]
    b5f0:	b2d2      	uxtb	r2, r2
    b5f2:	00d2      	lsls	r2, r2, #3
    b5f4:	b2d2      	uxtb	r2, r2
    b5f6:	440b      	add	r3, r1
    b5f8:	761a      	strb	r2, [r3, #24]
    b5fa:	e009      	b.n	b610 <NVIC_SetPriority+0x40>
    b5fc:	4908      	ldr	r1, [pc, #32]	; (b620 <NVIC_SetPriority+0x50>)
    b5fe:	f997 3007 	ldrsb.w	r3, [r7, #7]
    b602:	683a      	ldr	r2, [r7, #0]
    b604:	b2d2      	uxtb	r2, r2
    b606:	00d2      	lsls	r2, r2, #3
    b608:	b2d2      	uxtb	r2, r2
    b60a:	440b      	add	r3, r1
    b60c:	f883 2300 	strb.w	r2, [r3, #768]	; 0x300
    b610:	bf00      	nop
    b612:	370c      	adds	r7, #12
    b614:	46bd      	mov	sp, r7
    b616:	bc80      	pop	{r7}
    b618:	4770      	bx	lr
    b61a:	bf00      	nop
    b61c:	e000ed00 	.word	0xe000ed00
    b620:	e000e100 	.word	0xe000e100

0000b624 <main>:
    b624:	b580      	push	{r7, lr}
    b626:	af00      	add	r7, sp, #0
    b628:	2000      	movs	r0, #0
    b62a:	f7ff ffad 	bl	b588 <NVIC_SetPriorityGrouping>
    b62e:	2101      	movs	r1, #1
    b630:	f06f 000b 	mvn.w	r0, #11
    b634:	f7ff ffcc 	bl	b5d0 <NVIC_SetPriority>
    b638:	2101      	movs	r1, #1
    b63a:	f06f 0009 	mvn.w	r0, #9
    b63e:	f7ff ffc7 	bl	b5d0 <NVIC_SetPriority>
    b642:	2101      	movs	r1, #1
    b644:	f06f 000a 	mvn.w	r0, #10
    b648:	f7ff ffc2 	bl	b5d0 <NVIC_SetPriority>
    b64c:	2100      	movs	r1, #0
    b64e:	200a      	movs	r0, #10
    b650:	f7ff ffbe 	bl	b5d0 <NVIC_SetPriority>
    b654:	2200      	movs	r2, #0
    b656:	2102      	movs	r1, #2
    b658:	2003      	movs	r0, #3
    b65a:	f7fc fc5b 	bl	7f14 <MPU_xQueueGenericCreate>
    b65e:	4602      	mov	r2, r0
    b660:	4b0b      	ldr	r3, [pc, #44]	; (b690 <main+0x6c>)
    b662:	601a      	str	r2, [r3, #0]
    b664:	2200      	movs	r2, #0
    b666:	2102      	movs	r1, #2
    b668:	2003      	movs	r0, #3
    b66a:	f7fc fc53 	bl	7f14 <MPU_xQueueGenericCreate>
    b66e:	4602      	mov	r2, r0
    b670:	4b08      	ldr	r3, [pc, #32]	; (b694 <main+0x70>)
    b672:	601a      	str	r2, [r3, #0]
    b674:	f7ff fc90 	bl	af98 <vMyControlTaskStart>
    b678:	f7ff fda6 	bl	b1c8 <vMyBrakeTaskStart>
    b67c:	f7ff fed4 	bl	b428 <vMyDisplayStart>
    b680:	f7ff fe80 	bl	b384 <vMyAccelerationTaskStart>
    b684:	f7fc fa88 	bl	7b98 <vMyInfotainmentTaskStart>
    b688:	f7f6 fa78 	bl	1b7c <vTaskStartScheduler>
    b68c:	e7fe      	b.n	b68c <main+0x68>
    b68e:	bf00      	nop
    b690:	10004c10 	.word	0x10004c10
    b694:	10004c0c 	.word	0x10004c0c

0000b698 <vMainConfigureTimerForRunTimeStats>:
    b698:	b480      	push	{r7}
    b69a:	af00      	add	r7, sp, #0
    b69c:	4b03      	ldr	r3, [pc, #12]	; (b6ac <vMainConfigureTimerForRunTimeStats+0x14>)
    b69e:	f242 7210 	movw	r2, #10000	; 0x2710
    b6a2:	601a      	str	r2, [r3, #0]
    b6a4:	bf00      	nop
    b6a6:	46bd      	mov	sp, r7
    b6a8:	bc80      	pop	{r7}
    b6aa:	4770      	bx	lr
    b6ac:	10004a04 	.word	0x10004a04

0000b6b0 <ulMainGetRunTimeCounterValue>:
    b6b0:	b580      	push	{r7, lr}
    b6b2:	b088      	sub	sp, #32
    b6b4:	af00      	add	r7, sp, #0
    b6b6:	4b19      	ldr	r3, [pc, #100]	; (b71c <ulMainGetRunTimeCounterValue+0x6c>)
    b6b8:	617b      	str	r3, [r7, #20]
    b6ba:	4b19      	ldr	r3, [pc, #100]	; (b720 <ulMainGetRunTimeCounterValue+0x70>)
    b6bc:	613b      	str	r3, [r7, #16]
    b6be:	4b19      	ldr	r3, [pc, #100]	; (b724 <ulMainGetRunTimeCounterValue+0x74>)
    b6c0:	60fb      	str	r3, [r7, #12]
    b6c2:	f04f 6380 	mov.w	r3, #67108864	; 0x4000000
    b6c6:	60bb      	str	r3, [r7, #8]
    b6c8:	693b      	ldr	r3, [r7, #16]
    b6ca:	681b      	ldr	r3, [r3, #0]
    b6cc:	697a      	ldr	r2, [r7, #20]
    b6ce:	1ad3      	subs	r3, r2, r3
    b6d0:	61fb      	str	r3, [r7, #28]
    b6d2:	f7f6 fb51 	bl	1d78 <xTaskGetTickCountFromISR>
    b6d6:	61b8      	str	r0, [r7, #24]
    b6d8:	68fb      	ldr	r3, [r7, #12]
    b6da:	681a      	ldr	r2, [r3, #0]
    b6dc:	68bb      	ldr	r3, [r7, #8]
    b6de:	4013      	ands	r3, r2
    b6e0:	2b00      	cmp	r3, #0
    b6e2:	d007      	beq.n	b6f4 <ulMainGetRunTimeCounterValue+0x44>
    b6e4:	69bb      	ldr	r3, [r7, #24]
    b6e6:	3301      	adds	r3, #1
    b6e8:	61bb      	str	r3, [r7, #24]
    b6ea:	693b      	ldr	r3, [r7, #16]
    b6ec:	681b      	ldr	r3, [r3, #0]
    b6ee:	697a      	ldr	r2, [r7, #20]
    b6f0:	1ad3      	subs	r3, r2, r3
    b6f2:	61fb      	str	r3, [r7, #28]
    b6f4:	69ba      	ldr	r2, [r7, #24]
    b6f6:	4613      	mov	r3, r2
    b6f8:	009b      	lsls	r3, r3, #2
    b6fa:	4413      	add	r3, r2
    b6fc:	005b      	lsls	r3, r3, #1
    b6fe:	607b      	str	r3, [r7, #4]
    b700:	4b09      	ldr	r3, [pc, #36]	; (b728 <ulMainGetRunTimeCounterValue+0x78>)
    b702:	681b      	ldr	r3, [r3, #0]
    b704:	69fa      	ldr	r2, [r7, #28]
    b706:	fbb2 f3f3 	udiv	r3, r2, r3
    b70a:	687a      	ldr	r2, [r7, #4]
    b70c:	4413      	add	r3, r2
    b70e:	607b      	str	r3, [r7, #4]
    b710:	687b      	ldr	r3, [r7, #4]
    b712:	4618      	mov	r0, r3
    b714:	3720      	adds	r7, #32
    b716:	46bd      	mov	sp, r7
    b718:	bd80      	pop	{r7, pc}
    b71a:	bf00      	nop
    b71c:	0001869f 	.word	0x0001869f
    b720:	e000e018 	.word	0xe000e018
    b724:	e000ed04 	.word	0xe000ed04
    b728:	10004a04 	.word	0x10004a04

0000b72c <vApplicationStackOverflowHook>:
    b72c:	b480      	push	{r7}
    b72e:	b083      	sub	sp, #12
    b730:	af00      	add	r7, sp, #0
    b732:	6078      	str	r0, [r7, #4]
    b734:	6039      	str	r1, [r7, #0]
    b736:	f04f 0028 	mov.w	r0, #40	; 0x28
    b73a:	f380 8811 	msr	BASEPRI, r0
    b73e:	e7fe      	b.n	b73e <vApplicationStackOverflowHook+0x12>

0000b740 <vApplicationMallocFailedHook>:
    b740:	b480      	push	{r7}
    b742:	af00      	add	r7, sp, #0
    b744:	f04f 0028 	mov.w	r0, #40	; 0x28
    b748:	f380 8811 	msr	BASEPRI, r0
    b74c:	e7fe      	b.n	b74c <vApplicationMallocFailedHook+0xc>
    b74e:	bf00      	nop

0000b750 <printchar>:
    b750:	b480      	push	{r7}
    b752:	b083      	sub	sp, #12
    b754:	af00      	add	r7, sp, #0
    b756:	6078      	str	r0, [r7, #4]
    b758:	6039      	str	r1, [r7, #0]
    b75a:	687b      	ldr	r3, [r7, #4]
    b75c:	2b00      	cmp	r3, #0
    b75e:	d009      	beq.n	b774 <printchar+0x24>
    b760:	687b      	ldr	r3, [r7, #4]
    b762:	681b      	ldr	r3, [r3, #0]
    b764:	683a      	ldr	r2, [r7, #0]
    b766:	b2d2      	uxtb	r2, r2
    b768:	701a      	strb	r2, [r3, #0]
    b76a:	687b      	ldr	r3, [r7, #4]
    b76c:	681b      	ldr	r3, [r3, #0]
    b76e:	1c5a      	adds	r2, r3, #1
    b770:	687b      	ldr	r3, [r7, #4]
    b772:	601a      	str	r2, [r3, #0]
    b774:	bf00      	nop
    b776:	370c      	adds	r7, #12
    b778:	46bd      	mov	sp, r7
    b77a:	bc80      	pop	{r7}
    b77c:	4770      	bx	lr
    b77e:	bf00      	nop

0000b780 <prints>:
    b780:	e92d 41f0 	stmdb	sp!, {r4, r5, r6, r7, r8, lr}
    b784:	b084      	sub	sp, #16
    b786:	af00      	add	r7, sp, #0
    b788:	60f8      	str	r0, [r7, #12]
    b78a:	60b9      	str	r1, [r7, #8]
    b78c:	607a      	str	r2, [r7, #4]
    b78e:	603b      	str	r3, [r7, #0]
    b790:	2400      	movs	r4, #0
    b792:	f04f 0820 	mov.w	r8, #32
    b796:	687b      	ldr	r3, [r7, #4]
    b798:	2b00      	cmp	r3, #0
    b79a:	dd17      	ble.n	b7cc <prints+0x4c>
    b79c:	2500      	movs	r5, #0
    b79e:	68be      	ldr	r6, [r7, #8]
    b7a0:	e001      	b.n	b7a6 <prints+0x26>
    b7a2:	3501      	adds	r5, #1
    b7a4:	3601      	adds	r6, #1
    b7a6:	7833      	ldrb	r3, [r6, #0]
    b7a8:	2b00      	cmp	r3, #0
    b7aa:	d1fa      	bne.n	b7a2 <prints+0x22>
    b7ac:	687b      	ldr	r3, [r7, #4]
    b7ae:	429d      	cmp	r5, r3
    b7b0:	db02      	blt.n	b7b8 <prints+0x38>
    b7b2:	2300      	movs	r3, #0
    b7b4:	607b      	str	r3, [r7, #4]
    b7b6:	e002      	b.n	b7be <prints+0x3e>
    b7b8:	687b      	ldr	r3, [r7, #4]
    b7ba:	1b5b      	subs	r3, r3, r5
    b7bc:	607b      	str	r3, [r7, #4]
    b7be:	683b      	ldr	r3, [r7, #0]
    b7c0:	f003 0302 	and.w	r3, r3, #2
    b7c4:	2b00      	cmp	r3, #0
    b7c6:	d001      	beq.n	b7cc <prints+0x4c>
    b7c8:	f04f 0830 	mov.w	r8, #48	; 0x30
    b7cc:	683b      	ldr	r3, [r7, #0]
    b7ce:	f003 0301 	and.w	r3, r3, #1
    b7d2:	2b00      	cmp	r3, #0
    b7d4:	d116      	bne.n	b804 <prints+0x84>
    b7d6:	e007      	b.n	b7e8 <prints+0x68>
    b7d8:	4641      	mov	r1, r8
    b7da:	68f8      	ldr	r0, [r7, #12]
    b7dc:	f7ff ffb8 	bl	b750 <printchar>
    b7e0:	3401      	adds	r4, #1
    b7e2:	687b      	ldr	r3, [r7, #4]
    b7e4:	3b01      	subs	r3, #1
    b7e6:	607b      	str	r3, [r7, #4]
    b7e8:	687b      	ldr	r3, [r7, #4]
    b7ea:	2b00      	cmp	r3, #0
    b7ec:	dcf4      	bgt.n	b7d8 <prints+0x58>
    b7ee:	e009      	b.n	b804 <prints+0x84>
    b7f0:	68bb      	ldr	r3, [r7, #8]
    b7f2:	781b      	ldrb	r3, [r3, #0]
    b7f4:	4619      	mov	r1, r3
    b7f6:	68f8      	ldr	r0, [r7, #12]
    b7f8:	f7ff ffaa 	bl	b750 <printchar>
    b7fc:	3401      	adds	r4, #1
    b7fe:	68bb      	ldr	r3, [r7, #8]
    b800:	3301      	adds	r3, #1
    b802:	60bb      	str	r3, [r7, #8]
    b804:	68bb      	ldr	r3, [r7, #8]
    b806:	781b      	ldrb	r3, [r3, #0]
    b808:	2b00      	cmp	r3, #0
    b80a:	d1f1      	bne.n	b7f0 <prints+0x70>
    b80c:	e007      	b.n	b81e <prints+0x9e>
    b80e:	4641      	mov	r1, r8
    b810:	68f8      	ldr	r0, [r7, #12]
    b812:	f7ff ff9d 	bl	b750 <printchar>
    b816:	3401      	adds	r4, #1
    b818:	687b      	ldr	r3, [r7, #4]
    b81a:	3b01      	subs	r3, #1
    b81c:	607b      	str	r3, [r7, #4]
    b81e:	687b      	ldr	r3, [r7, #4]
    b820:	2b00      	cmp	r3, #0
    b822:	dcf4      	bgt.n	b80e <prints+0x8e>
    b824:	4623      	mov	r3, r4
    b826:	4618      	mov	r0, r3
    b828:	3710      	adds	r7, #16
    b82a:	46bd      	mov	sp, r7
    b82c:	e8bd 81f0 	ldmia.w	sp!, {r4, r5, r6, r7, r8, pc}

0000b830 <printi>:
    b830:	e92d 43f0 	stmdb	sp!, {r4, r5, r6, r7, r8, r9, lr}
    b834:	b089      	sub	sp, #36	; 0x24
    b836:	af00      	add	r7, sp, #0
    b838:	60f8      	str	r0, [r7, #12]
    b83a:	60b9      	str	r1, [r7, #8]
    b83c:	607a      	str	r2, [r7, #4]
    b83e:	603b      	str	r3, [r7, #0]
    b840:	f04f 0900 	mov.w	r9, #0
    b844:	2600      	movs	r6, #0
    b846:	68bd      	ldr	r5, [r7, #8]
    b848:	68bb      	ldr	r3, [r7, #8]
    b84a:	2b00      	cmp	r3, #0
    b84c:	d10c      	bne.n	b868 <printi+0x38>
    b84e:	2330      	movs	r3, #48	; 0x30
    b850:	753b      	strb	r3, [r7, #20]
    b852:	2300      	movs	r3, #0
    b854:	757b      	strb	r3, [r7, #21]
    b856:	f107 0114 	add.w	r1, r7, #20
    b85a:	6c7b      	ldr	r3, [r7, #68]	; 0x44
    b85c:	6c3a      	ldr	r2, [r7, #64]	; 0x40
    b85e:	68f8      	ldr	r0, [r7, #12]
    b860:	f7ff ff8e 	bl	b780 <prints>
    b864:	4603      	mov	r3, r0
    b866:	e04a      	b.n	b8fe <printi+0xce>
    b868:	683b      	ldr	r3, [r7, #0]
    b86a:	2b00      	cmp	r3, #0
    b86c:	d00a      	beq.n	b884 <printi+0x54>
    b86e:	687b      	ldr	r3, [r7, #4]
    b870:	2b0a      	cmp	r3, #10
    b872:	d107      	bne.n	b884 <printi+0x54>
    b874:	68bb      	ldr	r3, [r7, #8]
    b876:	2b00      	cmp	r3, #0
    b878:	da04      	bge.n	b884 <printi+0x54>
    b87a:	f04f 0901 	mov.w	r9, #1
    b87e:	68bb      	ldr	r3, [r7, #8]
    b880:	425b      	negs	r3, r3
    b882:	461d      	mov	r5, r3
    b884:	f107 0414 	add.w	r4, r7, #20
    b888:	340b      	adds	r4, #11
    b88a:	2300      	movs	r3, #0
    b88c:	7023      	strb	r3, [r4, #0]
    b88e:	e015      	b.n	b8bc <printi+0x8c>
    b890:	687b      	ldr	r3, [r7, #4]
    b892:	fbb5 f2f3 	udiv	r2, r5, r3
    b896:	fb03 f302 	mul.w	r3, r3, r2
    b89a:	1aeb      	subs	r3, r5, r3
    b89c:	4698      	mov	r8, r3
    b89e:	f1b8 0f09 	cmp.w	r8, #9
    b8a2:	dd02      	ble.n	b8aa <printi+0x7a>
    b8a4:	6cbb      	ldr	r3, [r7, #72]	; 0x48
    b8a6:	3b3a      	subs	r3, #58	; 0x3a
    b8a8:	4498      	add	r8, r3
    b8aa:	3c01      	subs	r4, #1
    b8ac:	fa5f f388 	uxtb.w	r3, r8
    b8b0:	3330      	adds	r3, #48	; 0x30
    b8b2:	b2db      	uxtb	r3, r3
    b8b4:	7023      	strb	r3, [r4, #0]
    b8b6:	687b      	ldr	r3, [r7, #4]
    b8b8:	fbb5 f5f3 	udiv	r5, r5, r3
    b8bc:	2d00      	cmp	r5, #0
    b8be:	d1e7      	bne.n	b890 <printi+0x60>
    b8c0:	f1b9 0f00 	cmp.w	r9, #0
    b8c4:	d013      	beq.n	b8ee <printi+0xbe>
    b8c6:	6c3b      	ldr	r3, [r7, #64]	; 0x40
    b8c8:	2b00      	cmp	r3, #0
    b8ca:	d00d      	beq.n	b8e8 <printi+0xb8>
    b8cc:	6c7b      	ldr	r3, [r7, #68]	; 0x44
    b8ce:	f003 0302 	and.w	r3, r3, #2
    b8d2:	2b00      	cmp	r3, #0
    b8d4:	d008      	beq.n	b8e8 <printi+0xb8>
    b8d6:	212d      	movs	r1, #45	; 0x2d
    b8d8:	68f8      	ldr	r0, [r7, #12]
    b8da:	f7ff ff39 	bl	b750 <printchar>
    b8de:	3601      	adds	r6, #1
    b8e0:	6c3b      	ldr	r3, [r7, #64]	; 0x40
    b8e2:	3b01      	subs	r3, #1
    b8e4:	643b      	str	r3, [r7, #64]	; 0x40
    b8e6:	e002      	b.n	b8ee <printi+0xbe>
    b8e8:	3c01      	subs	r4, #1
    b8ea:	232d      	movs	r3, #45	; 0x2d
    b8ec:	7023      	strb	r3, [r4, #0]
    b8ee:	6c7b      	ldr	r3, [r7, #68]	; 0x44
    b8f0:	6c3a      	ldr	r2, [r7, #64]	; 0x40
    b8f2:	4621      	mov	r1, r4
    b8f4:	68f8      	ldr	r0, [r7, #12]
    b8f6:	f7ff ff43 	bl	b780 <prints>
    b8fa:	4603      	mov	r3, r0
    b8fc:	4433      	add	r3, r6
    b8fe:	4618      	mov	r0, r3
    b900:	3724      	adds	r7, #36	; 0x24
    b902:	46bd      	mov	sp, r7
    b904:	e8bd 83f0 	ldmia.w	sp!, {r4, r5, r6, r7, r8, r9, pc}

0000b908 <print>:
    b908:	e92d 41f0 	stmdb	sp!, {r4, r5, r6, r7, r8, lr}
    b90c:	b08a      	sub	sp, #40	; 0x28
    b90e:	af04      	add	r7, sp, #16
    b910:	60f8      	str	r0, [r7, #12]
    b912:	60b9      	str	r1, [r7, #8]
    b914:	607a      	str	r2, [r7, #4]
    b916:	2400      	movs	r4, #0
    b918:	e0c2      	b.n	baa0 <print+0x198>
    b91a:	68bb      	ldr	r3, [r7, #8]
    b91c:	781b      	ldrb	r3, [r3, #0]
    b91e:	2b25      	cmp	r3, #37	; 0x25
    b920:	f040 80b4 	bne.w	ba8c <print+0x184>
    b924:	68bb      	ldr	r3, [r7, #8]
    b926:	3301      	adds	r3, #1
    b928:	60bb      	str	r3, [r7, #8]
    b92a:	2600      	movs	r6, #0
    b92c:	4635      	mov	r5, r6
    b92e:	68bb      	ldr	r3, [r7, #8]
    b930:	781b      	ldrb	r3, [r3, #0]
    b932:	2b00      	cmp	r3, #0
    b934:	f000 80ba 	beq.w	baac <print+0x1a4>
    b938:	68bb      	ldr	r3, [r7, #8]
    b93a:	781b      	ldrb	r3, [r3, #0]
    b93c:	2b25      	cmp	r3, #37	; 0x25
    b93e:	f000 80a4 	beq.w	ba8a <print+0x182>
    b942:	68bb      	ldr	r3, [r7, #8]
    b944:	781b      	ldrb	r3, [r3, #0]
    b946:	2b2d      	cmp	r3, #45	; 0x2d
    b948:	d109      	bne.n	b95e <print+0x56>
    b94a:	68bb      	ldr	r3, [r7, #8]
    b94c:	3301      	adds	r3, #1
    b94e:	60bb      	str	r3, [r7, #8]
    b950:	2601      	movs	r6, #1
    b952:	e004      	b.n	b95e <print+0x56>
    b954:	68bb      	ldr	r3, [r7, #8]
    b956:	3301      	adds	r3, #1
    b958:	60bb      	str	r3, [r7, #8]
    b95a:	f046 0602 	orr.w	r6, r6, #2
    b95e:	68bb      	ldr	r3, [r7, #8]
    b960:	781b      	ldrb	r3, [r3, #0]
    b962:	2b30      	cmp	r3, #48	; 0x30
    b964:	d0f6      	beq.n	b954 <print+0x4c>
    b966:	e00b      	b.n	b980 <print+0x78>
    b968:	462b      	mov	r3, r5
    b96a:	009b      	lsls	r3, r3, #2
    b96c:	442b      	add	r3, r5
    b96e:	005b      	lsls	r3, r3, #1
    b970:	461d      	mov	r5, r3
    b972:	68bb      	ldr	r3, [r7, #8]
    b974:	781b      	ldrb	r3, [r3, #0]
    b976:	3b30      	subs	r3, #48	; 0x30
    b978:	441d      	add	r5, r3
    b97a:	68bb      	ldr	r3, [r7, #8]
    b97c:	3301      	adds	r3, #1
    b97e:	60bb      	str	r3, [r7, #8]
    b980:	68bb      	ldr	r3, [r7, #8]
    b982:	781b      	ldrb	r3, [r3, #0]
    b984:	2b2f      	cmp	r3, #47	; 0x2f
    b986:	d903      	bls.n	b990 <print+0x88>
    b988:	68bb      	ldr	r3, [r7, #8]
    b98a:	781b      	ldrb	r3, [r3, #0]
    b98c:	2b39      	cmp	r3, #57	; 0x39
    b98e:	d9eb      	bls.n	b968 <print+0x60>
    b990:	68bb      	ldr	r3, [r7, #8]
    b992:	781b      	ldrb	r3, [r3, #0]
    b994:	2b73      	cmp	r3, #115	; 0x73
    b996:	d112      	bne.n	b9be <print+0xb6>
    b998:	687b      	ldr	r3, [r7, #4]
    b99a:	1d1a      	adds	r2, r3, #4
    b99c:	607a      	str	r2, [r7, #4]
    b99e:	681b      	ldr	r3, [r3, #0]
    b9a0:	4698      	mov	r8, r3
    b9a2:	f1b8 0f00 	cmp.w	r8, #0
    b9a6:	d001      	beq.n	b9ac <print+0xa4>
    b9a8:	4641      	mov	r1, r8
    b9aa:	e000      	b.n	b9ae <print+0xa6>
    b9ac:	4946      	ldr	r1, [pc, #280]	; (bac8 <print+0x1c0>)
    b9ae:	4633      	mov	r3, r6
    b9b0:	462a      	mov	r2, r5
    b9b2:	68f8      	ldr	r0, [r7, #12]
    b9b4:	f7ff fee4 	bl	b780 <prints>
    b9b8:	4603      	mov	r3, r0
    b9ba:	441c      	add	r4, r3
    b9bc:	e06d      	b.n	ba9a <print+0x192>
    b9be:	68bb      	ldr	r3, [r7, #8]
    b9c0:	781b      	ldrb	r3, [r3, #0]
    b9c2:	2b64      	cmp	r3, #100	; 0x64
    b9c4:	d10f      	bne.n	b9e6 <print+0xde>
    b9c6:	687b      	ldr	r3, [r7, #4]
    b9c8:	1d1a      	adds	r2, r3, #4
    b9ca:	607a      	str	r2, [r7, #4]
    b9cc:	6819      	ldr	r1, [r3, #0]
    b9ce:	2361      	movs	r3, #97	; 0x61
    b9d0:	9302      	str	r3, [sp, #8]
    b9d2:	9601      	str	r6, [sp, #4]
    b9d4:	9500      	str	r5, [sp, #0]
    b9d6:	2301      	movs	r3, #1
    b9d8:	220a      	movs	r2, #10
    b9da:	68f8      	ldr	r0, [r7, #12]
    b9dc:	f7ff ff28 	bl	b830 <printi>
    b9e0:	4603      	mov	r3, r0
    b9e2:	441c      	add	r4, r3
    b9e4:	e059      	b.n	ba9a <print+0x192>
    b9e6:	68bb      	ldr	r3, [r7, #8]
    b9e8:	781b      	ldrb	r3, [r3, #0]
    b9ea:	2b78      	cmp	r3, #120	; 0x78
    b9ec:	d10f      	bne.n	ba0e <print+0x106>
    b9ee:	687b      	ldr	r3, [r7, #4]
    b9f0:	1d1a      	adds	r2, r3, #4
    b9f2:	607a      	str	r2, [r7, #4]
    b9f4:	6819      	ldr	r1, [r3, #0]
    b9f6:	2361      	movs	r3, #97	; 0x61
    b9f8:	9302      	str	r3, [sp, #8]
    b9fa:	9601      	str	r6, [sp, #4]
    b9fc:	9500      	str	r5, [sp, #0]
    b9fe:	2300      	movs	r3, #0
    ba00:	2210      	movs	r2, #16
    ba02:	68f8      	ldr	r0, [r7, #12]
    ba04:	f7ff ff14 	bl	b830 <printi>
    ba08:	4603      	mov	r3, r0
    ba0a:	441c      	add	r4, r3
    ba0c:	e045      	b.n	ba9a <print+0x192>
    ba0e:	68bb      	ldr	r3, [r7, #8]
    ba10:	781b      	ldrb	r3, [r3, #0]
    ba12:	2b58      	cmp	r3, #88	; 0x58
    ba14:	d10f      	bne.n	ba36 <print+0x12e>
    ba16:	687b      	ldr	r3, [r7, #4]
    ba18:	1d1a      	adds	r2, r3, #4
    ba1a:	607a      	str	r2, [r7, #4]
    ba1c:	6819      	ldr	r1, [r3, #0]
    ba1e:	2341      	movs	r3, #65	; 0x41
    ba20:	9302      	str	r3, [sp, #8]
    ba22:	9601      	str	r6, [sp, #4]
    ba24:	9500      	str	r5, [sp, #0]
    ba26:	2300      	movs	r3, #0
    ba28:	2210      	movs	r2, #16
    ba2a:	68f8      	ldr	r0, [r7, #12]
    ba2c:	f7ff ff00 	bl	b830 <printi>
    ba30:	4603      	mov	r3, r0
    ba32:	441c      	add	r4, r3
    ba34:	e031      	b.n	ba9a <print+0x192>
    ba36:	68bb      	ldr	r3, [r7, #8]
    ba38:	781b      	ldrb	r3, [r3, #0]
    ba3a:	2b75      	cmp	r3, #117	; 0x75
    ba3c:	d10f      	bne.n	ba5e <print+0x156>
    ba3e:	687b      	ldr	r3, [r7, #4]
    ba40:	1d1a      	adds	r2, r3, #4
    ba42:	607a      	str	r2, [r7, #4]
    ba44:	6819      	ldr	r1, [r3, #0]
    ba46:	2361      	movs	r3, #97	; 0x61
    ba48:	9302      	str	r3, [sp, #8]
    ba4a:	9601      	str	r6, [sp, #4]
    ba4c:	9500      	str	r5, [sp, #0]
    ba4e:	2300      	movs	r3, #0
    ba50:	220a      	movs	r2, #10
    ba52:	68f8      	ldr	r0, [r7, #12]
    ba54:	f7ff feec 	bl	b830 <printi>
    ba58:	4603      	mov	r3, r0
    ba5a:	441c      	add	r4, r3
    ba5c:	e01d      	b.n	ba9a <print+0x192>
    ba5e:	68bb      	ldr	r3, [r7, #8]
    ba60:	781b      	ldrb	r3, [r3, #0]
    ba62:	2b63      	cmp	r3, #99	; 0x63
    ba64:	d119      	bne.n	ba9a <print+0x192>
    ba66:	687b      	ldr	r3, [r7, #4]
    ba68:	1d1a      	adds	r2, r3, #4
    ba6a:	607a      	str	r2, [r7, #4]
    ba6c:	681b      	ldr	r3, [r3, #0]
    ba6e:	b2db      	uxtb	r3, r3
    ba70:	753b      	strb	r3, [r7, #20]
    ba72:	2300      	movs	r3, #0
    ba74:	757b      	strb	r3, [r7, #21]
    ba76:	f107 0114 	add.w	r1, r7, #20
    ba7a:	4633      	mov	r3, r6
    ba7c:	462a      	mov	r2, r5
    ba7e:	68f8      	ldr	r0, [r7, #12]
    ba80:	f7ff fe7e 	bl	b780 <prints>
    ba84:	4603      	mov	r3, r0
    ba86:	441c      	add	r4, r3
    ba88:	e007      	b.n	ba9a <print+0x192>
    ba8a:	bf00      	nop
    ba8c:	68bb      	ldr	r3, [r7, #8]
    ba8e:	781b      	ldrb	r3, [r3, #0]
    ba90:	4619      	mov	r1, r3
    ba92:	68f8      	ldr	r0, [r7, #12]
    ba94:	f7ff fe5c 	bl	b750 <printchar>
    ba98:	3401      	adds	r4, #1
    ba9a:	68bb      	ldr	r3, [r7, #8]
    ba9c:	3301      	adds	r3, #1
    ba9e:	60bb      	str	r3, [r7, #8]
    baa0:	68bb      	ldr	r3, [r7, #8]
    baa2:	781b      	ldrb	r3, [r3, #0]
    baa4:	2b00      	cmp	r3, #0
    baa6:	f47f af38 	bne.w	b91a <print+0x12>
    baaa:	e000      	b.n	baae <print+0x1a6>
    baac:	bf00      	nop
    baae:	68fb      	ldr	r3, [r7, #12]
    bab0:	2b00      	cmp	r3, #0
    bab2:	d003      	beq.n	babc <print+0x1b4>
    bab4:	68fb      	ldr	r3, [r7, #12]
    bab6:	681b      	ldr	r3, [r3, #0]
    bab8:	2200      	movs	r2, #0
    baba:	701a      	strb	r2, [r3, #0]
    babc:	4623      	mov	r3, r4
    babe:	4618      	mov	r0, r3
    bac0:	3718      	adds	r7, #24
    bac2:	46bd      	mov	sp, r7
    bac4:	e8bd 81f0 	ldmia.w	sp!, {r4, r5, r6, r7, r8, pc}
    bac8:	0000e714 	.word	0x0000e714

0000bacc <sprintf>:
    bacc:	b40e      	push	{r1, r2, r3}
    bace:	b580      	push	{r7, lr}
    bad0:	b085      	sub	sp, #20
    bad2:	af00      	add	r7, sp, #0
    bad4:	6078      	str	r0, [r7, #4]
    bad6:	f107 0320 	add.w	r3, r7, #32
    bada:	60fb      	str	r3, [r7, #12]
    badc:	1d3b      	adds	r3, r7, #4
    bade:	68fa      	ldr	r2, [r7, #12]
    bae0:	69f9      	ldr	r1, [r7, #28]
    bae2:	4618      	mov	r0, r3
    bae4:	f7ff ff10 	bl	b908 <print>
    bae8:	4603      	mov	r3, r0
    baea:	4618      	mov	r0, r3
    baec:	3714      	adds	r7, #20
    baee:	46bd      	mov	sp, r7
    baf0:	e8bd 4080 	ldmia.w	sp!, {r7, lr}
    baf4:	b003      	add	sp, #12
    baf6:	4770      	bx	lr

0000baf8 <SystemInit>:
    baf8:	b580      	push	{r7, lr}
    bafa:	b082      	sub	sp, #8
    bafc:	af00      	add	r7, sp, #0
    bafe:	4b05      	ldr	r3, [pc, #20]	; (bb14 <SystemInit+0x1c>)
    bb00:	607b      	str	r3, [r7, #4]
    bb02:	4a05      	ldr	r2, [pc, #20]	; (bb18 <SystemInit+0x20>)
    bb04:	687b      	ldr	r3, [r7, #4]
    bb06:	601a      	str	r2, [r3, #0]
    bb08:	f000 fb70 	bl	c1ec <Board_SystemInit>
    bb0c:	bf00      	nop
    bb0e:	3708      	adds	r7, #8
    bb10:	46bd      	mov	sp, r7
    bb12:	bd80      	pop	{r7, pc}
    bb14:	e000ed08 	.word	0xe000ed08
    bb18:	00000000 	.word	0x00000000

0000bb1c <Chip_IOCON_Init>:
    bb1c:	b580      	push	{r7, lr}
    bb1e:	b082      	sub	sp, #8
    bb20:	af00      	add	r7, sp, #0
    bb22:	6078      	str	r0, [r7, #4]
    bb24:	200f      	movs	r0, #15
    bb26:	f000 fc5d 	bl	c3e4 <Chip_Clock_EnablePeriphClock>
    bb2a:	bf00      	nop
    bb2c:	3708      	adds	r7, #8
    bb2e:	46bd      	mov	sp, r7
    bb30:	bd80      	pop	{r7, pc}
    bb32:	bf00      	nop

0000bb34 <Chip_IOCON_EnableOD>:
    bb34:	b480      	push	{r7}
    bb36:	b083      	sub	sp, #12
    bb38:	af00      	add	r7, sp, #0
    bb3a:	6078      	str	r0, [r7, #4]
    bb3c:	460b      	mov	r3, r1
    bb3e:	70fb      	strb	r3, [r7, #3]
    bb40:	4613      	mov	r3, r2
    bb42:	70bb      	strb	r3, [r7, #2]
    bb44:	78fa      	ldrb	r2, [r7, #3]
    bb46:	78f9      	ldrb	r1, [r7, #3]
    bb48:	687b      	ldr	r3, [r7, #4]
    bb4a:	311a      	adds	r1, #26
    bb4c:	f853 1021 	ldr.w	r1, [r3, r1, lsl #2]
    bb50:	78bb      	ldrb	r3, [r7, #2]
    bb52:	2001      	movs	r0, #1
    bb54:	fa00 f303 	lsl.w	r3, r0, r3
    bb58:	4319      	orrs	r1, r3
    bb5a:	687b      	ldr	r3, [r7, #4]
    bb5c:	321a      	adds	r2, #26
    bb5e:	f843 1022 	str.w	r1, [r3, r2, lsl #2]
    bb62:	bf00      	nop
    bb64:	370c      	adds	r7, #12
    bb66:	46bd      	mov	sp, r7
    bb68:	bc80      	pop	{r7}
    bb6a:	4770      	bx	lr

0000bb6c <Chip_IOCON_SetI2CPad>:
    bb6c:	b480      	push	{r7}
    bb6e:	b083      	sub	sp, #12
    bb70:	af00      	add	r7, sp, #0
    bb72:	6078      	str	r0, [r7, #4]
    bb74:	460b      	mov	r3, r1
    bb76:	70fb      	strb	r3, [r7, #3]
    bb78:	78fa      	ldrb	r2, [r7, #3]
    bb7a:	687b      	ldr	r3, [r7, #4]
    bb7c:	67da      	str	r2, [r3, #124]	; 0x7c
    bb7e:	bf00      	nop
    bb80:	370c      	adds	r7, #12
    bb82:	46bd      	mov	sp, r7
    bb84:	bc80      	pop	{r7}
    bb86:	4770      	bx	lr

0000bb88 <Chip_GPIO_Init>:
    bb88:	b580      	push	{r7, lr}
    bb8a:	b082      	sub	sp, #8
    bb8c:	af00      	add	r7, sp, #0
    bb8e:	6078      	str	r0, [r7, #4]
    bb90:	200f      	movs	r0, #15
    bb92:	f000 fc27 	bl	c3e4 <Chip_Clock_EnablePeriphClock>
    bb96:	bf00      	nop
    bb98:	3708      	adds	r7, #8
    bb9a:	46bd      	mov	sp, r7
    bb9c:	bd80      	pop	{r7, pc}
    bb9e:	bf00      	nop

0000bba0 <Chip_GPIO_SetPinState>:
    bba0:	b480      	push	{r7}
    bba2:	b083      	sub	sp, #12
    bba4:	af00      	add	r7, sp, #0
    bba6:	6078      	str	r0, [r7, #4]
    bba8:	4608      	mov	r0, r1
    bbaa:	4611      	mov	r1, r2
    bbac:	461a      	mov	r2, r3
    bbae:	4603      	mov	r3, r0
    bbb0:	70fb      	strb	r3, [r7, #3]
    bbb2:	460b      	mov	r3, r1
    bbb4:	70bb      	strb	r3, [r7, #2]
    bbb6:	4613      	mov	r3, r2
    bbb8:	707b      	strb	r3, [r7, #1]
    bbba:	787b      	ldrb	r3, [r7, #1]
    bbbc:	2b00      	cmp	r3, #0
    bbbe:	d00f      	beq.n	bbe0 <Chip_GPIO_SetPinState+0x40>
    bbc0:	78fb      	ldrb	r3, [r7, #3]
    bbc2:	015b      	lsls	r3, r3, #5
    bbc4:	687a      	ldr	r2, [r7, #4]
    bbc6:	4413      	add	r3, r2
    bbc8:	78fa      	ldrb	r2, [r7, #3]
    bbca:	0152      	lsls	r2, r2, #5
    bbcc:	6879      	ldr	r1, [r7, #4]
    bbce:	440a      	add	r2, r1
    bbd0:	6991      	ldr	r1, [r2, #24]
    bbd2:	78ba      	ldrb	r2, [r7, #2]
    bbd4:	2001      	movs	r0, #1
    bbd6:	fa00 f202 	lsl.w	r2, r0, r2
    bbda:	430a      	orrs	r2, r1
    bbdc:	619a      	str	r2, [r3, #24]
    bbde:	e00e      	b.n	bbfe <Chip_GPIO_SetPinState+0x5e>
    bbe0:	78fb      	ldrb	r3, [r7, #3]
    bbe2:	015b      	lsls	r3, r3, #5
    bbe4:	687a      	ldr	r2, [r7, #4]
    bbe6:	4413      	add	r3, r2
    bbe8:	78fa      	ldrb	r2, [r7, #3]
    bbea:	0152      	lsls	r2, r2, #5
    bbec:	6879      	ldr	r1, [r7, #4]
    bbee:	440a      	add	r2, r1
    bbf0:	69d1      	ldr	r1, [r2, #28]
    bbf2:	78ba      	ldrb	r2, [r7, #2]
    bbf4:	2001      	movs	r0, #1
    bbf6:	fa00 f202 	lsl.w	r2, r0, r2
    bbfa:	430a      	orrs	r2, r1
    bbfc:	61da      	str	r2, [r3, #28]
    bbfe:	bf00      	nop
    bc00:	370c      	adds	r7, #12
    bc02:	46bd      	mov	sp, r7
    bc04:	bc80      	pop	{r7}
    bc06:	4770      	bx	lr

0000bc08 <Chip_GPIO_WritePortBit>:
    bc08:	b580      	push	{r7, lr}
    bc0a:	b084      	sub	sp, #16
    bc0c:	af00      	add	r7, sp, #0
    bc0e:	60f8      	str	r0, [r7, #12]
    bc10:	60b9      	str	r1, [r7, #8]
    bc12:	4611      	mov	r1, r2
    bc14:	461a      	mov	r2, r3
    bc16:	460b      	mov	r3, r1
    bc18:	71fb      	strb	r3, [r7, #7]
    bc1a:	4613      	mov	r3, r2
    bc1c:	71bb      	strb	r3, [r7, #6]
    bc1e:	68bb      	ldr	r3, [r7, #8]
    bc20:	b2d9      	uxtb	r1, r3
    bc22:	79bb      	ldrb	r3, [r7, #6]
    bc24:	79fa      	ldrb	r2, [r7, #7]
    bc26:	68f8      	ldr	r0, [r7, #12]
    bc28:	f7ff ffba 	bl	bba0 <Chip_GPIO_SetPinState>
    bc2c:	bf00      	nop
    bc2e:	3710      	adds	r7, #16
    bc30:	46bd      	mov	sp, r7
    bc32:	bd80      	pop	{r7, pc}

0000bc34 <Chip_GPIO_SetPinDIROutput>:
    bc34:	b480      	push	{r7}
    bc36:	b083      	sub	sp, #12
    bc38:	af00      	add	r7, sp, #0
    bc3a:	6078      	str	r0, [r7, #4]
    bc3c:	460b      	mov	r3, r1
    bc3e:	70fb      	strb	r3, [r7, #3]
    bc40:	4613      	mov	r3, r2
    bc42:	70bb      	strb	r3, [r7, #2]
    bc44:	78fb      	ldrb	r3, [r7, #3]
    bc46:	015b      	lsls	r3, r3, #5
    bc48:	687a      	ldr	r2, [r7, #4]
    bc4a:	4413      	add	r3, r2
    bc4c:	78fa      	ldrb	r2, [r7, #3]
    bc4e:	0152      	lsls	r2, r2, #5
    bc50:	6879      	ldr	r1, [r7, #4]
    bc52:	440a      	add	r2, r1
    bc54:	6811      	ldr	r1, [r2, #0]
    bc56:	78ba      	ldrb	r2, [r7, #2]
    bc58:	2001      	movs	r0, #1
    bc5a:	fa00 f202 	lsl.w	r2, r0, r2
    bc5e:	430a      	orrs	r2, r1
    bc60:	601a      	str	r2, [r3, #0]
    bc62:	bf00      	nop
    bc64:	370c      	adds	r7, #12
    bc66:	46bd      	mov	sp, r7
    bc68:	bc80      	pop	{r7}
    bc6a:	4770      	bx	lr

0000bc6c <Chip_GPIO_SetPinDIRInput>:
    bc6c:	b480      	push	{r7}
    bc6e:	b083      	sub	sp, #12
    bc70:	af00      	add	r7, sp, #0
    bc72:	6078      	str	r0, [r7, #4]
    bc74:	460b      	mov	r3, r1
    bc76:	70fb      	strb	r3, [r7, #3]
    bc78:	4613      	mov	r3, r2
    bc7a:	70bb      	strb	r3, [r7, #2]
    bc7c:	78fb      	ldrb	r3, [r7, #3]
    bc7e:	015b      	lsls	r3, r3, #5
    bc80:	687a      	ldr	r2, [r7, #4]
    bc82:	4413      	add	r3, r2
    bc84:	78fa      	ldrb	r2, [r7, #3]
    bc86:	0152      	lsls	r2, r2, #5
    bc88:	6879      	ldr	r1, [r7, #4]
    bc8a:	440a      	add	r2, r1
    bc8c:	6811      	ldr	r1, [r2, #0]
    bc8e:	78ba      	ldrb	r2, [r7, #2]
    bc90:	2001      	movs	r0, #1
    bc92:	fa00 f202 	lsl.w	r2, r0, r2
    bc96:	43d2      	mvns	r2, r2
    bc98:	400a      	ands	r2, r1
    bc9a:	601a      	str	r2, [r3, #0]
    bc9c:	bf00      	nop
    bc9e:	370c      	adds	r7, #12
    bca0:	46bd      	mov	sp, r7
    bca2:	bc80      	pop	{r7}
    bca4:	4770      	bx	lr
    bca6:	bf00      	nop

0000bca8 <Chip_GPIO_SetPinDIR>:
    bca8:	b580      	push	{r7, lr}
    bcaa:	b082      	sub	sp, #8
    bcac:	af00      	add	r7, sp, #0
    bcae:	6078      	str	r0, [r7, #4]
    bcb0:	4608      	mov	r0, r1
    bcb2:	4611      	mov	r1, r2
    bcb4:	461a      	mov	r2, r3
    bcb6:	4603      	mov	r3, r0
    bcb8:	70fb      	strb	r3, [r7, #3]
    bcba:	460b      	mov	r3, r1
    bcbc:	70bb      	strb	r3, [r7, #2]
    bcbe:	4613      	mov	r3, r2
    bcc0:	707b      	strb	r3, [r7, #1]
    bcc2:	787b      	ldrb	r3, [r7, #1]
    bcc4:	2b00      	cmp	r3, #0
    bcc6:	d006      	beq.n	bcd6 <Chip_GPIO_SetPinDIR+0x2e>
    bcc8:	78ba      	ldrb	r2, [r7, #2]
    bcca:	78fb      	ldrb	r3, [r7, #3]
    bccc:	4619      	mov	r1, r3
    bcce:	6878      	ldr	r0, [r7, #4]
    bcd0:	f7ff ffb0 	bl	bc34 <Chip_GPIO_SetPinDIROutput>
    bcd4:	e005      	b.n	bce2 <Chip_GPIO_SetPinDIR+0x3a>
    bcd6:	78ba      	ldrb	r2, [r7, #2]
    bcd8:	78fb      	ldrb	r3, [r7, #3]
    bcda:	4619      	mov	r1, r3
    bcdc:	6878      	ldr	r0, [r7, #4]
    bcde:	f7ff ffc5 	bl	bc6c <Chip_GPIO_SetPinDIRInput>
    bce2:	bf00      	nop
    bce4:	3708      	adds	r7, #8
    bce6:	46bd      	mov	sp, r7
    bce8:	bd80      	pop	{r7, pc}
    bcea:	bf00      	nop

0000bcec <Chip_GPIO_WriteDirBit>:
    bcec:	b580      	push	{r7, lr}
    bcee:	b082      	sub	sp, #8
    bcf0:	af00      	add	r7, sp, #0
    bcf2:	6078      	str	r0, [r7, #4]
    bcf4:	4608      	mov	r0, r1
    bcf6:	4611      	mov	r1, r2
    bcf8:	461a      	mov	r2, r3
    bcfa:	4603      	mov	r3, r0
    bcfc:	70fb      	strb	r3, [r7, #3]
    bcfe:	460b      	mov	r3, r1
    bd00:	70bb      	strb	r3, [r7, #2]
    bd02:	4613      	mov	r3, r2
    bd04:	707b      	strb	r3, [r7, #1]
    bd06:	787b      	ldrb	r3, [r7, #1]
    bd08:	78ba      	ldrb	r2, [r7, #2]
    bd0a:	78f9      	ldrb	r1, [r7, #3]
    bd0c:	6878      	ldr	r0, [r7, #4]
    bd0e:	f7ff ffcb 	bl	bca8 <Chip_GPIO_SetPinDIR>
    bd12:	bf00      	nop
    bd14:	3708      	adds	r7, #8
    bd16:	46bd      	mov	sp, r7
    bd18:	bd80      	pop	{r7, pc}
    bd1a:	bf00      	nop

0000bd1c <Chip_UART_SendByte>:
    bd1c:	b480      	push	{r7}
    bd1e:	b083      	sub	sp, #12
    bd20:	af00      	add	r7, sp, #0
    bd22:	6078      	str	r0, [r7, #4]
    bd24:	460b      	mov	r3, r1
    bd26:	70fb      	strb	r3, [r7, #3]
    bd28:	78fa      	ldrb	r2, [r7, #3]
    bd2a:	687b      	ldr	r3, [r7, #4]
    bd2c:	601a      	str	r2, [r3, #0]
    bd2e:	bf00      	nop
    bd30:	370c      	adds	r7, #12
    bd32:	46bd      	mov	sp, r7
    bd34:	bc80      	pop	{r7}
    bd36:	4770      	bx	lr

0000bd38 <Chip_UART_ReadLineStatus>:
    bd38:	b480      	push	{r7}
    bd3a:	b083      	sub	sp, #12
    bd3c:	af00      	add	r7, sp, #0
    bd3e:	6078      	str	r0, [r7, #4]
    bd40:	687b      	ldr	r3, [r7, #4]
    bd42:	695b      	ldr	r3, [r3, #20]
    bd44:	4618      	mov	r0, r3
    bd46:	370c      	adds	r7, #12
    bd48:	46bd      	mov	sp, r7
    bd4a:	bc80      	pop	{r7}
    bd4c:	4770      	bx	lr
    bd4e:	bf00      	nop

0000bd50 <__sys_write>:
    bd50:	b580      	push	{r7, lr}
    bd52:	b086      	sub	sp, #24
    bd54:	af00      	add	r7, sp, #0
    bd56:	60f8      	str	r0, [r7, #12]
    bd58:	60b9      	str	r1, [r7, #8]
    bd5a:	607a      	str	r2, [r7, #4]
    bd5c:	2300      	movs	r3, #0
    bd5e:	617b      	str	r3, [r7, #20]
    bd60:	e009      	b.n	bd76 <__sys_write+0x26>
    bd62:	68ba      	ldr	r2, [r7, #8]
    bd64:	697b      	ldr	r3, [r7, #20]
    bd66:	4413      	add	r3, r2
    bd68:	781b      	ldrb	r3, [r3, #0]
    bd6a:	4618      	mov	r0, r3
    bd6c:	f000 f818 	bl	bda0 <Board_UARTPutChar>
    bd70:	697b      	ldr	r3, [r7, #20]
    bd72:	3301      	adds	r3, #1
    bd74:	617b      	str	r3, [r7, #20]
    bd76:	687b      	ldr	r3, [r7, #4]
    bd78:	697a      	ldr	r2, [r7, #20]
    bd7a:	429a      	cmp	r2, r3
    bd7c:	d3f1      	bcc.n	bd62 <__sys_write+0x12>
    bd7e:	687b      	ldr	r3, [r7, #4]
    bd80:	4618      	mov	r0, r3
    bd82:	3718      	adds	r7, #24
    bd84:	46bd      	mov	sp, r7
    bd86:	bd80      	pop	{r7, pc}

0000bd88 <Board_LED_Init>:
    bd88:	b580      	push	{r7, lr}
    bd8a:	af00      	add	r7, sp, #0
    bd8c:	2301      	movs	r3, #1
    bd8e:	2216      	movs	r2, #22
    bd90:	2100      	movs	r1, #0
    bd92:	4802      	ldr	r0, [pc, #8]	; (bd9c <Board_LED_Init+0x14>)
    bd94:	f7ff ffaa 	bl	bcec <Chip_GPIO_WriteDirBit>
    bd98:	bf00      	nop
    bd9a:	bd80      	pop	{r7, pc}
    bd9c:	2009c000 	.word	0x2009c000

0000bda0 <Board_UARTPutChar>:
    bda0:	b580      	push	{r7, lr}
    bda2:	b082      	sub	sp, #8
    bda4:	af00      	add	r7, sp, #0
    bda6:	4603      	mov	r3, r0
    bda8:	71fb      	strb	r3, [r7, #7]
    bdaa:	bf00      	nop
    bdac:	4808      	ldr	r0, [pc, #32]	; (bdd0 <Board_UARTPutChar+0x30>)
    bdae:	f7ff ffc3 	bl	bd38 <Chip_UART_ReadLineStatus>
    bdb2:	4603      	mov	r3, r0
    bdb4:	f003 0320 	and.w	r3, r3, #32
    bdb8:	2b00      	cmp	r3, #0
    bdba:	d0f7      	beq.n	bdac <Board_UARTPutChar+0xc>
    bdbc:	79fb      	ldrb	r3, [r7, #7]
    bdbe:	4619      	mov	r1, r3
    bdc0:	4803      	ldr	r0, [pc, #12]	; (bdd0 <Board_UARTPutChar+0x30>)
    bdc2:	f7ff ffab 	bl	bd1c <Chip_UART_SendByte>
    bdc6:	bf00      	nop
    bdc8:	3708      	adds	r7, #8
    bdca:	46bd      	mov	sp, r7
    bdcc:	bd80      	pop	{r7, pc}
    bdce:	bf00      	nop
    bdd0:	4009c000 	.word	0x4009c000

0000bdd4 <Board_LCD_Send_Nibble>:
    bdd4:	b580      	push	{r7, lr}
    bdd6:	b084      	sub	sp, #16
    bdd8:	af00      	add	r7, sp, #0
    bdda:	4603      	mov	r3, r0
    bddc:	71fb      	strb	r3, [r7, #7]
    bdde:	2300      	movs	r3, #0
    bde0:	2213      	movs	r2, #19
    bde2:	2100      	movs	r1, #0
    bde4:	482d      	ldr	r0, [pc, #180]	; (be9c <Board_LCD_Send_Nibble+0xc8>)
    bde6:	f7ff fedb 	bl	bba0 <Chip_GPIO_SetPinState>
    bdea:	2300      	movs	r3, #0
    bdec:	2214      	movs	r2, #20
    bdee:	2100      	movs	r1, #0
    bdf0:	482a      	ldr	r0, [pc, #168]	; (be9c <Board_LCD_Send_Nibble+0xc8>)
    bdf2:	f7ff fed5 	bl	bba0 <Chip_GPIO_SetPinState>
    bdf6:	2300      	movs	r3, #0
    bdf8:	2215      	movs	r2, #21
    bdfa:	2100      	movs	r1, #0
    bdfc:	4827      	ldr	r0, [pc, #156]	; (be9c <Board_LCD_Send_Nibble+0xc8>)
    bdfe:	f7ff fecf 	bl	bba0 <Chip_GPIO_SetPinState>
    be02:	2300      	movs	r3, #0
    be04:	2216      	movs	r2, #22
    be06:	2100      	movs	r1, #0
    be08:	4824      	ldr	r0, [pc, #144]	; (be9c <Board_LCD_Send_Nibble+0xc8>)
    be0a:	f7ff fec9 	bl	bba0 <Chip_GPIO_SetPinState>
    be0e:	79fb      	ldrb	r3, [r7, #7]
    be10:	f003 0301 	and.w	r3, r3, #1
    be14:	60fb      	str	r3, [r7, #12]
    be16:	68fb      	ldr	r3, [r7, #12]
    be18:	2b00      	cmp	r3, #0
    be1a:	bf14      	ite	ne
    be1c:	2301      	movne	r3, #1
    be1e:	2300      	moveq	r3, #0
    be20:	b2db      	uxtb	r3, r3
    be22:	2213      	movs	r2, #19
    be24:	2100      	movs	r1, #0
    be26:	481d      	ldr	r0, [pc, #116]	; (be9c <Board_LCD_Send_Nibble+0xc8>)
    be28:	f7ff feba 	bl	bba0 <Chip_GPIO_SetPinState>
    be2c:	79fb      	ldrb	r3, [r7, #7]
    be2e:	085b      	lsrs	r3, r3, #1
    be30:	b2db      	uxtb	r3, r3
    be32:	f003 0301 	and.w	r3, r3, #1
    be36:	60fb      	str	r3, [r7, #12]
    be38:	68fb      	ldr	r3, [r7, #12]
    be3a:	2b00      	cmp	r3, #0
    be3c:	bf14      	ite	ne
    be3e:	2301      	movne	r3, #1
    be40:	2300      	moveq	r3, #0
    be42:	b2db      	uxtb	r3, r3
    be44:	2214      	movs	r2, #20
    be46:	2100      	movs	r1, #0
    be48:	4814      	ldr	r0, [pc, #80]	; (be9c <Board_LCD_Send_Nibble+0xc8>)
    be4a:	f7ff fea9 	bl	bba0 <Chip_GPIO_SetPinState>
    be4e:	79fb      	ldrb	r3, [r7, #7]
    be50:	089b      	lsrs	r3, r3, #2
    be52:	b2db      	uxtb	r3, r3
    be54:	f003 0301 	and.w	r3, r3, #1
    be58:	60fb      	str	r3, [r7, #12]
    be5a:	68fb      	ldr	r3, [r7, #12]
    be5c:	2b00      	cmp	r3, #0
    be5e:	bf14      	ite	ne
    be60:	2301      	movne	r3, #1
    be62:	2300      	moveq	r3, #0
    be64:	b2db      	uxtb	r3, r3
    be66:	2215      	movs	r2, #21
    be68:	2100      	movs	r1, #0
    be6a:	480c      	ldr	r0, [pc, #48]	; (be9c <Board_LCD_Send_Nibble+0xc8>)
    be6c:	f7ff fe98 	bl	bba0 <Chip_GPIO_SetPinState>
    be70:	79fb      	ldrb	r3, [r7, #7]
    be72:	08db      	lsrs	r3, r3, #3
    be74:	b2db      	uxtb	r3, r3
    be76:	f003 0301 	and.w	r3, r3, #1
    be7a:	60fb      	str	r3, [r7, #12]
    be7c:	68fb      	ldr	r3, [r7, #12]
    be7e:	2b00      	cmp	r3, #0
    be80:	bf14      	ite	ne
    be82:	2301      	movne	r3, #1
    be84:	2300      	moveq	r3, #0
    be86:	b2db      	uxtb	r3, r3
    be88:	2216      	movs	r2, #22
    be8a:	2100      	movs	r1, #0
    be8c:	4803      	ldr	r0, [pc, #12]	; (be9c <Board_LCD_Send_Nibble+0xc8>)
    be8e:	f7ff fe87 	bl	bba0 <Chip_GPIO_SetPinState>
    be92:	bf00      	nop
    be94:	3710      	adds	r7, #16
    be96:	46bd      	mov	sp, r7
    be98:	bd80      	pop	{r7, pc}
    be9a:	bf00      	nop
    be9c:	2009c000 	.word	0x2009c000

0000bea0 <delay_ms>:
    bea0:	b480      	push	{r7}
    bea2:	b085      	sub	sp, #20
    bea4:	af00      	add	r7, sp, #0
    bea6:	6078      	str	r0, [r7, #4]
    bea8:	2300      	movs	r3, #0
    beaa:	60fb      	str	r3, [r7, #12]
    beac:	2300      	movs	r3, #0
    beae:	60bb      	str	r3, [r7, #8]
    beb0:	2300      	movs	r3, #0
    beb2:	60fb      	str	r3, [r7, #12]
    beb4:	e00b      	b.n	bece <delay_ms+0x2e>
    beb6:	2300      	movs	r3, #0
    beb8:	60bb      	str	r3, [r7, #8]
    beba:	e002      	b.n	bec2 <delay_ms+0x22>
    bebc:	68bb      	ldr	r3, [r7, #8]
    bebe:	3301      	adds	r3, #1
    bec0:	60bb      	str	r3, [r7, #8]
    bec2:	68bb      	ldr	r3, [r7, #8]
    bec4:	2be5      	cmp	r3, #229	; 0xe5
    bec6:	d9f9      	bls.n	bebc <delay_ms+0x1c>
    bec8:	68fb      	ldr	r3, [r7, #12]
    beca:	3301      	adds	r3, #1
    becc:	60fb      	str	r3, [r7, #12]
    bece:	68fa      	ldr	r2, [r7, #12]
    bed0:	687b      	ldr	r3, [r7, #4]
    bed2:	429a      	cmp	r2, r3
    bed4:	d3ef      	bcc.n	beb6 <delay_ms+0x16>
    bed6:	bf00      	nop
    bed8:	3714      	adds	r7, #20
    beda:	46bd      	mov	sp, r7
    bedc:	bc80      	pop	{r7}
    bede:	4770      	bx	lr

0000bee0 <Board_Lcd_Cmd_Write>:
    bee0:	b580      	push	{r7, lr}
    bee2:	b082      	sub	sp, #8
    bee4:	af00      	add	r7, sp, #0
    bee6:	4603      	mov	r3, r0
    bee8:	71fb      	strb	r3, [r7, #7]
    beea:	79fb      	ldrb	r3, [r7, #7]
    beec:	091b      	lsrs	r3, r3, #4
    beee:	b2db      	uxtb	r3, r3
    bef0:	4618      	mov	r0, r3
    bef2:	f7ff ff6f 	bl	bdd4 <Board_LCD_Send_Nibble>
    bef6:	f000 f869 	bl	bfcc <Board_lcd_Send_Cmd_Signals>
    befa:	200a      	movs	r0, #10
    befc:	f7ff ffd0 	bl	bea0 <delay_ms>
    bf00:	79fb      	ldrb	r3, [r7, #7]
    bf02:	f003 030f 	and.w	r3, r3, #15
    bf06:	b2db      	uxtb	r3, r3
    bf08:	4618      	mov	r0, r3
    bf0a:	f7ff ff63 	bl	bdd4 <Board_LCD_Send_Nibble>
    bf0e:	f000 f85d 	bl	bfcc <Board_lcd_Send_Cmd_Signals>
    bf12:	200a      	movs	r0, #10
    bf14:	f7ff ffc4 	bl	bea0 <delay_ms>
    bf18:	bf00      	nop
    bf1a:	3708      	adds	r7, #8
    bf1c:	46bd      	mov	sp, r7
    bf1e:	bd80      	pop	{r7, pc}

0000bf20 <Board_Lcd_Data_Write>:
    bf20:	b580      	push	{r7, lr}
    bf22:	b082      	sub	sp, #8
    bf24:	af00      	add	r7, sp, #0
    bf26:	4603      	mov	r3, r0
    bf28:	71fb      	strb	r3, [r7, #7]
    bf2a:	79fb      	ldrb	r3, [r7, #7]
    bf2c:	091b      	lsrs	r3, r3, #4
    bf2e:	b2db      	uxtb	r3, r3
    bf30:	4618      	mov	r0, r3
    bf32:	f7ff ff4f 	bl	bdd4 <Board_LCD_Send_Nibble>
    bf36:	f000 f827 	bl	bf88 <Board_lcd_Send_Data_Signals>
    bf3a:	2064      	movs	r0, #100	; 0x64
    bf3c:	f7ff ffb0 	bl	bea0 <delay_ms>
    bf40:	79fb      	ldrb	r3, [r7, #7]
    bf42:	f003 030f 	and.w	r3, r3, #15
    bf46:	b2db      	uxtb	r3, r3
    bf48:	4618      	mov	r0, r3
    bf4a:	f7ff ff43 	bl	bdd4 <Board_LCD_Send_Nibble>
    bf4e:	f000 f81b 	bl	bf88 <Board_lcd_Send_Data_Signals>
    bf52:	2064      	movs	r0, #100	; 0x64
    bf54:	f7ff ffa4 	bl	bea0 <delay_ms>
    bf58:	bf00      	nop
    bf5a:	3708      	adds	r7, #8
    bf5c:	46bd      	mov	sp, r7
    bf5e:	bd80      	pop	{r7, pc}

0000bf60 <Board_LCD_Write_String>:
    bf60:	b580      	push	{r7, lr}
    bf62:	b082      	sub	sp, #8
    bf64:	af00      	add	r7, sp, #0
    bf66:	6078      	str	r0, [r7, #4]
    bf68:	e006      	b.n	bf78 <Board_LCD_Write_String+0x18>
    bf6a:	687b      	ldr	r3, [r7, #4]
    bf6c:	1c5a      	adds	r2, r3, #1
    bf6e:	607a      	str	r2, [r7, #4]
    bf70:	781b      	ldrb	r3, [r3, #0]
    bf72:	4618      	mov	r0, r3
    bf74:	f7ff ffd4 	bl	bf20 <Board_Lcd_Data_Write>
    bf78:	687b      	ldr	r3, [r7, #4]
    bf7a:	781b      	ldrb	r3, [r3, #0]
    bf7c:	2b00      	cmp	r3, #0
    bf7e:	d1f4      	bne.n	bf6a <Board_LCD_Write_String+0xa>
    bf80:	bf00      	nop
    bf82:	3708      	adds	r7, #8
    bf84:	46bd      	mov	sp, r7
    bf86:	bd80      	pop	{r7, pc}

0000bf88 <Board_lcd_Send_Data_Signals>:
    bf88:	b580      	push	{r7, lr}
    bf8a:	af00      	add	r7, sp, #0
    bf8c:	2301      	movs	r3, #1
    bf8e:	2205      	movs	r2, #5
    bf90:	2102      	movs	r1, #2
    bf92:	480d      	ldr	r0, [pc, #52]	; (bfc8 <Board_lcd_Send_Data_Signals+0x40>)
    bf94:	f7ff fe38 	bl	bc08 <Chip_GPIO_WritePortBit>
    bf98:	2300      	movs	r3, #0
    bf9a:	2206      	movs	r2, #6
    bf9c:	2102      	movs	r1, #2
    bf9e:	480a      	ldr	r0, [pc, #40]	; (bfc8 <Board_lcd_Send_Data_Signals+0x40>)
    bfa0:	f7ff fe32 	bl	bc08 <Chip_GPIO_WritePortBit>
    bfa4:	2301      	movs	r3, #1
    bfa6:	2207      	movs	r2, #7
    bfa8:	2102      	movs	r1, #2
    bfaa:	4807      	ldr	r0, [pc, #28]	; (bfc8 <Board_lcd_Send_Data_Signals+0x40>)
    bfac:	f7ff fe2c 	bl	bc08 <Chip_GPIO_WritePortBit>
    bfb0:	200a      	movs	r0, #10
    bfb2:	f7ff ff75 	bl	bea0 <delay_ms>
    bfb6:	2300      	movs	r3, #0
    bfb8:	2207      	movs	r2, #7
    bfba:	2102      	movs	r1, #2
    bfbc:	4802      	ldr	r0, [pc, #8]	; (bfc8 <Board_lcd_Send_Data_Signals+0x40>)
    bfbe:	f7ff fe23 	bl	bc08 <Chip_GPIO_WritePortBit>
    bfc2:	bf00      	nop
    bfc4:	bd80      	pop	{r7, pc}
    bfc6:	bf00      	nop
    bfc8:	2009c000 	.word	0x2009c000

0000bfcc <Board_lcd_Send_Cmd_Signals>:
    bfcc:	b580      	push	{r7, lr}
    bfce:	af00      	add	r7, sp, #0
    bfd0:	2300      	movs	r3, #0
    bfd2:	2205      	movs	r2, #5
    bfd4:	2102      	movs	r1, #2
    bfd6:	480d      	ldr	r0, [pc, #52]	; (c00c <Board_lcd_Send_Cmd_Signals+0x40>)
    bfd8:	f7ff fe16 	bl	bc08 <Chip_GPIO_WritePortBit>
    bfdc:	2300      	movs	r3, #0
    bfde:	2206      	movs	r2, #6
    bfe0:	2102      	movs	r1, #2
    bfe2:	480a      	ldr	r0, [pc, #40]	; (c00c <Board_lcd_Send_Cmd_Signals+0x40>)
    bfe4:	f7ff fe10 	bl	bc08 <Chip_GPIO_WritePortBit>
    bfe8:	2301      	movs	r3, #1
    bfea:	2207      	movs	r2, #7
    bfec:	2102      	movs	r1, #2
    bfee:	4807      	ldr	r0, [pc, #28]	; (c00c <Board_lcd_Send_Cmd_Signals+0x40>)
    bff0:	f7ff fe0a 	bl	bc08 <Chip_GPIO_WritePortBit>
    bff4:	2064      	movs	r0, #100	; 0x64
    bff6:	f7ff ff53 	bl	bea0 <delay_ms>
    bffa:	2300      	movs	r3, #0
    bffc:	2207      	movs	r2, #7
    bffe:	2102      	movs	r1, #2
    c000:	4802      	ldr	r0, [pc, #8]	; (c00c <Board_lcd_Send_Cmd_Signals+0x40>)
    c002:	f7ff fe01 	bl	bc08 <Chip_GPIO_WritePortBit>
    c006:	bf00      	nop
    c008:	bd80      	pop	{r7, pc}
    c00a:	bf00      	nop
    c00c:	2009c000 	.word	0x2009c000

0000c010 <Board_LCD_Init>:
    c010:	b580      	push	{r7, lr}
    c012:	b082      	sub	sp, #8
    c014:	af00      	add	r7, sp, #0
    c016:	2300      	movs	r3, #0
    c018:	607b      	str	r3, [r7, #4]
    c01a:	e014      	b.n	c046 <Board_LCD_Init+0x36>
    c01c:	4a21      	ldr	r2, [pc, #132]	; (c0a4 <Board_LCD_Init+0x94>)
    c01e:	687b      	ldr	r3, [r7, #4]
    c020:	4413      	add	r3, r2
    c022:	781b      	ldrb	r3, [r3, #0]
    c024:	461a      	mov	r2, r3
    c026:	2102      	movs	r1, #2
    c028:	481f      	ldr	r0, [pc, #124]	; (c0a8 <Board_LCD_Init+0x98>)
    c02a:	f7ff fe03 	bl	bc34 <Chip_GPIO_SetPinDIROutput>
    c02e:	4a1d      	ldr	r2, [pc, #116]	; (c0a4 <Board_LCD_Init+0x94>)
    c030:	687b      	ldr	r3, [r7, #4]
    c032:	4413      	add	r3, r2
    c034:	781a      	ldrb	r2, [r3, #0]
    c036:	2300      	movs	r3, #0
    c038:	2102      	movs	r1, #2
    c03a:	481b      	ldr	r0, [pc, #108]	; (c0a8 <Board_LCD_Init+0x98>)
    c03c:	f7ff fde4 	bl	bc08 <Chip_GPIO_WritePortBit>
    c040:	687b      	ldr	r3, [r7, #4]
    c042:	3301      	adds	r3, #1
    c044:	607b      	str	r3, [r7, #4]
    c046:	687b      	ldr	r3, [r7, #4]
    c048:	2b03      	cmp	r3, #3
    c04a:	dde7      	ble.n	c01c <Board_LCD_Init+0xc>
    c04c:	2300      	movs	r3, #0
    c04e:	607b      	str	r3, [r7, #4]
    c050:	e00b      	b.n	c06a <Board_LCD_Init+0x5a>
    c052:	4a16      	ldr	r2, [pc, #88]	; (c0ac <Board_LCD_Init+0x9c>)
    c054:	687b      	ldr	r3, [r7, #4]
    c056:	4413      	add	r3, r2
    c058:	781b      	ldrb	r3, [r3, #0]
    c05a:	461a      	mov	r2, r3
    c05c:	2100      	movs	r1, #0
    c05e:	4812      	ldr	r0, [pc, #72]	; (c0a8 <Board_LCD_Init+0x98>)
    c060:	f7ff fde8 	bl	bc34 <Chip_GPIO_SetPinDIROutput>
    c064:	687b      	ldr	r3, [r7, #4]
    c066:	3301      	adds	r3, #1
    c068:	607b      	str	r3, [r7, #4]
    c06a:	687b      	ldr	r3, [r7, #4]
    c06c:	2b03      	cmp	r3, #3
    c06e:	ddf0      	ble.n	c052 <Board_LCD_Init+0x42>
    c070:	2033      	movs	r0, #51	; 0x33
    c072:	f7ff ff35 	bl	bee0 <Board_Lcd_Cmd_Write>
    c076:	2032      	movs	r0, #50	; 0x32
    c078:	f7ff ff32 	bl	bee0 <Board_Lcd_Cmd_Write>
    c07c:	2028      	movs	r0, #40	; 0x28
    c07e:	f7ff ff2f 	bl	bee0 <Board_Lcd_Cmd_Write>
    c082:	200e      	movs	r0, #14
    c084:	f7ff ff2c 	bl	bee0 <Board_Lcd_Cmd_Write>
    c088:	2001      	movs	r0, #1
    c08a:	f7ff ff29 	bl	bee0 <Board_Lcd_Cmd_Write>
    c08e:	2006      	movs	r0, #6
    c090:	f7ff ff26 	bl	bee0 <Board_Lcd_Cmd_Write>
    c094:	2080      	movs	r0, #128	; 0x80
    c096:	f7ff ff23 	bl	bee0 <Board_Lcd_Cmd_Write>
    c09a:	bf00      	nop
    c09c:	3708      	adds	r7, #8
    c09e:	46bd      	mov	sp, r7
    c0a0:	bd80      	pop	{r7, pc}
    c0a2:	bf00      	nop
    c0a4:	0000e724 	.word	0x0000e724
    c0a8:	2009c000 	.word	0x2009c000
    c0ac:	0000e728 	.word	0x0000e728

0000c0b0 <Board_Init>:
    c0b0:	b580      	push	{r7, lr}
    c0b2:	af00      	add	r7, sp, #0
    c0b4:	4804      	ldr	r0, [pc, #16]	; (c0c8 <Board_Init+0x18>)
    c0b6:	f7ff fd67 	bl	bb88 <Chip_GPIO_Init>
    c0ba:	4804      	ldr	r0, [pc, #16]	; (c0cc <Board_Init+0x1c>)
    c0bc:	f7ff fd2e 	bl	bb1c <Chip_IOCON_Init>
    c0c0:	f7ff fe62 	bl	bd88 <Board_LED_Init>
    c0c4:	bf00      	nop
    c0c6:	bd80      	pop	{r7, pc}
    c0c8:	2009c000 	.word	0x2009c000
    c0cc:	4002c000 	.word	0x4002c000

0000c0d0 <Board_I2C_Init>:
    c0d0:	b580      	push	{r7, lr}
    c0d2:	b084      	sub	sp, #16
    c0d4:	af02      	add	r7, sp, #8
    c0d6:	4603      	mov	r3, r0
    c0d8:	71fb      	strb	r3, [r7, #7]
    c0da:	79fb      	ldrb	r3, [r7, #7]
    c0dc:	2b01      	cmp	r3, #1
    c0de:	d019      	beq.n	c114 <Board_I2C_Init+0x44>
    c0e0:	2b02      	cmp	r3, #2
    c0e2:	d032      	beq.n	c14a <Board_I2C_Init+0x7a>
    c0e4:	2b00      	cmp	r3, #0
    c0e6:	d000      	beq.n	c0ea <Board_I2C_Init+0x1a>
    c0e8:	e04a      	b.n	c180 <Board_I2C_Init+0xb0>
    c0ea:	2301      	movs	r3, #1
    c0ec:	9300      	str	r3, [sp, #0]
    c0ee:	2308      	movs	r3, #8
    c0f0:	221b      	movs	r2, #27
    c0f2:	2100      	movs	r1, #0
    c0f4:	4824      	ldr	r0, [pc, #144]	; (c188 <Board_I2C_Init+0xb8>)
    c0f6:	f001 f867 	bl	d1c8 <Chip_IOCON_PinMux>
    c0fa:	2301      	movs	r3, #1
    c0fc:	9300      	str	r3, [sp, #0]
    c0fe:	2308      	movs	r3, #8
    c100:	221c      	movs	r2, #28
    c102:	2100      	movs	r1, #0
    c104:	4820      	ldr	r0, [pc, #128]	; (c188 <Board_I2C_Init+0xb8>)
    c106:	f001 f85f 	bl	d1c8 <Chip_IOCON_PinMux>
    c10a:	2100      	movs	r1, #0
    c10c:	481e      	ldr	r0, [pc, #120]	; (c188 <Board_I2C_Init+0xb8>)
    c10e:	f7ff fd2d 	bl	bb6c <Chip_IOCON_SetI2CPad>
    c112:	e035      	b.n	c180 <Board_I2C_Init+0xb0>
    c114:	2302      	movs	r3, #2
    c116:	9300      	str	r3, [sp, #0]
    c118:	2308      	movs	r3, #8
    c11a:	2213      	movs	r2, #19
    c11c:	2100      	movs	r1, #0
    c11e:	481a      	ldr	r0, [pc, #104]	; (c188 <Board_I2C_Init+0xb8>)
    c120:	f001 f852 	bl	d1c8 <Chip_IOCON_PinMux>
    c124:	2302      	movs	r3, #2
    c126:	9300      	str	r3, [sp, #0]
    c128:	2308      	movs	r3, #8
    c12a:	2214      	movs	r2, #20
    c12c:	2100      	movs	r1, #0
    c12e:	4816      	ldr	r0, [pc, #88]	; (c188 <Board_I2C_Init+0xb8>)
    c130:	f001 f84a 	bl	d1c8 <Chip_IOCON_PinMux>
    c134:	2213      	movs	r2, #19
    c136:	2100      	movs	r1, #0
    c138:	4813      	ldr	r0, [pc, #76]	; (c188 <Board_I2C_Init+0xb8>)
    c13a:	f7ff fcfb 	bl	bb34 <Chip_IOCON_EnableOD>
    c13e:	2214      	movs	r2, #20
    c140:	2100      	movs	r1, #0
    c142:	4811      	ldr	r0, [pc, #68]	; (c188 <Board_I2C_Init+0xb8>)
    c144:	f7ff fcf6 	bl	bb34 <Chip_IOCON_EnableOD>
    c148:	e01a      	b.n	c180 <Board_I2C_Init+0xb0>
    c14a:	2302      	movs	r3, #2
    c14c:	9300      	str	r3, [sp, #0]
    c14e:	2308      	movs	r3, #8
    c150:	220a      	movs	r2, #10
    c152:	2100      	movs	r1, #0
    c154:	480c      	ldr	r0, [pc, #48]	; (c188 <Board_I2C_Init+0xb8>)
    c156:	f001 f837 	bl	d1c8 <Chip_IOCON_PinMux>
    c15a:	2302      	movs	r3, #2
    c15c:	9300      	str	r3, [sp, #0]
    c15e:	2308      	movs	r3, #8
    c160:	220b      	movs	r2, #11
    c162:	2100      	movs	r1, #0
    c164:	4808      	ldr	r0, [pc, #32]	; (c188 <Board_I2C_Init+0xb8>)
    c166:	f001 f82f 	bl	d1c8 <Chip_IOCON_PinMux>
    c16a:	220a      	movs	r2, #10
    c16c:	2100      	movs	r1, #0
    c16e:	4806      	ldr	r0, [pc, #24]	; (c188 <Board_I2C_Init+0xb8>)
    c170:	f7ff fce0 	bl	bb34 <Chip_IOCON_EnableOD>
    c174:	220b      	movs	r2, #11
    c176:	2100      	movs	r1, #0
    c178:	4803      	ldr	r0, [pc, #12]	; (c188 <Board_I2C_Init+0xb8>)
    c17a:	f7ff fcdb 	bl	bb34 <Chip_IOCON_EnableOD>
    c17e:	bf00      	nop
    c180:	bf00      	nop
    c182:	3708      	adds	r7, #8
    c184:	46bd      	mov	sp, r7
    c186:	bd80      	pop	{r7, pc}
    c188:	4002c000 	.word	0x4002c000

0000c18c <Chip_SYSCTL_SetFLASHAccess>:
    c18c:	b480      	push	{r7}
    c18e:	b085      	sub	sp, #20
    c190:	af00      	add	r7, sp, #0
    c192:	4603      	mov	r3, r0
    c194:	71fb      	strb	r3, [r7, #7]
    c196:	4b08      	ldr	r3, [pc, #32]	; (c1b8 <Chip_SYSCTL_SetFLASHAccess+0x2c>)
    c198:	681b      	ldr	r3, [r3, #0]
    c19a:	f3c3 030b 	ubfx	r3, r3, #0, #12
    c19e:	60fb      	str	r3, [r7, #12]
    c1a0:	4a05      	ldr	r2, [pc, #20]	; (c1b8 <Chip_SYSCTL_SetFLASHAccess+0x2c>)
    c1a2:	79fb      	ldrb	r3, [r7, #7]
    c1a4:	031b      	lsls	r3, r3, #12
    c1a6:	4619      	mov	r1, r3
    c1a8:	68fb      	ldr	r3, [r7, #12]
    c1aa:	430b      	orrs	r3, r1
    c1ac:	6013      	str	r3, [r2, #0]
    c1ae:	bf00      	nop
    c1b0:	3714      	adds	r7, #20
    c1b2:	46bd      	mov	sp, r7
    c1b4:	bc80      	pop	{r7}
    c1b6:	4770      	bx	lr
    c1b8:	400fc000 	.word	0x400fc000

0000c1bc <Board_SetupMuxing>:
    c1bc:	b580      	push	{r7, lr}
    c1be:	af00      	add	r7, sp, #0
    c1c0:	2217      	movs	r2, #23
    c1c2:	4903      	ldr	r1, [pc, #12]	; (c1d0 <Board_SetupMuxing+0x14>)
    c1c4:	4803      	ldr	r0, [pc, #12]	; (c1d4 <Board_SetupMuxing+0x18>)
    c1c6:	f001 f849 	bl	d25c <Chip_IOCON_SetPinMuxing>
    c1ca:	bf00      	nop
    c1cc:	bd80      	pop	{r7, pc}
    c1ce:	bf00      	nop
    c1d0:	0000e72c 	.word	0x0000e72c
    c1d4:	4002c000 	.word	0x4002c000

0000c1d8 <Board_SetupClocking>:
    c1d8:	b580      	push	{r7, lr}
    c1da:	af00      	add	r7, sp, #0
    c1dc:	f001 fb72 	bl	d8c4 <Chip_SetupXtalClocking>
    c1e0:	2004      	movs	r0, #4
    c1e2:	f7ff ffd3 	bl	c18c <Chip_SYSCTL_SetFLASHAccess>
    c1e6:	bf00      	nop
    c1e8:	bd80      	pop	{r7, pc}
    c1ea:	bf00      	nop

0000c1ec <Board_SystemInit>:
    c1ec:	b580      	push	{r7, lr}
    c1ee:	af00      	add	r7, sp, #0
    c1f0:	f7ff ffe4 	bl	c1bc <Board_SetupMuxing>
    c1f4:	f7ff fff0 	bl	c1d8 <Board_SetupClocking>
    c1f8:	bf00      	nop
    c1fa:	bd80      	pop	{r7, pc}

0000c1fc <SystemCoreClockUpdate>:
    c1fc:	b580      	push	{r7, lr}
    c1fe:	af00      	add	r7, sp, #0
    c200:	f000 f9f2 	bl	c5e8 <Chip_Clock_GetSystemClockRate>
    c204:	4602      	mov	r2, r0
    c206:	4b02      	ldr	r3, [pc, #8]	; (c210 <SystemCoreClockUpdate+0x14>)
    c208:	601a      	str	r2, [r3, #0]
    c20a:	bf00      	nop
    c20c:	bd80      	pop	{r7, pc}
    c20e:	bf00      	nop
    c210:	10004c14 	.word	0x10004c14

0000c214 <Chip_Clock_IsMainPLLEnabled>:
    c214:	b480      	push	{r7}
    c216:	af00      	add	r7, sp, #0
    c218:	4b06      	ldr	r3, [pc, #24]	; (c234 <Chip_Clock_IsMainPLLEnabled+0x20>)
    c21a:	f8d3 3088 	ldr.w	r3, [r3, #136]	; 0x88
    c21e:	f003 7380 	and.w	r3, r3, #16777216	; 0x1000000
    c222:	2b00      	cmp	r3, #0
    c224:	bf14      	ite	ne
    c226:	2301      	movne	r3, #1
    c228:	2300      	moveq	r3, #0
    c22a:	b2db      	uxtb	r3, r3
    c22c:	4618      	mov	r0, r3
    c22e:	46bd      	mov	sp, r7
    c230:	bc80      	pop	{r7}
    c232:	4770      	bx	lr
    c234:	400fc000 	.word	0x400fc000

0000c238 <Chip_Clock_IsMainPLLConnected>:
    c238:	b480      	push	{r7}
    c23a:	af00      	add	r7, sp, #0
    c23c:	4b06      	ldr	r3, [pc, #24]	; (c258 <Chip_Clock_IsMainPLLConnected+0x20>)
    c23e:	f8d3 3088 	ldr.w	r3, [r3, #136]	; 0x88
    c242:	f003 7300 	and.w	r3, r3, #33554432	; 0x2000000
    c246:	2b00      	cmp	r3, #0
    c248:	bf14      	ite	ne
    c24a:	2301      	movne	r3, #1
    c24c:	2300      	moveq	r3, #0
    c24e:	b2db      	uxtb	r3, r3
    c250:	4618      	mov	r0, r3
    c252:	46bd      	mov	sp, r7
    c254:	bc80      	pop	{r7}
    c256:	4770      	bx	lr
    c258:	400fc000 	.word	0x400fc000

0000c25c <Chip_Clock_FeedPLL>:
    c25c:	b480      	push	{r7}
    c25e:	b083      	sub	sp, #12
    c260:	af00      	add	r7, sp, #0
    c262:	4603      	mov	r3, r0
    c264:	71fb      	strb	r3, [r7, #7]
    c266:	4a09      	ldr	r2, [pc, #36]	; (c28c <Chip_Clock_FeedPLL+0x30>)
    c268:	79fb      	ldrb	r3, [r7, #7]
    c26a:	015b      	lsls	r3, r3, #5
    c26c:	4413      	add	r3, r2
    c26e:	338c      	adds	r3, #140	; 0x8c
    c270:	22aa      	movs	r2, #170	; 0xaa
    c272:	601a      	str	r2, [r3, #0]
    c274:	4a05      	ldr	r2, [pc, #20]	; (c28c <Chip_Clock_FeedPLL+0x30>)
    c276:	79fb      	ldrb	r3, [r7, #7]
    c278:	015b      	lsls	r3, r3, #5
    c27a:	4413      	add	r3, r2
    c27c:	338c      	adds	r3, #140	; 0x8c
    c27e:	2255      	movs	r2, #85	; 0x55
    c280:	601a      	str	r2, [r3, #0]
    c282:	bf00      	nop
    c284:	370c      	adds	r7, #12
    c286:	46bd      	mov	sp, r7
    c288:	bc80      	pop	{r7}
    c28a:	4770      	bx	lr
    c28c:	400fc000 	.word	0x400fc000

0000c290 <Chip_Clock_GetMainPLLSource>:
    c290:	b480      	push	{r7}
    c292:	af00      	add	r7, sp, #0
    c294:	4b05      	ldr	r3, [pc, #20]	; (c2ac <Chip_Clock_GetMainPLLSource+0x1c>)
    c296:	f8d3 310c 	ldr.w	r3, [r3, #268]	; 0x10c
    c29a:	b2db      	uxtb	r3, r3
    c29c:	f003 0303 	and.w	r3, r3, #3
    c2a0:	b2db      	uxtb	r3, r3
    c2a2:	4618      	mov	r0, r3
    c2a4:	46bd      	mov	sp, r7
    c2a6:	bc80      	pop	{r7}
    c2a8:	4770      	bx	lr
    c2aa:	bf00      	nop
    c2ac:	400fc000 	.word	0x400fc000

0000c2b0 <Chip_Clock_GetMainOscRate>:
    c2b0:	b480      	push	{r7}
    c2b2:	af00      	add	r7, sp, #0
    c2b4:	4b02      	ldr	r3, [pc, #8]	; (c2c0 <Chip_Clock_GetMainOscRate+0x10>)
    c2b6:	681b      	ldr	r3, [r3, #0]
    c2b8:	4618      	mov	r0, r3
    c2ba:	46bd      	mov	sp, r7
    c2bc:	bc80      	pop	{r7}
    c2be:	4770      	bx	lr
    c2c0:	0000e71c 	.word	0x0000e71c

0000c2c4 <Chip_Clock_GetIntOscRate>:
    c2c4:	b480      	push	{r7}
    c2c6:	af00      	add	r7, sp, #0
    c2c8:	4b02      	ldr	r3, [pc, #8]	; (c2d4 <Chip_Clock_GetIntOscRate+0x10>)
    c2ca:	4618      	mov	r0, r3
    c2cc:	46bd      	mov	sp, r7
    c2ce:	bc80      	pop	{r7}
    c2d0:	4770      	bx	lr
    c2d2:	bf00      	nop
    c2d4:	003d0900 	.word	0x003d0900

0000c2d8 <Chip_Clock_GetRTCOscRate>:
    c2d8:	b480      	push	{r7}
    c2da:	af00      	add	r7, sp, #0
    c2dc:	4b02      	ldr	r3, [pc, #8]	; (c2e8 <Chip_Clock_GetRTCOscRate+0x10>)
    c2de:	681b      	ldr	r3, [r3, #0]
    c2e0:	4618      	mov	r0, r3
    c2e2:	46bd      	mov	sp, r7
    c2e4:	bc80      	pop	{r7}
    c2e6:	4770      	bx	lr
    c2e8:	0000e720 	.word	0x0000e720

0000c2ec <Chip_Clock_GetMainPLLInClockRate>:
    c2ec:	b580      	push	{r7, lr}
    c2ee:	af00      	add	r7, sp, #0
    c2f0:	f000 f922 	bl	c538 <Chip_Clock_GetSYSCLKRate>
    c2f4:	4603      	mov	r3, r0
    c2f6:	4618      	mov	r0, r3
    c2f8:	bd80      	pop	{r7, pc}
    c2fa:	bf00      	nop

0000c2fc <Chip_Clock_EnablePLL>:
    c2fc:	b580      	push	{r7, lr}
    c2fe:	b084      	sub	sp, #16
    c300:	af00      	add	r7, sp, #0
    c302:	4603      	mov	r3, r0
    c304:	6039      	str	r1, [r7, #0]
    c306:	71fb      	strb	r3, [r7, #7]
    c308:	4a0c      	ldr	r2, [pc, #48]	; (c33c <Chip_Clock_EnablePLL+0x40>)
    c30a:	79fb      	ldrb	r3, [r7, #7]
    c30c:	3304      	adds	r3, #4
    c30e:	015b      	lsls	r3, r3, #5
    c310:	4413      	add	r3, r2
    c312:	681b      	ldr	r3, [r3, #0]
    c314:	60fb      	str	r3, [r7, #12]
    c316:	68fa      	ldr	r2, [r7, #12]
    c318:	683b      	ldr	r3, [r7, #0]
    c31a:	4313      	orrs	r3, r2
    c31c:	60fb      	str	r3, [r7, #12]
    c31e:	4a07      	ldr	r2, [pc, #28]	; (c33c <Chip_Clock_EnablePLL+0x40>)
    c320:	79fb      	ldrb	r3, [r7, #7]
    c322:	3304      	adds	r3, #4
    c324:	015b      	lsls	r3, r3, #5
    c326:	4413      	add	r3, r2
    c328:	68fa      	ldr	r2, [r7, #12]
    c32a:	601a      	str	r2, [r3, #0]
    c32c:	79fb      	ldrb	r3, [r7, #7]
    c32e:	4618      	mov	r0, r3
    c330:	f7ff ff94 	bl	c25c <Chip_Clock_FeedPLL>
    c334:	bf00      	nop
    c336:	3710      	adds	r7, #16
    c338:	46bd      	mov	sp, r7
    c33a:	bd80      	pop	{r7, pc}
    c33c:	400fc000 	.word	0x400fc000

0000c340 <Chip_Clock_DisablePLL>:
    c340:	b580      	push	{r7, lr}
    c342:	b084      	sub	sp, #16
    c344:	af00      	add	r7, sp, #0
    c346:	4603      	mov	r3, r0
    c348:	6039      	str	r1, [r7, #0]
    c34a:	71fb      	strb	r3, [r7, #7]
    c34c:	4a0d      	ldr	r2, [pc, #52]	; (c384 <Chip_Clock_DisablePLL+0x44>)
    c34e:	79fb      	ldrb	r3, [r7, #7]
    c350:	3304      	adds	r3, #4
    c352:	015b      	lsls	r3, r3, #5
    c354:	4413      	add	r3, r2
    c356:	681b      	ldr	r3, [r3, #0]
    c358:	60fb      	str	r3, [r7, #12]
    c35a:	683b      	ldr	r3, [r7, #0]
    c35c:	43db      	mvns	r3, r3
    c35e:	68fa      	ldr	r2, [r7, #12]
    c360:	4013      	ands	r3, r2
    c362:	60fb      	str	r3, [r7, #12]
    c364:	4a07      	ldr	r2, [pc, #28]	; (c384 <Chip_Clock_DisablePLL+0x44>)
    c366:	79fb      	ldrb	r3, [r7, #7]
    c368:	3304      	adds	r3, #4
    c36a:	015b      	lsls	r3, r3, #5
    c36c:	4413      	add	r3, r2
    c36e:	68fa      	ldr	r2, [r7, #12]
    c370:	601a      	str	r2, [r3, #0]
    c372:	79fb      	ldrb	r3, [r7, #7]
    c374:	4618      	mov	r0, r3
    c376:	f7ff ff71 	bl	c25c <Chip_Clock_FeedPLL>
    c37a:	bf00      	nop
    c37c:	3710      	adds	r7, #16
    c37e:	46bd      	mov	sp, r7
    c380:	bd80      	pop	{r7, pc}
    c382:	bf00      	nop
    c384:	400fc000 	.word	0x400fc000

0000c388 <Chip_Clock_SetupPLL>:
    c388:	b580      	push	{r7, lr}
    c38a:	b086      	sub	sp, #24
    c38c:	af00      	add	r7, sp, #0
    c38e:	4603      	mov	r3, r0
    c390:	60b9      	str	r1, [r7, #8]
    c392:	607a      	str	r2, [r7, #4]
    c394:	73fb      	strb	r3, [r7, #15]
    c396:	7bfb      	ldrb	r3, [r7, #15]
    c398:	2b00      	cmp	r3, #0
    c39a:	d105      	bne.n	c3a8 <Chip_Clock_SetupPLL+0x20>
    c39c:	687b      	ldr	r3, [r7, #4]
    c39e:	041a      	lsls	r2, r3, #16
    c3a0:	68bb      	ldr	r3, [r7, #8]
    c3a2:	4313      	orrs	r3, r2
    c3a4:	617b      	str	r3, [r7, #20]
    c3a6:	e004      	b.n	c3b2 <Chip_Clock_SetupPLL+0x2a>
    c3a8:	687b      	ldr	r3, [r7, #4]
    c3aa:	015a      	lsls	r2, r3, #5
    c3ac:	68bb      	ldr	r3, [r7, #8]
    c3ae:	4313      	orrs	r3, r2
    c3b0:	617b      	str	r3, [r7, #20]
    c3b2:	4a0b      	ldr	r2, [pc, #44]	; (c3e0 <Chip_Clock_SetupPLL+0x58>)
    c3b4:	7bfb      	ldrb	r3, [r7, #15]
    c3b6:	3304      	adds	r3, #4
    c3b8:	015b      	lsls	r3, r3, #5
    c3ba:	4413      	add	r3, r2
    c3bc:	3304      	adds	r3, #4
    c3be:	697a      	ldr	r2, [r7, #20]
    c3c0:	601a      	str	r2, [r3, #0]
    c3c2:	4a07      	ldr	r2, [pc, #28]	; (c3e0 <Chip_Clock_SetupPLL+0x58>)
    c3c4:	7bfb      	ldrb	r3, [r7, #15]
    c3c6:	3304      	adds	r3, #4
    c3c8:	015b      	lsls	r3, r3, #5
    c3ca:	4413      	add	r3, r2
    c3cc:	2201      	movs	r2, #1
    c3ce:	601a      	str	r2, [r3, #0]
    c3d0:	7bfb      	ldrb	r3, [r7, #15]
    c3d2:	4618      	mov	r0, r3
    c3d4:	f7ff ff42 	bl	c25c <Chip_Clock_FeedPLL>
    c3d8:	bf00      	nop
    c3da:	3718      	adds	r7, #24
    c3dc:	46bd      	mov	sp, r7
    c3de:	bd80      	pop	{r7, pc}
    c3e0:	400fc000 	.word	0x400fc000

0000c3e4 <Chip_Clock_EnablePeriphClock>:
    c3e4:	b480      	push	{r7}
    c3e6:	b085      	sub	sp, #20
    c3e8:	af00      	add	r7, sp, #0
    c3ea:	4603      	mov	r3, r0
    c3ec:	71fb      	strb	r3, [r7, #7]
    c3ee:	79fb      	ldrb	r3, [r7, #7]
    c3f0:	60fb      	str	r3, [r7, #12]
    c3f2:	4908      	ldr	r1, [pc, #32]	; (c414 <Chip_Clock_EnablePeriphClock+0x30>)
    c3f4:	4b07      	ldr	r3, [pc, #28]	; (c414 <Chip_Clock_EnablePeriphClock+0x30>)
    c3f6:	f8d3 30c4 	ldr.w	r3, [r3, #196]	; 0xc4
    c3fa:	2001      	movs	r0, #1
    c3fc:	68fa      	ldr	r2, [r7, #12]
    c3fe:	fa00 f202 	lsl.w	r2, r0, r2
    c402:	4313      	orrs	r3, r2
    c404:	f8c1 30c4 	str.w	r3, [r1, #196]	; 0xc4
    c408:	bf00      	nop
    c40a:	3714      	adds	r7, #20
    c40c:	46bd      	mov	sp, r7
    c40e:	bc80      	pop	{r7}
    c410:	4770      	bx	lr
    c412:	bf00      	nop
    c414:	400fc000 	.word	0x400fc000

0000c418 <Chip_Clock_DisablePeriphClock>:
    c418:	b480      	push	{r7}
    c41a:	b085      	sub	sp, #20
    c41c:	af00      	add	r7, sp, #0
    c41e:	4603      	mov	r3, r0
    c420:	71fb      	strb	r3, [r7, #7]
    c422:	79fb      	ldrb	r3, [r7, #7]
    c424:	60fb      	str	r3, [r7, #12]
    c426:	4908      	ldr	r1, [pc, #32]	; (c448 <Chip_Clock_DisablePeriphClock+0x30>)
    c428:	4b07      	ldr	r3, [pc, #28]	; (c448 <Chip_Clock_DisablePeriphClock+0x30>)
    c42a:	f8d3 30c4 	ldr.w	r3, [r3, #196]	; 0xc4
    c42e:	2001      	movs	r0, #1
    c430:	68fa      	ldr	r2, [r7, #12]
    c432:	fa00 f202 	lsl.w	r2, r0, r2
    c436:	43d2      	mvns	r2, r2
    c438:	4313      	orrs	r3, r2
    c43a:	f8c1 30c4 	str.w	r3, [r1, #196]	; 0xc4
    c43e:	bf00      	nop
    c440:	3714      	adds	r7, #20
    c442:	46bd      	mov	sp, r7
    c444:	bc80      	pop	{r7}
    c446:	4770      	bx	lr
    c448:	400fc000 	.word	0x400fc000

0000c44c <Chip_Clock_GetCPUClockSource>:
    c44c:	b580      	push	{r7, lr}
    c44e:	b082      	sub	sp, #8
    c450:	af00      	add	r7, sp, #0
    c452:	f7ff fef1 	bl	c238 <Chip_Clock_IsMainPLLConnected>
    c456:	4603      	mov	r3, r0
    c458:	2b00      	cmp	r3, #0
    c45a:	d002      	beq.n	c462 <Chip_Clock_GetCPUClockSource+0x16>
    c45c:	2301      	movs	r3, #1
    c45e:	71fb      	strb	r3, [r7, #7]
    c460:	e001      	b.n	c466 <Chip_Clock_GetCPUClockSource+0x1a>
    c462:	2300      	movs	r3, #0
    c464:	71fb      	strb	r3, [r7, #7]
    c466:	79fb      	ldrb	r3, [r7, #7]
    c468:	4618      	mov	r0, r3
    c46a:	3708      	adds	r7, #8
    c46c:	46bd      	mov	sp, r7
    c46e:	bd80      	pop	{r7, pc}

0000c470 <Chip_Clock_SetCPUClockDiv>:
    c470:	b480      	push	{r7}
    c472:	b083      	sub	sp, #12
    c474:	af00      	add	r7, sp, #0
    c476:	6078      	str	r0, [r7, #4]
    c478:	4a04      	ldr	r2, [pc, #16]	; (c48c <Chip_Clock_SetCPUClockDiv+0x1c>)
    c47a:	687b      	ldr	r3, [r7, #4]
    c47c:	f8c2 3104 	str.w	r3, [r2, #260]	; 0x104
    c480:	bf00      	nop
    c482:	370c      	adds	r7, #12
    c484:	46bd      	mov	sp, r7
    c486:	bc80      	pop	{r7}
    c488:	4770      	bx	lr
    c48a:	bf00      	nop
    c48c:	400fc000 	.word	0x400fc000

0000c490 <Chip_Clock_GetCPUClockDiv>:
    c490:	b480      	push	{r7}
    c492:	af00      	add	r7, sp, #0
    c494:	4b04      	ldr	r3, [pc, #16]	; (c4a8 <Chip_Clock_GetCPUClockDiv+0x18>)
    c496:	f8d3 3104 	ldr.w	r3, [r3, #260]	; 0x104
    c49a:	b2db      	uxtb	r3, r3
    c49c:	3301      	adds	r3, #1
    c49e:	4618      	mov	r0, r3
    c4a0:	46bd      	mov	sp, r7
    c4a2:	bc80      	pop	{r7}
    c4a4:	4770      	bx	lr
    c4a6:	bf00      	nop
    c4a8:	400fc000 	.word	0x400fc000

0000c4ac <Chip_Clock_GetPCLKDiv>:
    c4ac:	b480      	push	{r7}
    c4ae:	b087      	sub	sp, #28
    c4b0:	af00      	add	r7, sp, #0
    c4b2:	4603      	mov	r3, r0
    c4b4:	71fb      	strb	r3, [r7, #7]
    c4b6:	2301      	movs	r3, #1
    c4b8:	617b      	str	r3, [r7, #20]
    c4ba:	79fb      	ldrb	r3, [r7, #7]
    c4bc:	005b      	lsls	r3, r3, #1
    c4be:	613b      	str	r3, [r7, #16]
    c4c0:	693b      	ldr	r3, [r7, #16]
    c4c2:	f003 031f 	and.w	r3, r3, #31
    c4c6:	60fb      	str	r3, [r7, #12]
    c4c8:	693b      	ldr	r3, [r7, #16]
    c4ca:	095b      	lsrs	r3, r3, #5
    c4cc:	613b      	str	r3, [r7, #16]
    c4ce:	4a19      	ldr	r2, [pc, #100]	; (c534 <Chip_Clock_GetPCLKDiv+0x88>)
    c4d0:	693b      	ldr	r3, [r7, #16]
    c4d2:	336a      	adds	r3, #106	; 0x6a
    c4d4:	f852 3023 	ldr.w	r3, [r2, r3, lsl #2]
    c4d8:	617b      	str	r3, [r7, #20]
    c4da:	697a      	ldr	r2, [r7, #20]
    c4dc:	68fb      	ldr	r3, [r7, #12]
    c4de:	fa22 f303 	lsr.w	r3, r2, r3
    c4e2:	f003 0303 	and.w	r3, r3, #3
    c4e6:	617b      	str	r3, [r7, #20]
    c4e8:	697b      	ldr	r3, [r7, #20]
    c4ea:	2b00      	cmp	r3, #0
    c4ec:	d102      	bne.n	c4f4 <Chip_Clock_GetPCLKDiv+0x48>
    c4ee:	2304      	movs	r3, #4
    c4f0:	617b      	str	r3, [r7, #20]
    c4f2:	e019      	b.n	c528 <Chip_Clock_GetPCLKDiv+0x7c>
    c4f4:	697b      	ldr	r3, [r7, #20]
    c4f6:	2b01      	cmp	r3, #1
    c4f8:	d102      	bne.n	c500 <Chip_Clock_GetPCLKDiv+0x54>
    c4fa:	2301      	movs	r3, #1
    c4fc:	617b      	str	r3, [r7, #20]
    c4fe:	e013      	b.n	c528 <Chip_Clock_GetPCLKDiv+0x7c>
    c500:	697b      	ldr	r3, [r7, #20]
    c502:	2b02      	cmp	r3, #2
    c504:	d102      	bne.n	c50c <Chip_Clock_GetPCLKDiv+0x60>
    c506:	2302      	movs	r3, #2
    c508:	617b      	str	r3, [r7, #20]
    c50a:	e00d      	b.n	c528 <Chip_Clock_GetPCLKDiv+0x7c>
    c50c:	79fb      	ldrb	r3, [r7, #7]
    c50e:	2b0d      	cmp	r3, #13
    c510:	d005      	beq.n	c51e <Chip_Clock_GetPCLKDiv+0x72>
    c512:	79fb      	ldrb	r3, [r7, #7]
    c514:	2b0e      	cmp	r3, #14
    c516:	d002      	beq.n	c51e <Chip_Clock_GetPCLKDiv+0x72>
    c518:	79fb      	ldrb	r3, [r7, #7]
    c51a:	2b0f      	cmp	r3, #15
    c51c:	d102      	bne.n	c524 <Chip_Clock_GetPCLKDiv+0x78>
    c51e:	2306      	movs	r3, #6
    c520:	617b      	str	r3, [r7, #20]
    c522:	e001      	b.n	c528 <Chip_Clock_GetPCLKDiv+0x7c>
    c524:	2308      	movs	r3, #8
    c526:	617b      	str	r3, [r7, #20]
    c528:	697b      	ldr	r3, [r7, #20]
    c52a:	4618      	mov	r0, r3
    c52c:	371c      	adds	r7, #28
    c52e:	46bd      	mov	sp, r7
    c530:	bc80      	pop	{r7}
    c532:	4770      	bx	lr
    c534:	400fc000 	.word	0x400fc000

0000c538 <Chip_Clock_GetSYSCLKRate>:
    c538:	b580      	push	{r7, lr}
    c53a:	af00      	add	r7, sp, #0
    c53c:	f7ff fea8 	bl	c290 <Chip_Clock_GetMainPLLSource>
    c540:	4603      	mov	r3, r0
    c542:	2b01      	cmp	r3, #1
    c544:	d007      	beq.n	c556 <Chip_Clock_GetSYSCLKRate+0x1e>
    c546:	2b02      	cmp	r3, #2
    c548:	d009      	beq.n	c55e <Chip_Clock_GetSYSCLKRate+0x26>
    c54a:	2b00      	cmp	r3, #0
    c54c:	d10b      	bne.n	c566 <Chip_Clock_GetSYSCLKRate+0x2e>
    c54e:	f7ff feb9 	bl	c2c4 <Chip_Clock_GetIntOscRate>
    c552:	4603      	mov	r3, r0
    c554:	e008      	b.n	c568 <Chip_Clock_GetSYSCLKRate+0x30>
    c556:	f7ff feab 	bl	c2b0 <Chip_Clock_GetMainOscRate>
    c55a:	4603      	mov	r3, r0
    c55c:	e004      	b.n	c568 <Chip_Clock_GetSYSCLKRate+0x30>
    c55e:	f7ff febb 	bl	c2d8 <Chip_Clock_GetRTCOscRate>
    c562:	4603      	mov	r3, r0
    c564:	e000      	b.n	c568 <Chip_Clock_GetSYSCLKRate+0x30>
    c566:	2300      	movs	r3, #0
    c568:	4618      	mov	r0, r3
    c56a:	bd80      	pop	{r7, pc}

0000c56c <Chip_Clock_GetMainPLLOutClockRate>:
    c56c:	b580      	push	{r7, lr}
    c56e:	b084      	sub	sp, #16
    c570:	af00      	add	r7, sp, #0
    c572:	2300      	movs	r3, #0
    c574:	60fb      	str	r3, [r7, #12]
    c576:	f7ff fe4d 	bl	c214 <Chip_Clock_IsMainPLLEnabled>
    c57a:	4603      	mov	r3, r0
    c57c:	2b00      	cmp	r3, #0
    c57e:	d018      	beq.n	c5b2 <Chip_Clock_GetMainPLLOutClockRate+0x46>
    c580:	4b0e      	ldr	r3, [pc, #56]	; (c5bc <Chip_Clock_GetMainPLLOutClockRate+0x50>)
    c582:	f8d3 3084 	ldr.w	r3, [r3, #132]	; 0x84
    c586:	f3c3 030e 	ubfx	r3, r3, #0, #15
    c58a:	3301      	adds	r3, #1
    c58c:	60bb      	str	r3, [r7, #8]
    c58e:	4b0b      	ldr	r3, [pc, #44]	; (c5bc <Chip_Clock_GetMainPLLOutClockRate+0x50>)
    c590:	f8d3 3084 	ldr.w	r3, [r3, #132]	; 0x84
    c594:	0c1b      	lsrs	r3, r3, #16
    c596:	b2db      	uxtb	r3, r3
    c598:	3301      	adds	r3, #1
    c59a:	607b      	str	r3, [r7, #4]
    c59c:	f7ff fea6 	bl	c2ec <Chip_Clock_GetMainPLLInClockRate>
    c5a0:	4602      	mov	r2, r0
    c5a2:	68bb      	ldr	r3, [r7, #8]
    c5a4:	fb03 f302 	mul.w	r3, r3, r2
    c5a8:	005a      	lsls	r2, r3, #1
    c5aa:	687b      	ldr	r3, [r7, #4]
    c5ac:	fbb2 f3f3 	udiv	r3, r2, r3
    c5b0:	60fb      	str	r3, [r7, #12]
    c5b2:	68fb      	ldr	r3, [r7, #12]
    c5b4:	4618      	mov	r0, r3
    c5b6:	3710      	adds	r7, #16
    c5b8:	46bd      	mov	sp, r7
    c5ba:	bd80      	pop	{r7, pc}
    c5bc:	400fc000 	.word	0x400fc000

0000c5c0 <Chip_Clock_GetMainClockRate>:
    c5c0:	b580      	push	{r7, lr}
    c5c2:	af00      	add	r7, sp, #0
    c5c4:	f7ff ff42 	bl	c44c <Chip_Clock_GetCPUClockSource>
    c5c8:	4603      	mov	r3, r0
    c5ca:	2b00      	cmp	r3, #0
    c5cc:	d005      	beq.n	c5da <Chip_Clock_GetMainClockRate+0x1a>
    c5ce:	2b01      	cmp	r3, #1
    c5d0:	d107      	bne.n	c5e2 <Chip_Clock_GetMainClockRate+0x22>
    c5d2:	f7ff ffcb 	bl	c56c <Chip_Clock_GetMainPLLOutClockRate>
    c5d6:	4603      	mov	r3, r0
    c5d8:	e004      	b.n	c5e4 <Chip_Clock_GetMainClockRate+0x24>
    c5da:	f7ff ffad 	bl	c538 <Chip_Clock_GetSYSCLKRate>
    c5de:	4603      	mov	r3, r0
    c5e0:	e000      	b.n	c5e4 <Chip_Clock_GetMainClockRate+0x24>
    c5e2:	2300      	movs	r3, #0
    c5e4:	4618      	mov	r0, r3
    c5e6:	bd80      	pop	{r7, pc}

0000c5e8 <Chip_Clock_GetSystemClockRate>:
    c5e8:	b598      	push	{r3, r4, r7, lr}
    c5ea:	af00      	add	r7, sp, #0
    c5ec:	f7ff ffe8 	bl	c5c0 <Chip_Clock_GetMainClockRate>
    c5f0:	4604      	mov	r4, r0
    c5f2:	f7ff ff4d 	bl	c490 <Chip_Clock_GetCPUClockDiv>
    c5f6:	4603      	mov	r3, r0
    c5f8:	fbb4 f3f3 	udiv	r3, r4, r3
    c5fc:	4618      	mov	r0, r3
    c5fe:	bd98      	pop	{r3, r4, r7, pc}

0000c600 <Chip_Clock_GetPeripheralClockRate>:
    c600:	b590      	push	{r4, r7, lr}
    c602:	b083      	sub	sp, #12
    c604:	af00      	add	r7, sp, #0
    c606:	4603      	mov	r3, r0
    c608:	71fb      	strb	r3, [r7, #7]
    c60a:	f7ff ffed 	bl	c5e8 <Chip_Clock_GetSystemClockRate>
    c60e:	4604      	mov	r4, r0
    c610:	79fb      	ldrb	r3, [r7, #7]
    c612:	4618      	mov	r0, r3
    c614:	f7ff ff4a 	bl	c4ac <Chip_Clock_GetPCLKDiv>
    c618:	4603      	mov	r3, r0
    c61a:	fbb4 f3f3 	udiv	r3, r4, r3
    c61e:	4618      	mov	r0, r3
    c620:	370c      	adds	r7, #12
    c622:	46bd      	mov	sp, r7
    c624:	bd90      	pop	{r4, r7, pc}
    c626:	bf00      	nop

0000c628 <enableClk>:
    c628:	b580      	push	{r7, lr}
    c62a:	b082      	sub	sp, #8
    c62c:	af00      	add	r7, sp, #0
    c62e:	4603      	mov	r3, r0
    c630:	71fb      	strb	r3, [r7, #7]
    c632:	79fa      	ldrb	r2, [r7, #7]
    c634:	4907      	ldr	r1, [pc, #28]	; (c654 <enableClk+0x2c>)
    c636:	4613      	mov	r3, r2
    c638:	00db      	lsls	r3, r3, #3
    c63a:	1a9b      	subs	r3, r3, r2
    c63c:	009b      	lsls	r3, r3, #2
    c63e:	440b      	add	r3, r1
    c640:	3304      	adds	r3, #4
    c642:	781b      	ldrb	r3, [r3, #0]
    c644:	4618      	mov	r0, r3
    c646:	f7ff fecd 	bl	c3e4 <Chip_Clock_EnablePeriphClock>
    c64a:	bf00      	nop
    c64c:	3708      	adds	r7, #8
    c64e:	46bd      	mov	sp, r7
    c650:	bd80      	pop	{r7, pc}
    c652:	bf00      	nop
    c654:	10004d4c 	.word	0x10004d4c

0000c658 <getClkRate>:
    c658:	b580      	push	{r7, lr}
    c65a:	b082      	sub	sp, #8
    c65c:	af00      	add	r7, sp, #0
    c65e:	4603      	mov	r3, r0
    c660:	71fb      	strb	r3, [r7, #7]
    c662:	79fb      	ldrb	r3, [r7, #7]
    c664:	4a04      	ldr	r2, [pc, #16]	; (c678 <getClkRate+0x20>)
    c666:	5cd3      	ldrb	r3, [r2, r3]
    c668:	4618      	mov	r0, r3
    c66a:	f7ff ffc9 	bl	c600 <Chip_Clock_GetPeripheralClockRate>
    c66e:	4603      	mov	r3, r0
    c670:	4618      	mov	r0, r3
    c672:	3708      	adds	r7, #8
    c674:	46bd      	mov	sp, r7
    c676:	bd80      	pop	{r7, pc}
    c678:	0000e788 	.word	0x0000e788

0000c67c <startMasterXfer>:
    c67c:	b480      	push	{r7}
    c67e:	b083      	sub	sp, #12
    c680:	af00      	add	r7, sp, #0
    c682:	6078      	str	r0, [r7, #4]
    c684:	687b      	ldr	r3, [r7, #4]
    c686:	223c      	movs	r2, #60	; 0x3c
    c688:	619a      	str	r2, [r3, #24]
    c68a:	687b      	ldr	r3, [r7, #4]
    c68c:	2260      	movs	r2, #96	; 0x60
    c68e:	601a      	str	r2, [r3, #0]
    c690:	bf00      	nop
    c692:	370c      	adds	r7, #12
    c694:	46bd      	mov	sp, r7
    c696:	bc80      	pop	{r7}
    c698:	4770      	bx	lr
    c69a:	bf00      	nop

0000c69c <startSlaverXfer>:
    c69c:	b480      	push	{r7}
    c69e:	b083      	sub	sp, #12
    c6a0:	af00      	add	r7, sp, #0
    c6a2:	6078      	str	r0, [r7, #4]
    c6a4:	687b      	ldr	r3, [r7, #4]
    c6a6:	2238      	movs	r2, #56	; 0x38
    c6a8:	619a      	str	r2, [r3, #24]
    c6aa:	687b      	ldr	r3, [r7, #4]
    c6ac:	2244      	movs	r2, #68	; 0x44
    c6ae:	601a      	str	r2, [r3, #0]
    c6b0:	bf00      	nop
    c6b2:	370c      	adds	r7, #12
    c6b4:	46bd      	mov	sp, r7
    c6b6:	bc80      	pop	{r7}
    c6b8:	4770      	bx	lr
    c6ba:	bf00      	nop

0000c6bc <isI2CBusFree>:
    c6bc:	b480      	push	{r7}
    c6be:	b083      	sub	sp, #12
    c6c0:	af00      	add	r7, sp, #0
    c6c2:	6078      	str	r0, [r7, #4]
    c6c4:	687b      	ldr	r3, [r7, #4]
    c6c6:	681b      	ldr	r3, [r3, #0]
    c6c8:	f003 0310 	and.w	r3, r3, #16
    c6cc:	2b00      	cmp	r3, #0
    c6ce:	bf0c      	ite	eq
    c6d0:	2301      	moveq	r3, #1
    c6d2:	2300      	movne	r3, #0
    c6d4:	b2db      	uxtb	r3, r3
    c6d6:	4618      	mov	r0, r3
    c6d8:	370c      	adds	r7, #12
    c6da:	46bd      	mov	sp, r7
    c6dc:	bc80      	pop	{r7}
    c6de:	4770      	bx	lr

0000c6e0 <getCurState>:
    c6e0:	b480      	push	{r7}
    c6e2:	b083      	sub	sp, #12
    c6e4:	af00      	add	r7, sp, #0
    c6e6:	6078      	str	r0, [r7, #4]
    c6e8:	687b      	ldr	r3, [r7, #4]
    c6ea:	685b      	ldr	r3, [r3, #4]
    c6ec:	f003 03f8 	and.w	r3, r3, #248	; 0xf8
    c6f0:	4618      	mov	r0, r3
    c6f2:	370c      	adds	r7, #12
    c6f4:	46bd      	mov	sp, r7
    c6f6:	bc80      	pop	{r7}
    c6f8:	4770      	bx	lr
    c6fa:	bf00      	nop

0000c6fc <isMasterState>:
    c6fc:	b580      	push	{r7, lr}
    c6fe:	b082      	sub	sp, #8
    c700:	af00      	add	r7, sp, #0
    c702:	6078      	str	r0, [r7, #4]
    c704:	6878      	ldr	r0, [r7, #4]
    c706:	f7ff ffeb 	bl	c6e0 <getCurState>
    c70a:	4603      	mov	r3, r0
    c70c:	2b5f      	cmp	r3, #95	; 0x5f
    c70e:	bfd4      	ite	le
    c710:	2301      	movle	r3, #1
    c712:	2300      	movgt	r3, #0
    c714:	b2db      	uxtb	r3, r3
    c716:	4618      	mov	r0, r3
    c718:	3708      	adds	r7, #8
    c71a:	46bd      	mov	sp, r7
    c71c:	bd80      	pop	{r7, pc}
    c71e:	bf00      	nop

0000c720 <isSlaveAddrMatching>:
    c720:	b480      	push	{r7}
    c722:	b083      	sub	sp, #12
    c724:	af00      	add	r7, sp, #0
    c726:	4603      	mov	r3, r0
    c728:	71fb      	strb	r3, [r7, #7]
    c72a:	460b      	mov	r3, r1
    c72c:	71bb      	strb	r3, [r7, #6]
    c72e:	4613      	mov	r3, r2
    c730:	717b      	strb	r3, [r7, #5]
    c732:	797b      	ldrb	r3, [r7, #5]
    c734:	f043 0301 	orr.w	r3, r3, #1
    c738:	717b      	strb	r3, [r7, #5]
    c73a:	79fa      	ldrb	r2, [r7, #7]
    c73c:	79bb      	ldrb	r3, [r7, #6]
    c73e:	4053      	eors	r3, r2
    c740:	b2db      	uxtb	r3, r3
    c742:	461a      	mov	r2, r3
    c744:	797b      	ldrb	r3, [r7, #5]
    c746:	43db      	mvns	r3, r3
    c748:	4013      	ands	r3, r2
    c74a:	2b00      	cmp	r3, #0
    c74c:	bf0c      	ite	eq
    c74e:	2301      	moveq	r3, #1
    c750:	2300      	movne	r3, #0
    c752:	b2db      	uxtb	r3, r3
    c754:	4618      	mov	r0, r3
    c756:	370c      	adds	r7, #12
    c758:	46bd      	mov	sp, r7
    c75a:	bc80      	pop	{r7}
    c75c:	4770      	bx	lr
    c75e:	bf00      	nop

0000c760 <lookupSlaveIndex>:
    c760:	b580      	push	{r7, lr}
    c762:	b082      	sub	sp, #8
    c764:	af00      	add	r7, sp, #0
    c766:	6078      	str	r0, [r7, #4]
    c768:	460b      	mov	r3, r1
    c76a:	70fb      	strb	r3, [r7, #3]
    c76c:	78fb      	ldrb	r3, [r7, #3]
    c76e:	085b      	lsrs	r3, r3, #1
    c770:	b2db      	uxtb	r3, r3
    c772:	2b00      	cmp	r3, #0
    c774:	d101      	bne.n	c77a <lookupSlaveIndex+0x1a>
    c776:	2300      	movs	r3, #0
    c778:	e03c      	b.n	c7f4 <lookupSlaveIndex+0x94>
    c77a:	687b      	ldr	r3, [r7, #4]
    c77c:	68db      	ldr	r3, [r3, #12]
    c77e:	b2d8      	uxtb	r0, r3
    c780:	687b      	ldr	r3, [r7, #4]
    c782:	6b1b      	ldr	r3, [r3, #48]	; 0x30
    c784:	b2da      	uxtb	r2, r3
    c786:	78fb      	ldrb	r3, [r7, #3]
    c788:	4619      	mov	r1, r3
    c78a:	f7ff ffc9 	bl	c720 <isSlaveAddrMatching>
    c78e:	4603      	mov	r3, r0
    c790:	2b00      	cmp	r3, #0
    c792:	d001      	beq.n	c798 <lookupSlaveIndex+0x38>
    c794:	2301      	movs	r3, #1
    c796:	e02d      	b.n	c7f4 <lookupSlaveIndex+0x94>
    c798:	687b      	ldr	r3, [r7, #4]
    c79a:	6a1b      	ldr	r3, [r3, #32]
    c79c:	b2d8      	uxtb	r0, r3
    c79e:	687b      	ldr	r3, [r7, #4]
    c7a0:	6b5b      	ldr	r3, [r3, #52]	; 0x34
    c7a2:	b2da      	uxtb	r2, r3
    c7a4:	78fb      	ldrb	r3, [r7, #3]
    c7a6:	4619      	mov	r1, r3
    c7a8:	f7ff ffba 	bl	c720 <isSlaveAddrMatching>
    c7ac:	4603      	mov	r3, r0
    c7ae:	2b00      	cmp	r3, #0
    c7b0:	d001      	beq.n	c7b6 <lookupSlaveIndex+0x56>
    c7b2:	2302      	movs	r3, #2
    c7b4:	e01e      	b.n	c7f4 <lookupSlaveIndex+0x94>
    c7b6:	687b      	ldr	r3, [r7, #4]
    c7b8:	6a5b      	ldr	r3, [r3, #36]	; 0x24
    c7ba:	b2d8      	uxtb	r0, r3
    c7bc:	687b      	ldr	r3, [r7, #4]
    c7be:	6b9b      	ldr	r3, [r3, #56]	; 0x38
    c7c0:	b2da      	uxtb	r2, r3
    c7c2:	78fb      	ldrb	r3, [r7, #3]
    c7c4:	4619      	mov	r1, r3
    c7c6:	f7ff ffab 	bl	c720 <isSlaveAddrMatching>
    c7ca:	4603      	mov	r3, r0
    c7cc:	2b00      	cmp	r3, #0
    c7ce:	d001      	beq.n	c7d4 <lookupSlaveIndex+0x74>
    c7d0:	2303      	movs	r3, #3
    c7d2:	e00f      	b.n	c7f4 <lookupSlaveIndex+0x94>
    c7d4:	687b      	ldr	r3, [r7, #4]
    c7d6:	6a9b      	ldr	r3, [r3, #40]	; 0x28
    c7d8:	b2d8      	uxtb	r0, r3
    c7da:	687b      	ldr	r3, [r7, #4]
    c7dc:	6bdb      	ldr	r3, [r3, #60]	; 0x3c
    c7de:	b2da      	uxtb	r2, r3
    c7e0:	78fb      	ldrb	r3, [r7, #3]
    c7e2:	4619      	mov	r1, r3
    c7e4:	f7ff ff9c 	bl	c720 <isSlaveAddrMatching>
    c7e8:	4603      	mov	r3, r0
    c7ea:	2b00      	cmp	r3, #0
    c7ec:	d001      	beq.n	c7f2 <lookupSlaveIndex+0x92>
    c7ee:	2304      	movs	r3, #4
    c7f0:	e000      	b.n	c7f4 <lookupSlaveIndex+0x94>
    c7f2:	2300      	movs	r3, #0
    c7f4:	4618      	mov	r0, r3
    c7f6:	3708      	adds	r7, #8
    c7f8:	46bd      	mov	sp, r7
    c7fa:	bd80      	pop	{r7, pc}

0000c7fc <handleMasterXferState>:
    c7fc:	b580      	push	{r7, lr}
    c7fe:	b084      	sub	sp, #16
    c800:	af00      	add	r7, sp, #0
    c802:	6078      	str	r0, [r7, #4]
    c804:	6039      	str	r1, [r7, #0]
    c806:	233c      	movs	r3, #60	; 0x3c
    c808:	60fb      	str	r3, [r7, #12]
    c80a:	6878      	ldr	r0, [r7, #4]
    c80c:	f7ff ff68 	bl	c6e0 <getCurState>
    c810:	4603      	mov	r3, r0
    c812:	2b58      	cmp	r3, #88	; 0x58
    c814:	f200 8115 	bhi.w	ca42 <handleMasterXferState+0x246>
    c818:	a201      	add	r2, pc, #4	; (adr r2, c820 <handleMasterXferState+0x24>)
    c81a:	f852 f023 	ldr.w	pc, [r2, r3, lsl #2]
    c81e:	bf00      	nop
    c820:	0000ca31 	.word	0x0000ca31
    c824:	0000ca43 	.word	0x0000ca43
    c828:	0000ca43 	.word	0x0000ca43
    c82c:	0000ca43 	.word	0x0000ca43
    c830:	0000ca43 	.word	0x0000ca43
    c834:	0000ca43 	.word	0x0000ca43
    c838:	0000ca43 	.word	0x0000ca43
    c83c:	0000ca43 	.word	0x0000ca43
    c840:	0000c985 	.word	0x0000c985
    c844:	0000ca43 	.word	0x0000ca43
    c848:	0000ca43 	.word	0x0000ca43
    c84c:	0000ca43 	.word	0x0000ca43
    c850:	0000ca43 	.word	0x0000ca43
    c854:	0000ca43 	.word	0x0000ca43
    c858:	0000ca43 	.word	0x0000ca43
    c85c:	0000ca43 	.word	0x0000ca43
    c860:	0000c985 	.word	0x0000c985
    c864:	0000ca43 	.word	0x0000ca43
    c868:	0000ca43 	.word	0x0000ca43
    c86c:	0000ca43 	.word	0x0000ca43
    c870:	0000ca43 	.word	0x0000ca43
    c874:	0000ca43 	.word	0x0000ca43
    c878:	0000ca43 	.word	0x0000ca43
    c87c:	0000ca43 	.word	0x0000ca43
    c880:	0000c9a3 	.word	0x0000c9a3
    c884:	0000ca43 	.word	0x0000ca43
    c888:	0000ca43 	.word	0x0000ca43
    c88c:	0000ca43 	.word	0x0000ca43
    c890:	0000ca43 	.word	0x0000ca43
    c894:	0000ca43 	.word	0x0000ca43
    c898:	0000ca43 	.word	0x0000ca43
    c89c:	0000ca43 	.word	0x0000ca43
    c8a0:	0000ca19 	.word	0x0000ca19
    c8a4:	0000ca43 	.word	0x0000ca43
    c8a8:	0000ca43 	.word	0x0000ca43
    c8ac:	0000ca43 	.word	0x0000ca43
    c8b0:	0000ca43 	.word	0x0000ca43
    c8b4:	0000ca43 	.word	0x0000ca43
    c8b8:	0000ca43 	.word	0x0000ca43
    c8bc:	0000ca43 	.word	0x0000ca43
    c8c0:	0000c9a3 	.word	0x0000c9a3
    c8c4:	0000ca43 	.word	0x0000ca43
    c8c8:	0000ca43 	.word	0x0000ca43
    c8cc:	0000ca43 	.word	0x0000ca43
    c8d0:	0000ca43 	.word	0x0000ca43
    c8d4:	0000ca43 	.word	0x0000ca43
    c8d8:	0000ca43 	.word	0x0000ca43
    c8dc:	0000ca43 	.word	0x0000ca43
    c8e0:	0000ca19 	.word	0x0000ca19
    c8e4:	0000ca43 	.word	0x0000ca43
    c8e8:	0000ca43 	.word	0x0000ca43
    c8ec:	0000ca43 	.word	0x0000ca43
    c8f0:	0000ca43 	.word	0x0000ca43
    c8f4:	0000ca43 	.word	0x0000ca43
    c8f8:	0000ca43 	.word	0x0000ca43
    c8fc:	0000ca43 	.word	0x0000ca43
    c900:	0000ca29 	.word	0x0000ca29
    c904:	0000ca43 	.word	0x0000ca43
    c908:	0000ca43 	.word	0x0000ca43
    c90c:	0000ca43 	.word	0x0000ca43
    c910:	0000ca43 	.word	0x0000ca43
    c914:	0000ca43 	.word	0x0000ca43
    c918:	0000ca43 	.word	0x0000ca43
    c91c:	0000ca43 	.word	0x0000ca43
    c920:	0000ca07 	.word	0x0000ca07
    c924:	0000ca43 	.word	0x0000ca43
    c928:	0000ca43 	.word	0x0000ca43
    c92c:	0000ca43 	.word	0x0000ca43
    c930:	0000ca43 	.word	0x0000ca43
    c934:	0000ca43 	.word	0x0000ca43
    c938:	0000ca43 	.word	0x0000ca43
    c93c:	0000ca43 	.word	0x0000ca43
    c940:	0000ca19 	.word	0x0000ca19
    c944:	0000ca43 	.word	0x0000ca43
    c948:	0000ca43 	.word	0x0000ca43
    c94c:	0000ca43 	.word	0x0000ca43
    c950:	0000ca43 	.word	0x0000ca43
    c954:	0000ca43 	.word	0x0000ca43
    c958:	0000ca43 	.word	0x0000ca43
    c95c:	0000ca43 	.word	0x0000ca43
    c960:	0000c9eb 	.word	0x0000c9eb
    c964:	0000ca43 	.word	0x0000ca43
    c968:	0000ca43 	.word	0x0000ca43
    c96c:	0000ca43 	.word	0x0000ca43
    c970:	0000ca43 	.word	0x0000ca43
    c974:	0000ca43 	.word	0x0000ca43
    c978:	0000ca43 	.word	0x0000ca43
    c97c:	0000ca43 	.word	0x0000ca43
    c980:	0000c9e3 	.word	0x0000c9e3
    c984:	683b      	ldr	r3, [r7, #0]
    c986:	781b      	ldrb	r3, [r3, #0]
    c988:	005b      	lsls	r3, r3, #1
    c98a:	683a      	ldr	r2, [r7, #0]
    c98c:	6892      	ldr	r2, [r2, #8]
    c98e:	2a00      	cmp	r2, #0
    c990:	bf0c      	ite	eq
    c992:	2201      	moveq	r2, #1
    c994:	2200      	movne	r2, #0
    c996:	b2d2      	uxtb	r2, r2
    c998:	4313      	orrs	r3, r2
    c99a:	461a      	mov	r2, r3
    c99c:	687b      	ldr	r3, [r7, #4]
    c99e:	609a      	str	r2, [r3, #8]
    c9a0:	e04f      	b.n	ca42 <handleMasterXferState+0x246>
    c9a2:	683b      	ldr	r3, [r7, #0]
    c9a4:	689b      	ldr	r3, [r3, #8]
    c9a6:	2b00      	cmp	r3, #0
    c9a8:	d10c      	bne.n	c9c4 <handleMasterXferState+0x1c8>
    c9aa:	683b      	ldr	r3, [r7, #0]
    c9ac:	691b      	ldr	r3, [r3, #16]
    c9ae:	2b00      	cmp	r3, #0
    c9b0:	d002      	beq.n	c9b8 <handleMasterXferState+0x1bc>
    c9b2:	f06f 0320 	mvn.w	r3, #32
    c9b6:	e001      	b.n	c9bc <handleMasterXferState+0x1c0>
    c9b8:	f06f 0310 	mvn.w	r3, #16
    c9bc:	68fa      	ldr	r2, [r7, #12]
    c9be:	4013      	ands	r3, r2
    c9c0:	60fb      	str	r3, [r7, #12]
    c9c2:	e03e      	b.n	ca42 <handleMasterXferState+0x246>
    c9c4:	683b      	ldr	r3, [r7, #0]
    c9c6:	685b      	ldr	r3, [r3, #4]
    c9c8:	1c59      	adds	r1, r3, #1
    c9ca:	683a      	ldr	r2, [r7, #0]
    c9cc:	6051      	str	r1, [r2, #4]
    c9ce:	781b      	ldrb	r3, [r3, #0]
    c9d0:	461a      	mov	r2, r3
    c9d2:	687b      	ldr	r3, [r7, #4]
    c9d4:	609a      	str	r2, [r3, #8]
    c9d6:	683b      	ldr	r3, [r7, #0]
    c9d8:	689b      	ldr	r3, [r3, #8]
    c9da:	1e5a      	subs	r2, r3, #1
    c9dc:	683b      	ldr	r3, [r7, #0]
    c9de:	609a      	str	r2, [r3, #8]
    c9e0:	e02f      	b.n	ca42 <handleMasterXferState+0x246>
    c9e2:	68fb      	ldr	r3, [r7, #12]
    c9e4:	f023 0310 	bic.w	r3, r3, #16
    c9e8:	60fb      	str	r3, [r7, #12]
    c9ea:	683b      	ldr	r3, [r7, #0]
    c9ec:	68db      	ldr	r3, [r3, #12]
    c9ee:	1c59      	adds	r1, r3, #1
    c9f0:	683a      	ldr	r2, [r7, #0]
    c9f2:	60d1      	str	r1, [r2, #12]
    c9f4:	687a      	ldr	r2, [r7, #4]
    c9f6:	6892      	ldr	r2, [r2, #8]
    c9f8:	b2d2      	uxtb	r2, r2
    c9fa:	701a      	strb	r2, [r3, #0]
    c9fc:	683b      	ldr	r3, [r7, #0]
    c9fe:	691b      	ldr	r3, [r3, #16]
    ca00:	1e5a      	subs	r2, r3, #1
    ca02:	683b      	ldr	r3, [r7, #0]
    ca04:	611a      	str	r2, [r3, #16]
    ca06:	683b      	ldr	r3, [r7, #0]
    ca08:	691b      	ldr	r3, [r3, #16]
    ca0a:	2b01      	cmp	r3, #1
    ca0c:	dd18      	ble.n	ca40 <handleMasterXferState+0x244>
    ca0e:	68fb      	ldr	r3, [r7, #12]
    ca10:	f023 0304 	bic.w	r3, r3, #4
    ca14:	60fb      	str	r3, [r7, #12]
    ca16:	e013      	b.n	ca40 <handleMasterXferState+0x244>
    ca18:	683b      	ldr	r3, [r7, #0]
    ca1a:	2201      	movs	r2, #1
    ca1c:	751a      	strb	r2, [r3, #20]
    ca1e:	68fb      	ldr	r3, [r7, #12]
    ca20:	f023 0310 	bic.w	r3, r3, #16
    ca24:	60fb      	str	r3, [r7, #12]
    ca26:	e00c      	b.n	ca42 <handleMasterXferState+0x246>
    ca28:	683b      	ldr	r3, [r7, #0]
    ca2a:	2202      	movs	r2, #2
    ca2c:	751a      	strb	r2, [r3, #20]
    ca2e:	e008      	b.n	ca42 <handleMasterXferState+0x246>
    ca30:	683b      	ldr	r3, [r7, #0]
    ca32:	2203      	movs	r2, #3
    ca34:	751a      	strb	r2, [r3, #20]
    ca36:	68fb      	ldr	r3, [r7, #12]
    ca38:	f023 0310 	bic.w	r3, r3, #16
    ca3c:	60fb      	str	r3, [r7, #12]
    ca3e:	e000      	b.n	ca42 <handleMasterXferState+0x246>
    ca40:	bf00      	nop
    ca42:	68fb      	ldr	r3, [r7, #12]
    ca44:	f083 023c 	eor.w	r2, r3, #60	; 0x3c
    ca48:	687b      	ldr	r3, [r7, #4]
    ca4a:	601a      	str	r2, [r3, #0]
    ca4c:	687b      	ldr	r3, [r7, #4]
    ca4e:	68fa      	ldr	r2, [r7, #12]
    ca50:	619a      	str	r2, [r3, #24]
    ca52:	68fb      	ldr	r3, [r7, #12]
    ca54:	f003 0310 	and.w	r3, r3, #16
    ca58:	2b00      	cmp	r3, #0
    ca5a:	d003      	beq.n	ca64 <handleMasterXferState+0x268>
    ca5c:	683b      	ldr	r3, [r7, #0]
    ca5e:	7d1b      	ldrb	r3, [r3, #20]
    ca60:	2b02      	cmp	r3, #2
    ca62:	d108      	bne.n	ca76 <handleMasterXferState+0x27a>
    ca64:	683b      	ldr	r3, [r7, #0]
    ca66:	7d1b      	ldrb	r3, [r3, #20]
    ca68:	2b04      	cmp	r3, #4
    ca6a:	d102      	bne.n	ca72 <handleMasterXferState+0x276>
    ca6c:	683b      	ldr	r3, [r7, #0]
    ca6e:	2200      	movs	r2, #0
    ca70:	751a      	strb	r2, [r3, #20]
    ca72:	2300      	movs	r3, #0
    ca74:	e000      	b.n	ca78 <handleMasterXferState+0x27c>
    ca76:	2301      	movs	r3, #1
    ca78:	4618      	mov	r0, r3
    ca7a:	3710      	adds	r7, #16
    ca7c:	46bd      	mov	sp, r7
    ca7e:	bd80      	pop	{r7, pc}

0000ca80 <getSlaveIndex>:
    ca80:	b580      	push	{r7, lr}
    ca82:	b082      	sub	sp, #8
    ca84:	af00      	add	r7, sp, #0
    ca86:	6078      	str	r0, [r7, #4]
    ca88:	6878      	ldr	r0, [r7, #4]
    ca8a:	f7ff fe29 	bl	c6e0 <getCurState>
    ca8e:	4603      	mov	r3, r0
    ca90:	2b70      	cmp	r3, #112	; 0x70
    ca92:	d00c      	beq.n	caae <getSlaveIndex+0x2e>
    ca94:	2b70      	cmp	r3, #112	; 0x70
    ca96:	dc04      	bgt.n	caa2 <getSlaveIndex+0x22>
    ca98:	2b60      	cmp	r3, #96	; 0x60
    ca9a:	d008      	beq.n	caae <getSlaveIndex+0x2e>
    ca9c:	2b68      	cmp	r3, #104	; 0x68
    ca9e:	d006      	beq.n	caae <getSlaveIndex+0x2e>
    caa0:	e00e      	b.n	cac0 <getSlaveIndex+0x40>
    caa2:	2ba8      	cmp	r3, #168	; 0xa8
    caa4:	d003      	beq.n	caae <getSlaveIndex+0x2e>
    caa6:	2bb0      	cmp	r3, #176	; 0xb0
    caa8:	d001      	beq.n	caae <getSlaveIndex+0x2e>
    caaa:	2b78      	cmp	r3, #120	; 0x78
    caac:	d108      	bne.n	cac0 <getSlaveIndex+0x40>
    caae:	687b      	ldr	r3, [r7, #4]
    cab0:	689b      	ldr	r3, [r3, #8]
    cab2:	b2db      	uxtb	r3, r3
    cab4:	4619      	mov	r1, r3
    cab6:	6878      	ldr	r0, [r7, #4]
    cab8:	f7ff fe52 	bl	c760 <lookupSlaveIndex>
    cabc:	4603      	mov	r3, r0
    cabe:	e000      	b.n	cac2 <getSlaveIndex+0x42>
    cac0:	2300      	movs	r3, #0
    cac2:	4618      	mov	r0, r3
    cac4:	3708      	adds	r7, #8
    cac6:	46bd      	mov	sp, r7
    cac8:	bd80      	pop	{r7, pc}
    caca:	bf00      	nop

0000cacc <handleSlaveXferState>:
    cacc:	b580      	push	{r7, lr}
    cace:	b084      	sub	sp, #16
    cad0:	af00      	add	r7, sp, #0
    cad2:	6078      	str	r0, [r7, #4]
    cad4:	6039      	str	r1, [r7, #0]
    cad6:	233c      	movs	r3, #60	; 0x3c
    cad8:	60fb      	str	r3, [r7, #12]
    cada:	2300      	movs	r3, #0
    cadc:	60bb      	str	r3, [r7, #8]
    cade:	683b      	ldr	r3, [r7, #0]
    cae0:	2204      	movs	r2, #4
    cae2:	751a      	strb	r2, [r3, #20]
    cae4:	6878      	ldr	r0, [r7, #4]
    cae6:	f7ff fdfb 	bl	c6e0 <getCurState>
    caea:	4603      	mov	r3, r0
    caec:	3b60      	subs	r3, #96	; 0x60
    caee:	2b68      	cmp	r3, #104	; 0x68
    caf0:	f200 813a 	bhi.w	cd68 <handleSlaveXferState+0x29c>
    caf4:	a201      	add	r2, pc, #4	; (adr r2, cafc <handleSlaveXferState+0x30>)
    caf6:	f852 f023 	ldr.w	pc, [r2, r3, lsl #2]
    cafa:	bf00      	nop
    cafc:	0000ccd3 	.word	0x0000ccd3
    cb00:	0000cd69 	.word	0x0000cd69
    cb04:	0000cd69 	.word	0x0000cd69
    cb08:	0000cd69 	.word	0x0000cd69
    cb0c:	0000cd69 	.word	0x0000cd69
    cb10:	0000cd69 	.word	0x0000cd69
    cb14:	0000cd69 	.word	0x0000cd69
    cb18:	0000cd69 	.word	0x0000cd69
    cb1c:	0000ccd3 	.word	0x0000ccd3
    cb20:	0000cd69 	.word	0x0000cd69
    cb24:	0000cd69 	.word	0x0000cd69
    cb28:	0000cd69 	.word	0x0000cd69
    cb2c:	0000cd69 	.word	0x0000cd69
    cb30:	0000cd69 	.word	0x0000cd69
    cb34:	0000cd69 	.word	0x0000cd69
    cb38:	0000cd69 	.word	0x0000cd69
    cb3c:	0000ccd3 	.word	0x0000ccd3
    cb40:	0000cd69 	.word	0x0000cd69
    cb44:	0000cd69 	.word	0x0000cd69
    cb48:	0000cd69 	.word	0x0000cd69
    cb4c:	0000cd69 	.word	0x0000cd69
    cb50:	0000cd69 	.word	0x0000cd69
    cb54:	0000cd69 	.word	0x0000cd69
    cb58:	0000cd69 	.word	0x0000cd69
    cb5c:	0000ccd3 	.word	0x0000ccd3
    cb60:	0000cd69 	.word	0x0000cd69
    cb64:	0000cd69 	.word	0x0000cd69
    cb68:	0000cd69 	.word	0x0000cd69
    cb6c:	0000cd69 	.word	0x0000cd69
    cb70:	0000cd69 	.word	0x0000cd69
    cb74:	0000cd69 	.word	0x0000cd69
    cb78:	0000cd69 	.word	0x0000cd69
    cb7c:	0000cca1 	.word	0x0000cca1
    cb80:	0000cd69 	.word	0x0000cd69
    cb84:	0000cd69 	.word	0x0000cd69
    cb88:	0000cd69 	.word	0x0000cd69
    cb8c:	0000cd69 	.word	0x0000cd69
    cb90:	0000cd69 	.word	0x0000cd69
    cb94:	0000cd69 	.word	0x0000cd69
    cb98:	0000cd69 	.word	0x0000cd69
    cb9c:	0000cd37 	.word	0x0000cd37
    cba0:	0000cd69 	.word	0x0000cd69
    cba4:	0000cd69 	.word	0x0000cd69
    cba8:	0000cd69 	.word	0x0000cd69
    cbac:	0000cd69 	.word	0x0000cd69
    cbb0:	0000cd69 	.word	0x0000cd69
    cbb4:	0000cd69 	.word	0x0000cd69
    cbb8:	0000cd69 	.word	0x0000cd69
    cbbc:	0000cca1 	.word	0x0000cca1
    cbc0:	0000cd69 	.word	0x0000cd69
    cbc4:	0000cd69 	.word	0x0000cd69
    cbc8:	0000cd69 	.word	0x0000cd69
    cbcc:	0000cd69 	.word	0x0000cd69
    cbd0:	0000cd69 	.word	0x0000cd69
    cbd4:	0000cd69 	.word	0x0000cd69
    cbd8:	0000cd69 	.word	0x0000cd69
    cbdc:	0000cd37 	.word	0x0000cd37
    cbe0:	0000cd69 	.word	0x0000cd69
    cbe4:	0000cd69 	.word	0x0000cd69
    cbe8:	0000cd69 	.word	0x0000cd69
    cbec:	0000cd69 	.word	0x0000cd69
    cbf0:	0000cd69 	.word	0x0000cd69
    cbf4:	0000cd69 	.word	0x0000cd69
    cbf8:	0000cd69 	.word	0x0000cd69
    cbfc:	0000cd37 	.word	0x0000cd37
    cc00:	0000cd69 	.word	0x0000cd69
    cc04:	0000cd69 	.word	0x0000cd69
    cc08:	0000cd69 	.word	0x0000cd69
    cc0c:	0000cd69 	.word	0x0000cd69
    cc10:	0000cd69 	.word	0x0000cd69
    cc14:	0000cd69 	.word	0x0000cd69
    cc18:	0000cd69 	.word	0x0000cd69
    cc1c:	0000ccf5 	.word	0x0000ccf5
    cc20:	0000cd69 	.word	0x0000cd69
    cc24:	0000cd69 	.word	0x0000cd69
    cc28:	0000cd69 	.word	0x0000cd69
    cc2c:	0000cd69 	.word	0x0000cd69
    cc30:	0000cd69 	.word	0x0000cd69
    cc34:	0000cd69 	.word	0x0000cd69
    cc38:	0000cd69 	.word	0x0000cd69
    cc3c:	0000ccf5 	.word	0x0000ccf5
    cc40:	0000cd69 	.word	0x0000cd69
    cc44:	0000cd69 	.word	0x0000cd69
    cc48:	0000cd69 	.word	0x0000cd69
    cc4c:	0000cd69 	.word	0x0000cd69
    cc50:	0000cd69 	.word	0x0000cd69
    cc54:	0000cd69 	.word	0x0000cd69
    cc58:	0000cd69 	.word	0x0000cd69
    cc5c:	0000cd05 	.word	0x0000cd05
    cc60:	0000cd69 	.word	0x0000cd69
    cc64:	0000cd69 	.word	0x0000cd69
    cc68:	0000cd69 	.word	0x0000cd69
    cc6c:	0000cd69 	.word	0x0000cd69
    cc70:	0000cd69 	.word	0x0000cd69
    cc74:	0000cd69 	.word	0x0000cd69
    cc78:	0000cd69 	.word	0x0000cd69
    cc7c:	0000cd37 	.word	0x0000cd37
    cc80:	0000cd69 	.word	0x0000cd69
    cc84:	0000cd69 	.word	0x0000cd69
    cc88:	0000cd69 	.word	0x0000cd69
    cc8c:	0000cd69 	.word	0x0000cd69
    cc90:	0000cd69 	.word	0x0000cd69
    cc94:	0000cd69 	.word	0x0000cd69
    cc98:	0000cd69 	.word	0x0000cd69
    cc9c:	0000cd37 	.word	0x0000cd37
    cca0:	683b      	ldr	r3, [r7, #0]
    cca2:	68db      	ldr	r3, [r3, #12]
    cca4:	1c59      	adds	r1, r3, #1
    cca6:	683a      	ldr	r2, [r7, #0]
    cca8:	60d1      	str	r1, [r2, #12]
    ccaa:	687a      	ldr	r2, [r7, #4]
    ccac:	6892      	ldr	r2, [r2, #8]
    ccae:	b2d2      	uxtb	r2, r2
    ccb0:	701a      	strb	r2, [r3, #0]
    ccb2:	683b      	ldr	r3, [r7, #0]
    ccb4:	691b      	ldr	r3, [r3, #16]
    ccb6:	1e5a      	subs	r2, r3, #1
    ccb8:	683b      	ldr	r3, [r7, #0]
    ccba:	611a      	str	r2, [r3, #16]
    ccbc:	2305      	movs	r3, #5
    ccbe:	60bb      	str	r3, [r7, #8]
    ccc0:	683b      	ldr	r3, [r7, #0]
    ccc2:	691b      	ldr	r3, [r3, #16]
    ccc4:	2b01      	cmp	r3, #1
    ccc6:	dd4a      	ble.n	cd5e <handleSlaveXferState+0x292>
    ccc8:	68fb      	ldr	r3, [r7, #12]
    ccca:	f023 0304 	bic.w	r3, r3, #4
    ccce:	60fb      	str	r3, [r7, #12]
    ccd0:	e045      	b.n	cd5e <handleSlaveXferState+0x292>
    ccd2:	687b      	ldr	r3, [r7, #4]
    ccd4:	689b      	ldr	r3, [r3, #8]
    ccd6:	b2db      	uxtb	r3, r3
    ccd8:	f023 0301 	bic.w	r3, r3, #1
    ccdc:	b2da      	uxtb	r2, r3
    ccde:	683b      	ldr	r3, [r7, #0]
    cce0:	701a      	strb	r2, [r3, #0]
    cce2:	683b      	ldr	r3, [r7, #0]
    cce4:	691b      	ldr	r3, [r3, #16]
    cce6:	2b01      	cmp	r3, #1
    cce8:	dd3b      	ble.n	cd62 <handleSlaveXferState+0x296>
    ccea:	68fb      	ldr	r3, [r7, #12]
    ccec:	f023 0304 	bic.w	r3, r3, #4
    ccf0:	60fb      	str	r3, [r7, #12]
    ccf2:	e036      	b.n	cd62 <handleSlaveXferState+0x296>
    ccf4:	687b      	ldr	r3, [r7, #4]
    ccf6:	689b      	ldr	r3, [r3, #8]
    ccf8:	b2db      	uxtb	r3, r3
    ccfa:	f023 0301 	bic.w	r3, r3, #1
    ccfe:	b2da      	uxtb	r2, r3
    cd00:	683b      	ldr	r3, [r7, #0]
    cd02:	701a      	strb	r2, [r3, #0]
    cd04:	683b      	ldr	r3, [r7, #0]
    cd06:	685b      	ldr	r3, [r3, #4]
    cd08:	1c59      	adds	r1, r3, #1
    cd0a:	683a      	ldr	r2, [r7, #0]
    cd0c:	6051      	str	r1, [r2, #4]
    cd0e:	781b      	ldrb	r3, [r3, #0]
    cd10:	461a      	mov	r2, r3
    cd12:	687b      	ldr	r3, [r7, #4]
    cd14:	609a      	str	r2, [r3, #8]
    cd16:	683b      	ldr	r3, [r7, #0]
    cd18:	689b      	ldr	r3, [r3, #8]
    cd1a:	1e5a      	subs	r2, r3, #1
    cd1c:	683b      	ldr	r3, [r7, #0]
    cd1e:	609a      	str	r2, [r3, #8]
    cd20:	683b      	ldr	r3, [r7, #0]
    cd22:	689b      	ldr	r3, [r3, #8]
    cd24:	2b00      	cmp	r3, #0
    cd26:	dd03      	ble.n	cd30 <handleSlaveXferState+0x264>
    cd28:	68fb      	ldr	r3, [r7, #12]
    cd2a:	f023 0304 	bic.w	r3, r3, #4
    cd2e:	60fb      	str	r3, [r7, #12]
    cd30:	2306      	movs	r3, #6
    cd32:	60bb      	str	r3, [r7, #8]
    cd34:	e018      	b.n	cd68 <handleSlaveXferState+0x29c>
    cd36:	2302      	movs	r3, #2
    cd38:	60bb      	str	r3, [r7, #8]
    cd3a:	68fb      	ldr	r3, [r7, #12]
    cd3c:	f023 0304 	bic.w	r3, r3, #4
    cd40:	60fb      	str	r3, [r7, #12]
    cd42:	683b      	ldr	r3, [r7, #0]
    cd44:	2200      	movs	r2, #0
    cd46:	751a      	strb	r2, [r3, #20]
    cd48:	683b      	ldr	r3, [r7, #0]
    cd4a:	781b      	ldrb	r3, [r3, #0]
    cd4c:	f003 0301 	and.w	r3, r3, #1
    cd50:	2b00      	cmp	r3, #0
    cd52:	d008      	beq.n	cd66 <handleSlaveXferState+0x29a>
    cd54:	68fb      	ldr	r3, [r7, #12]
    cd56:	f023 0320 	bic.w	r3, r3, #32
    cd5a:	60fb      	str	r3, [r7, #12]
    cd5c:	e003      	b.n	cd66 <handleSlaveXferState+0x29a>
    cd5e:	bf00      	nop
    cd60:	e002      	b.n	cd68 <handleSlaveXferState+0x29c>
    cd62:	bf00      	nop
    cd64:	e000      	b.n	cd68 <handleSlaveXferState+0x29c>
    cd66:	bf00      	nop
    cd68:	68fb      	ldr	r3, [r7, #12]
    cd6a:	f083 023c 	eor.w	r2, r3, #60	; 0x3c
    cd6e:	687b      	ldr	r3, [r7, #4]
    cd70:	601a      	str	r2, [r3, #0]
    cd72:	687b      	ldr	r3, [r7, #4]
    cd74:	68fa      	ldr	r2, [r7, #12]
    cd76:	619a      	str	r2, [r3, #24]
    cd78:	68bb      	ldr	r3, [r7, #8]
    cd7a:	4618      	mov	r0, r3
    cd7c:	3710      	adds	r7, #16
    cd7e:	46bd      	mov	sp, r7
    cd80:	bd80      	pop	{r7, pc}
    cd82:	bf00      	nop

0000cd84 <Chip_I2C_EventHandler>:
    cd84:	b480      	push	{r7}
    cd86:	b085      	sub	sp, #20
    cd88:	af00      	add	r7, sp, #0
    cd8a:	4603      	mov	r3, r0
    cd8c:	460a      	mov	r2, r1
    cd8e:	71fb      	strb	r3, [r7, #7]
    cd90:	4613      	mov	r3, r2
    cd92:	71bb      	strb	r3, [r7, #6]
    cd94:	79fa      	ldrb	r2, [r7, #7]
    cd96:	4613      	mov	r3, r2
    cd98:	00db      	lsls	r3, r3, #3
    cd9a:	1a9b      	subs	r3, r3, r2
    cd9c:	009b      	lsls	r3, r3, #2
    cd9e:	4a0b      	ldr	r2, [pc, #44]	; (cdcc <Chip_I2C_EventHandler+0x48>)
    cda0:	4413      	add	r3, r2
    cda2:	60fb      	str	r3, [r7, #12]
    cda4:	79bb      	ldrb	r3, [r7, #6]
    cda6:	2b01      	cmp	r3, #1
    cda8:	d10a      	bne.n	cdc0 <Chip_I2C_EventHandler+0x3c>
    cdaa:	68fb      	ldr	r3, [r7, #12]
    cdac:	691b      	ldr	r3, [r3, #16]
    cdae:	3314      	adds	r3, #20
    cdb0:	60bb      	str	r3, [r7, #8]
    cdb2:	bf00      	nop
    cdb4:	68bb      	ldr	r3, [r7, #8]
    cdb6:	781b      	ldrb	r3, [r3, #0]
    cdb8:	b2db      	uxtb	r3, r3
    cdba:	2b04      	cmp	r3, #4
    cdbc:	d0fa      	beq.n	cdb4 <Chip_I2C_EventHandler+0x30>
    cdbe:	e000      	b.n	cdc2 <Chip_I2C_EventHandler+0x3e>
    cdc0:	bf00      	nop
    cdc2:	3714      	adds	r7, #20
    cdc4:	46bd      	mov	sp, r7
    cdc6:	bc80      	pop	{r7}
    cdc8:	4770      	bx	lr
    cdca:	bf00      	nop
    cdcc:	10004d4c 	.word	0x10004d4c

0000cdd0 <Chip_I2C_EventHandlerPolling>:
    cdd0:	b580      	push	{r7, lr}
    cdd2:	b084      	sub	sp, #16
    cdd4:	af00      	add	r7, sp, #0
    cdd6:	4603      	mov	r3, r0
    cdd8:	460a      	mov	r2, r1
    cdda:	71fb      	strb	r3, [r7, #7]
    cddc:	4613      	mov	r3, r2
    cdde:	71bb      	strb	r3, [r7, #6]
    cde0:	79fa      	ldrb	r2, [r7, #7]
    cde2:	4613      	mov	r3, r2
    cde4:	00db      	lsls	r3, r3, #3
    cde6:	1a9b      	subs	r3, r3, r2
    cde8:	009b      	lsls	r3, r3, #2
    cdea:	4a10      	ldr	r2, [pc, #64]	; (ce2c <Chip_I2C_EventHandlerPolling+0x5c>)
    cdec:	4413      	add	r3, r2
    cdee:	60fb      	str	r3, [r7, #12]
    cdf0:	79bb      	ldrb	r3, [r7, #6]
    cdf2:	2b01      	cmp	r3, #1
    cdf4:	d115      	bne.n	ce22 <Chip_I2C_EventHandlerPolling+0x52>
    cdf6:	68fb      	ldr	r3, [r7, #12]
    cdf8:	691b      	ldr	r3, [r3, #16]
    cdfa:	3314      	adds	r3, #20
    cdfc:	60bb      	str	r3, [r7, #8]
    cdfe:	e00a      	b.n	ce16 <Chip_I2C_EventHandlerPolling+0x46>
    ce00:	79fb      	ldrb	r3, [r7, #7]
    ce02:	4618      	mov	r0, r3
    ce04:	f000 f9a8 	bl	d158 <Chip_I2C_IsStateChanged>
    ce08:	4603      	mov	r3, r0
    ce0a:	2b00      	cmp	r3, #0
    ce0c:	d003      	beq.n	ce16 <Chip_I2C_EventHandlerPolling+0x46>
    ce0e:	79fb      	ldrb	r3, [r7, #7]
    ce10:	4618      	mov	r0, r3
    ce12:	f000 f911 	bl	d038 <Chip_I2C_MasterStateHandler>
    ce16:	68bb      	ldr	r3, [r7, #8]
    ce18:	781b      	ldrb	r3, [r3, #0]
    ce1a:	b2db      	uxtb	r3, r3
    ce1c:	2b04      	cmp	r3, #4
    ce1e:	d0ef      	beq.n	ce00 <Chip_I2C_EventHandlerPolling+0x30>
    ce20:	e000      	b.n	ce24 <Chip_I2C_EventHandlerPolling+0x54>
    ce22:	bf00      	nop
    ce24:	3710      	adds	r7, #16
    ce26:	46bd      	mov	sp, r7
    ce28:	bd80      	pop	{r7, pc}
    ce2a:	bf00      	nop
    ce2c:	10004d4c 	.word	0x10004d4c

0000ce30 <Chip_I2C_Init>:
    ce30:	b580      	push	{r7, lr}
    ce32:	b082      	sub	sp, #8
    ce34:	af00      	add	r7, sp, #0
    ce36:	4603      	mov	r3, r0
    ce38:	71fb      	strb	r3, [r7, #7]
    ce3a:	79fb      	ldrb	r3, [r7, #7]
    ce3c:	4618      	mov	r0, r3
    ce3e:	f7ff fbf3 	bl	c628 <enableClk>
    ce42:	79fa      	ldrb	r2, [r7, #7]
    ce44:	4906      	ldr	r1, [pc, #24]	; (ce60 <Chip_I2C_Init+0x30>)
    ce46:	4613      	mov	r3, r2
    ce48:	00db      	lsls	r3, r3, #3
    ce4a:	1a9b      	subs	r3, r3, r2
    ce4c:	009b      	lsls	r3, r3, #2
    ce4e:	440b      	add	r3, r1
    ce50:	681b      	ldr	r3, [r3, #0]
    ce52:	226c      	movs	r2, #108	; 0x6c
    ce54:	619a      	str	r2, [r3, #24]
    ce56:	bf00      	nop
    ce58:	3708      	adds	r7, #8
    ce5a:	46bd      	mov	sp, r7
    ce5c:	bd80      	pop	{r7, pc}
    ce5e:	bf00      	nop
    ce60:	10004d4c 	.word	0x10004d4c

0000ce64 <Chip_I2C_SetClockRate>:
    ce64:	b580      	push	{r7, lr}
    ce66:	b084      	sub	sp, #16
    ce68:	af00      	add	r7, sp, #0
    ce6a:	4603      	mov	r3, r0
    ce6c:	6039      	str	r1, [r7, #0]
    ce6e:	71fb      	strb	r3, [r7, #7]
    ce70:	79fb      	ldrb	r3, [r7, #7]
    ce72:	4618      	mov	r0, r3
    ce74:	f7ff fbf0 	bl	c658 <getClkRate>
    ce78:	4602      	mov	r2, r0
    ce7a:	683b      	ldr	r3, [r7, #0]
    ce7c:	fbb2 f3f3 	udiv	r3, r2, r3
    ce80:	60fb      	str	r3, [r7, #12]
    ce82:	79fa      	ldrb	r2, [r7, #7]
    ce84:	4910      	ldr	r1, [pc, #64]	; (cec8 <Chip_I2C_SetClockRate+0x64>)
    ce86:	4613      	mov	r3, r2
    ce88:	00db      	lsls	r3, r3, #3
    ce8a:	1a9b      	subs	r3, r3, r2
    ce8c:	009b      	lsls	r3, r3, #2
    ce8e:	440b      	add	r3, r1
    ce90:	681b      	ldr	r3, [r3, #0]
    ce92:	68fa      	ldr	r2, [r7, #12]
    ce94:	0852      	lsrs	r2, r2, #1
    ce96:	611a      	str	r2, [r3, #16]
    ce98:	79fa      	ldrb	r2, [r7, #7]
    ce9a:	490b      	ldr	r1, [pc, #44]	; (cec8 <Chip_I2C_SetClockRate+0x64>)
    ce9c:	4613      	mov	r3, r2
    ce9e:	00db      	lsls	r3, r3, #3
    cea0:	1a9b      	subs	r3, r3, r2
    cea2:	009b      	lsls	r3, r3, #2
    cea4:	440b      	add	r3, r1
    cea6:	6819      	ldr	r1, [r3, #0]
    cea8:	79fa      	ldrb	r2, [r7, #7]
    ceaa:	4807      	ldr	r0, [pc, #28]	; (cec8 <Chip_I2C_SetClockRate+0x64>)
    ceac:	4613      	mov	r3, r2
    ceae:	00db      	lsls	r3, r3, #3
    ceb0:	1a9b      	subs	r3, r3, r2
    ceb2:	009b      	lsls	r3, r3, #2
    ceb4:	4403      	add	r3, r0
    ceb6:	681b      	ldr	r3, [r3, #0]
    ceb8:	691b      	ldr	r3, [r3, #16]
    ceba:	68fa      	ldr	r2, [r7, #12]
    cebc:	1ad3      	subs	r3, r2, r3
    cebe:	614b      	str	r3, [r1, #20]
    cec0:	bf00      	nop
    cec2:	3710      	adds	r7, #16
    cec4:	46bd      	mov	sp, r7
    cec6:	bd80      	pop	{r7, pc}
    cec8:	10004d4c 	.word	0x10004d4c

0000cecc <Chip_I2C_SetMasterEventHandler>:
    cecc:	b480      	push	{r7}
    cece:	b085      	sub	sp, #20
    ced0:	af00      	add	r7, sp, #0
    ced2:	4603      	mov	r3, r0
    ced4:	6039      	str	r1, [r7, #0]
    ced6:	71fb      	strb	r3, [r7, #7]
    ced8:	79fa      	ldrb	r2, [r7, #7]
    ceda:	4613      	mov	r3, r2
    cedc:	00db      	lsls	r3, r3, #3
    cede:	1a9b      	subs	r3, r3, r2
    cee0:	009b      	lsls	r3, r3, #2
    cee2:	4a0b      	ldr	r2, [pc, #44]	; (cf10 <Chip_I2C_SetMasterEventHandler+0x44>)
    cee4:	4413      	add	r3, r2
    cee6:	60fb      	str	r3, [r7, #12]
    cee8:	68fb      	ldr	r3, [r7, #12]
    ceea:	691b      	ldr	r3, [r3, #16]
    ceec:	2b00      	cmp	r3, #0
    ceee:	d102      	bne.n	cef6 <Chip_I2C_SetMasterEventHandler+0x2a>
    cef0:	68fb      	ldr	r3, [r7, #12]
    cef2:	683a      	ldr	r2, [r7, #0]
    cef4:	609a      	str	r2, [r3, #8]
    cef6:	68fb      	ldr	r3, [r7, #12]
    cef8:	689a      	ldr	r2, [r3, #8]
    cefa:	683b      	ldr	r3, [r7, #0]
    cefc:	429a      	cmp	r2, r3
    cefe:	bf0c      	ite	eq
    cf00:	2301      	moveq	r3, #1
    cf02:	2300      	movne	r3, #0
    cf04:	b2db      	uxtb	r3, r3
    cf06:	4618      	mov	r0, r3
    cf08:	3714      	adds	r7, #20
    cf0a:	46bd      	mov	sp, r7
    cf0c:	bc80      	pop	{r7}
    cf0e:	4770      	bx	lr
    cf10:	10004d4c 	.word	0x10004d4c

0000cf14 <Chip_I2C_MasterTransfer>:
    cf14:	b580      	push	{r7, lr}
    cf16:	b084      	sub	sp, #16
    cf18:	af00      	add	r7, sp, #0
    cf1a:	4603      	mov	r3, r0
    cf1c:	6039      	str	r1, [r7, #0]
    cf1e:	71fb      	strb	r3, [r7, #7]
    cf20:	79fa      	ldrb	r2, [r7, #7]
    cf22:	4613      	mov	r3, r2
    cf24:	00db      	lsls	r3, r3, #3
    cf26:	1a9b      	subs	r3, r3, r2
    cf28:	009b      	lsls	r3, r3, #2
    cf2a:	4a20      	ldr	r2, [pc, #128]	; (cfac <Chip_I2C_MasterTransfer+0x98>)
    cf2c:	4413      	add	r3, r2
    cf2e:	60fb      	str	r3, [r7, #12]
    cf30:	68fb      	ldr	r3, [r7, #12]
    cf32:	689b      	ldr	r3, [r3, #8]
    cf34:	79fa      	ldrb	r2, [r7, #7]
    cf36:	2103      	movs	r1, #3
    cf38:	4610      	mov	r0, r2
    cf3a:	4798      	blx	r3
    cf3c:	683b      	ldr	r3, [r7, #0]
    cf3e:	2204      	movs	r2, #4
    cf40:	751a      	strb	r2, [r3, #20]
    cf42:	68fb      	ldr	r3, [r7, #12]
    cf44:	683a      	ldr	r2, [r7, #0]
    cf46:	611a      	str	r2, [r3, #16]
    cf48:	68fb      	ldr	r3, [r7, #12]
    cf4a:	695b      	ldr	r3, [r3, #20]
    cf4c:	2b00      	cmp	r3, #0
    cf4e:	d104      	bne.n	cf5a <Chip_I2C_MasterTransfer+0x46>
    cf50:	68fb      	ldr	r3, [r7, #12]
    cf52:	681b      	ldr	r3, [r3, #0]
    cf54:	4618      	mov	r0, r3
    cf56:	f7ff fb91 	bl	c67c <startMasterXfer>
    cf5a:	68fb      	ldr	r3, [r7, #12]
    cf5c:	689b      	ldr	r3, [r3, #8]
    cf5e:	79fa      	ldrb	r2, [r7, #7]
    cf60:	2101      	movs	r1, #1
    cf62:	4610      	mov	r0, r2
    cf64:	4798      	blx	r3
    cf66:	68fb      	ldr	r3, [r7, #12]
    cf68:	2200      	movs	r2, #0
    cf6a:	611a      	str	r2, [r3, #16]
    cf6c:	bf00      	nop
    cf6e:	68fb      	ldr	r3, [r7, #12]
    cf70:	681b      	ldr	r3, [r3, #0]
    cf72:	4618      	mov	r0, r3
    cf74:	f7ff fba2 	bl	c6bc <isI2CBusFree>
    cf78:	4603      	mov	r3, r0
    cf7a:	2b00      	cmp	r3, #0
    cf7c:	d0f7      	beq.n	cf6e <Chip_I2C_MasterTransfer+0x5a>
    cf7e:	68fb      	ldr	r3, [r7, #12]
    cf80:	699b      	ldr	r3, [r3, #24]
    cf82:	f403 437f 	and.w	r3, r3, #65280	; 0xff00
    cf86:	2b00      	cmp	r3, #0
    cf88:	d004      	beq.n	cf94 <Chip_I2C_MasterTransfer+0x80>
    cf8a:	68fb      	ldr	r3, [r7, #12]
    cf8c:	681b      	ldr	r3, [r3, #0]
    cf8e:	4618      	mov	r0, r3
    cf90:	f7ff fb84 	bl	c69c <startSlaverXfer>
    cf94:	68fb      	ldr	r3, [r7, #12]
    cf96:	689b      	ldr	r3, [r3, #8]
    cf98:	79fa      	ldrb	r2, [r7, #7]
    cf9a:	2104      	movs	r1, #4
    cf9c:	4610      	mov	r0, r2
    cf9e:	4798      	blx	r3
    cfa0:	683b      	ldr	r3, [r7, #0]
    cfa2:	7d1b      	ldrb	r3, [r3, #20]
    cfa4:	4618      	mov	r0, r3
    cfa6:	3710      	adds	r7, #16
    cfa8:	46bd      	mov	sp, r7
    cfaa:	bd80      	pop	{r7, pc}
    cfac:	10004d4c 	.word	0x10004d4c

0000cfb0 <Chip_I2C_MasterSend>:
    cfb0:	b580      	push	{r7, lr}
    cfb2:	b088      	sub	sp, #32
    cfb4:	af00      	add	r7, sp, #0
    cfb6:	603a      	str	r2, [r7, #0]
    cfb8:	461a      	mov	r2, r3
    cfba:	4603      	mov	r3, r0
    cfbc:	71fb      	strb	r3, [r7, #7]
    cfbe:	460b      	mov	r3, r1
    cfc0:	71bb      	strb	r3, [r7, #6]
    cfc2:	4613      	mov	r3, r2
    cfc4:	717b      	strb	r3, [r7, #5]
    cfc6:	f107 0308 	add.w	r3, r7, #8
    cfca:	2200      	movs	r2, #0
    cfcc:	601a      	str	r2, [r3, #0]
    cfce:	605a      	str	r2, [r3, #4]
    cfd0:	609a      	str	r2, [r3, #8]
    cfd2:	60da      	str	r2, [r3, #12]
    cfd4:	611a      	str	r2, [r3, #16]
    cfd6:	615a      	str	r2, [r3, #20]
    cfd8:	79bb      	ldrb	r3, [r7, #6]
    cfda:	723b      	strb	r3, [r7, #8]
    cfdc:	683b      	ldr	r3, [r7, #0]
    cfde:	60fb      	str	r3, [r7, #12]
    cfe0:	797b      	ldrb	r3, [r7, #5]
    cfe2:	613b      	str	r3, [r7, #16]
    cfe4:	bf00      	nop
    cfe6:	f107 0208 	add.w	r2, r7, #8
    cfea:	79fb      	ldrb	r3, [r7, #7]
    cfec:	4611      	mov	r1, r2
    cfee:	4618      	mov	r0, r3
    cff0:	f7ff ff90 	bl	cf14 <Chip_I2C_MasterTransfer>
    cff4:	4603      	mov	r3, r0
    cff6:	2b02      	cmp	r3, #2
    cff8:	d0f5      	beq.n	cfe6 <Chip_I2C_MasterSend+0x36>
    cffa:	797a      	ldrb	r2, [r7, #5]
    cffc:	693b      	ldr	r3, [r7, #16]
    cffe:	1ad3      	subs	r3, r2, r3
    d000:	4618      	mov	r0, r3
    d002:	3720      	adds	r7, #32
    d004:	46bd      	mov	sp, r7
    d006:	bd80      	pop	{r7, pc}

0000d008 <Chip_I2C_IsMasterActive>:
    d008:	b580      	push	{r7, lr}
    d00a:	b082      	sub	sp, #8
    d00c:	af00      	add	r7, sp, #0
    d00e:	4603      	mov	r3, r0
    d010:	71fb      	strb	r3, [r7, #7]
    d012:	79fa      	ldrb	r2, [r7, #7]
    d014:	4907      	ldr	r1, [pc, #28]	; (d034 <Chip_I2C_IsMasterActive+0x2c>)
    d016:	4613      	mov	r3, r2
    d018:	00db      	lsls	r3, r3, #3
    d01a:	1a9b      	subs	r3, r3, r2
    d01c:	009b      	lsls	r3, r3, #2
    d01e:	440b      	add	r3, r1
    d020:	681b      	ldr	r3, [r3, #0]
    d022:	4618      	mov	r0, r3
    d024:	f7ff fb6a 	bl	c6fc <isMasterState>
    d028:	4603      	mov	r3, r0
    d02a:	4618      	mov	r0, r3
    d02c:	3708      	adds	r7, #8
    d02e:	46bd      	mov	sp, r7
    d030:	bd80      	pop	{r7, pc}
    d032:	bf00      	nop
    d034:	10004d4c 	.word	0x10004d4c

0000d038 <Chip_I2C_MasterStateHandler>:
    d038:	b580      	push	{r7, lr}
    d03a:	b082      	sub	sp, #8
    d03c:	af00      	add	r7, sp, #0
    d03e:	4603      	mov	r3, r0
    d040:	71fb      	strb	r3, [r7, #7]
    d042:	79fa      	ldrb	r2, [r7, #7]
    d044:	4913      	ldr	r1, [pc, #76]	; (d094 <Chip_I2C_MasterStateHandler+0x5c>)
    d046:	4613      	mov	r3, r2
    d048:	00db      	lsls	r3, r3, #3
    d04a:	1a9b      	subs	r3, r3, r2
    d04c:	009b      	lsls	r3, r3, #2
    d04e:	440b      	add	r3, r1
    d050:	6818      	ldr	r0, [r3, #0]
    d052:	79fa      	ldrb	r2, [r7, #7]
    d054:	490f      	ldr	r1, [pc, #60]	; (d094 <Chip_I2C_MasterStateHandler+0x5c>)
    d056:	4613      	mov	r3, r2
    d058:	00db      	lsls	r3, r3, #3
    d05a:	1a9b      	subs	r3, r3, r2
    d05c:	009b      	lsls	r3, r3, #2
    d05e:	440b      	add	r3, r1
    d060:	3310      	adds	r3, #16
    d062:	681b      	ldr	r3, [r3, #0]
    d064:	4619      	mov	r1, r3
    d066:	f7ff fbc9 	bl	c7fc <handleMasterXferState>
    d06a:	4603      	mov	r3, r0
    d06c:	2b00      	cmp	r3, #0
    d06e:	d10c      	bne.n	d08a <Chip_I2C_MasterStateHandler+0x52>
    d070:	79fa      	ldrb	r2, [r7, #7]
    d072:	4908      	ldr	r1, [pc, #32]	; (d094 <Chip_I2C_MasterStateHandler+0x5c>)
    d074:	4613      	mov	r3, r2
    d076:	00db      	lsls	r3, r3, #3
    d078:	1a9b      	subs	r3, r3, r2
    d07a:	009b      	lsls	r3, r3, #2
    d07c:	440b      	add	r3, r1
    d07e:	3308      	adds	r3, #8
    d080:	681b      	ldr	r3, [r3, #0]
    d082:	79fa      	ldrb	r2, [r7, #7]
    d084:	2102      	movs	r1, #2
    d086:	4610      	mov	r0, r2
    d088:	4798      	blx	r3
    d08a:	bf00      	nop
    d08c:	3708      	adds	r7, #8
    d08e:	46bd      	mov	sp, r7
    d090:	bd80      	pop	{r7, pc}
    d092:	bf00      	nop
    d094:	10004d4c 	.word	0x10004d4c

0000d098 <Chip_I2C_SlaveStateHandler>:
    d098:	b580      	push	{r7, lr}
    d09a:	b086      	sub	sp, #24
    d09c:	af00      	add	r7, sp, #0
    d09e:	4603      	mov	r3, r0
    d0a0:	71fb      	strb	r3, [r7, #7]
    d0a2:	79fa      	ldrb	r2, [r7, #7]
    d0a4:	4613      	mov	r3, r2
    d0a6:	00db      	lsls	r3, r3, #3
    d0a8:	1a9b      	subs	r3, r3, r2
    d0aa:	009b      	lsls	r3, r3, #2
    d0ac:	4a28      	ldr	r2, [pc, #160]	; (d150 <Chip_I2C_SlaveStateHandler+0xb8>)
    d0ae:	4413      	add	r3, r2
    d0b0:	617b      	str	r3, [r7, #20]
    d0b2:	697b      	ldr	r3, [r7, #20]
    d0b4:	695b      	ldr	r3, [r3, #20]
    d0b6:	2b00      	cmp	r3, #0
    d0b8:	d118      	bne.n	d0ec <Chip_I2C_SlaveStateHandler+0x54>
    d0ba:	697b      	ldr	r3, [r7, #20]
    d0bc:	681b      	ldr	r3, [r3, #0]
    d0be:	4618      	mov	r0, r3
    d0c0:	f7ff fcde 	bl	ca80 <getSlaveIndex>
    d0c4:	4603      	mov	r3, r0
    d0c6:	74fb      	strb	r3, [r7, #19]
    d0c8:	79fa      	ldrb	r2, [r7, #7]
    d0ca:	7cf9      	ldrb	r1, [r7, #19]
    d0cc:	4613      	mov	r3, r2
    d0ce:	009b      	lsls	r3, r3, #2
    d0d0:	4413      	add	r3, r2
    d0d2:	440b      	add	r3, r1
    d0d4:	00db      	lsls	r3, r3, #3
    d0d6:	4a1f      	ldr	r2, [pc, #124]	; (d154 <Chip_I2C_SlaveStateHandler+0xbc>)
    d0d8:	4413      	add	r3, r2
    d0da:	60fb      	str	r3, [r7, #12]
    d0dc:	68fb      	ldr	r3, [r7, #12]
    d0de:	681a      	ldr	r2, [r3, #0]
    d0e0:	697b      	ldr	r3, [r7, #20]
    d0e2:	615a      	str	r2, [r3, #20]
    d0e4:	68fb      	ldr	r3, [r7, #12]
    d0e6:	685a      	ldr	r2, [r3, #4]
    d0e8:	697b      	ldr	r3, [r7, #20]
    d0ea:	60da      	str	r2, [r3, #12]
    d0ec:	697b      	ldr	r3, [r7, #20]
    d0ee:	695b      	ldr	r3, [r3, #20]
    d0f0:	697a      	ldr	r2, [r7, #20]
    d0f2:	6952      	ldr	r2, [r2, #20]
    d0f4:	7812      	ldrb	r2, [r2, #0]
    d0f6:	b251      	sxtb	r1, r2
    d0f8:	697a      	ldr	r2, [r7, #20]
    d0fa:	6912      	ldr	r2, [r2, #16]
    d0fc:	2a00      	cmp	r2, #0
    d0fe:	bf14      	ite	ne
    d100:	2201      	movne	r2, #1
    d102:	2200      	moveq	r2, #0
    d104:	b2d2      	uxtb	r2, r2
    d106:	b252      	sxtb	r2, r2
    d108:	430a      	orrs	r2, r1
    d10a:	b252      	sxtb	r2, r2
    d10c:	b2d2      	uxtb	r2, r2
    d10e:	701a      	strb	r2, [r3, #0]
    d110:	697b      	ldr	r3, [r7, #20]
    d112:	681a      	ldr	r2, [r3, #0]
    d114:	697b      	ldr	r3, [r7, #20]
    d116:	695b      	ldr	r3, [r3, #20]
    d118:	4619      	mov	r1, r3
    d11a:	4610      	mov	r0, r2
    d11c:	f7ff fcd6 	bl	cacc <handleSlaveXferState>
    d120:	60b8      	str	r0, [r7, #8]
    d122:	68bb      	ldr	r3, [r7, #8]
    d124:	2b00      	cmp	r3, #0
    d126:	d00e      	beq.n	d146 <Chip_I2C_SlaveStateHandler+0xae>
    d128:	697b      	ldr	r3, [r7, #20]
    d12a:	695b      	ldr	r3, [r3, #20]
    d12c:	7d1b      	ldrb	r3, [r3, #20]
    d12e:	2b00      	cmp	r3, #0
    d130:	d102      	bne.n	d138 <Chip_I2C_SlaveStateHandler+0xa0>
    d132:	697b      	ldr	r3, [r7, #20]
    d134:	2200      	movs	r2, #0
    d136:	615a      	str	r2, [r3, #20]
    d138:	697b      	ldr	r3, [r7, #20]
    d13a:	68db      	ldr	r3, [r3, #12]
    d13c:	68ba      	ldr	r2, [r7, #8]
    d13e:	b2d1      	uxtb	r1, r2
    d140:	79fa      	ldrb	r2, [r7, #7]
    d142:	4610      	mov	r0, r2
    d144:	4798      	blx	r3
    d146:	bf00      	nop
    d148:	3718      	adds	r7, #24
    d14a:	46bd      	mov	sp, r7
    d14c:	bd80      	pop	{r7, pc}
    d14e:	bf00      	nop
    d150:	10004d4c 	.word	0x10004d4c
    d154:	10004a08 	.word	0x10004a08

0000d158 <Chip_I2C_IsStateChanged>:
    d158:	b480      	push	{r7}
    d15a:	b083      	sub	sp, #12
    d15c:	af00      	add	r7, sp, #0
    d15e:	4603      	mov	r3, r0
    d160:	71fb      	strb	r3, [r7, #7]
    d162:	79fa      	ldrb	r2, [r7, #7]
    d164:	4909      	ldr	r1, [pc, #36]	; (d18c <Chip_I2C_IsStateChanged+0x34>)
    d166:	4613      	mov	r3, r2
    d168:	00db      	lsls	r3, r3, #3
    d16a:	1a9b      	subs	r3, r3, r2
    d16c:	009b      	lsls	r3, r3, #2
    d16e:	440b      	add	r3, r1
    d170:	681b      	ldr	r3, [r3, #0]
    d172:	681b      	ldr	r3, [r3, #0]
    d174:	f003 0308 	and.w	r3, r3, #8
    d178:	2b00      	cmp	r3, #0
    d17a:	bf14      	ite	ne
    d17c:	2301      	movne	r3, #1
    d17e:	2300      	moveq	r3, #0
    d180:	b2db      	uxtb	r3, r3
    d182:	4618      	mov	r0, r3
    d184:	370c      	adds	r7, #12
    d186:	46bd      	mov	sp, r7
    d188:	bc80      	pop	{r7}
    d18a:	4770      	bx	lr
    d18c:	10004d4c 	.word	0x10004d4c

0000d190 <Chip_IOCON_PinMuxSet>:
    d190:	b580      	push	{r7, lr}
    d192:	b086      	sub	sp, #24
    d194:	af02      	add	r7, sp, #8
    d196:	60f8      	str	r0, [r7, #12]
    d198:	607b      	str	r3, [r7, #4]
    d19a:	460b      	mov	r3, r1
    d19c:	72fb      	strb	r3, [r7, #11]
    d19e:	4613      	mov	r3, r2
    d1a0:	72bb      	strb	r3, [r7, #10]
    d1a2:	687b      	ldr	r3, [r7, #4]
    d1a4:	0898      	lsrs	r0, r3, #2
    d1a6:	687b      	ldr	r3, [r7, #4]
    d1a8:	b2db      	uxtb	r3, r3
    d1aa:	f003 0303 	and.w	r3, r3, #3
    d1ae:	b2db      	uxtb	r3, r3
    d1b0:	7aba      	ldrb	r2, [r7, #10]
    d1b2:	7af9      	ldrb	r1, [r7, #11]
    d1b4:	9300      	str	r3, [sp, #0]
    d1b6:	4603      	mov	r3, r0
    d1b8:	68f8      	ldr	r0, [r7, #12]
    d1ba:	f000 f805 	bl	d1c8 <Chip_IOCON_PinMux>
    d1be:	bf00      	nop
    d1c0:	3710      	adds	r7, #16
    d1c2:	46bd      	mov	sp, r7
    d1c4:	bd80      	pop	{r7, pc}
    d1c6:	bf00      	nop

0000d1c8 <Chip_IOCON_PinMux>:
    d1c8:	b480      	push	{r7}
    d1ca:	b087      	sub	sp, #28
    d1cc:	af00      	add	r7, sp, #0
    d1ce:	60f8      	str	r0, [r7, #12]
    d1d0:	607b      	str	r3, [r7, #4]
    d1d2:	460b      	mov	r3, r1
    d1d4:	72fb      	strb	r3, [r7, #11]
    d1d6:	4613      	mov	r3, r2
    d1d8:	72bb      	strb	r3, [r7, #10]
    d1da:	7abb      	ldrb	r3, [r7, #10]
    d1dc:	f003 030f 	and.w	r3, r3, #15
    d1e0:	b2db      	uxtb	r3, r3
    d1e2:	005b      	lsls	r3, r3, #1
    d1e4:	75fb      	strb	r3, [r7, #23]
    d1e6:	7afb      	ldrb	r3, [r7, #11]
    d1e8:	005b      	lsls	r3, r3, #1
    d1ea:	b2da      	uxtb	r2, r3
    d1ec:	7abb      	ldrb	r3, [r7, #10]
    d1ee:	091b      	lsrs	r3, r3, #4
    d1f0:	b2db      	uxtb	r3, r3
    d1f2:	4413      	add	r3, r2
    d1f4:	75bb      	strb	r3, [r7, #22]
    d1f6:	7dba      	ldrb	r2, [r7, #22]
    d1f8:	68fb      	ldr	r3, [r7, #12]
    d1fa:	f853 2022 	ldr.w	r2, [r3, r2, lsl #2]
    d1fe:	7dfb      	ldrb	r3, [r7, #23]
    d200:	2103      	movs	r1, #3
    d202:	fa01 f303 	lsl.w	r3, r1, r3
    d206:	43db      	mvns	r3, r3
    d208:	4013      	ands	r3, r2
    d20a:	613b      	str	r3, [r7, #16]
    d20c:	7dba      	ldrb	r2, [r7, #22]
    d20e:	f897 1020 	ldrb.w	r1, [r7, #32]
    d212:	7dfb      	ldrb	r3, [r7, #23]
    d214:	fa01 f303 	lsl.w	r3, r1, r3
    d218:	4619      	mov	r1, r3
    d21a:	693b      	ldr	r3, [r7, #16]
    d21c:	4319      	orrs	r1, r3
    d21e:	68fb      	ldr	r3, [r7, #12]
    d220:	f843 1022 	str.w	r1, [r3, r2, lsl #2]
    d224:	7dba      	ldrb	r2, [r7, #22]
    d226:	68fb      	ldr	r3, [r7, #12]
    d228:	3210      	adds	r2, #16
    d22a:	f853 2022 	ldr.w	r2, [r3, r2, lsl #2]
    d22e:	7dfb      	ldrb	r3, [r7, #23]
    d230:	2103      	movs	r1, #3
    d232:	fa01 f303 	lsl.w	r3, r1, r3
    d236:	43db      	mvns	r3, r3
    d238:	4013      	ands	r3, r2
    d23a:	613b      	str	r3, [r7, #16]
    d23c:	7dba      	ldrb	r2, [r7, #22]
    d23e:	7dfb      	ldrb	r3, [r7, #23]
    d240:	6879      	ldr	r1, [r7, #4]
    d242:	4099      	lsls	r1, r3
    d244:	693b      	ldr	r3, [r7, #16]
    d246:	4319      	orrs	r1, r3
    d248:	68fb      	ldr	r3, [r7, #12]
    d24a:	3210      	adds	r2, #16
    d24c:	f843 1022 	str.w	r1, [r3, r2, lsl #2]
    d250:	bf00      	nop
    d252:	371c      	adds	r7, #28
    d254:	46bd      	mov	sp, r7
    d256:	bc80      	pop	{r7}
    d258:	4770      	bx	lr
    d25a:	bf00      	nop

0000d25c <Chip_IOCON_SetPinMuxing>:
    d25c:	b580      	push	{r7, lr}
    d25e:	b086      	sub	sp, #24
    d260:	af00      	add	r7, sp, #0
    d262:	60f8      	str	r0, [r7, #12]
    d264:	60b9      	str	r1, [r7, #8]
    d266:	607a      	str	r2, [r7, #4]
    d268:	2300      	movs	r3, #0
    d26a:	617b      	str	r3, [r7, #20]
    d26c:	e01f      	b.n	d2ae <Chip_IOCON_SetPinMuxing+0x52>
    d26e:	697b      	ldr	r3, [r7, #20]
    d270:	009b      	lsls	r3, r3, #2
    d272:	68ba      	ldr	r2, [r7, #8]
    d274:	4413      	add	r3, r2
    d276:	781b      	ldrb	r3, [r3, #0]
    d278:	f3c3 0302 	ubfx	r3, r3, #0, #3
    d27c:	b2db      	uxtb	r3, r3
    d27e:	4619      	mov	r1, r3
    d280:	697b      	ldr	r3, [r7, #20]
    d282:	009b      	lsls	r3, r3, #2
    d284:	68ba      	ldr	r2, [r7, #8]
    d286:	4413      	add	r3, r2
    d288:	781b      	ldrb	r3, [r3, #0]
    d28a:	f3c3 03c4 	ubfx	r3, r3, #3, #5
    d28e:	b2db      	uxtb	r3, r3
    d290:	4618      	mov	r0, r3
    d292:	697b      	ldr	r3, [r7, #20]
    d294:	009b      	lsls	r3, r3, #2
    d296:	68ba      	ldr	r2, [r7, #8]
    d298:	4413      	add	r3, r2
    d29a:	681b      	ldr	r3, [r3, #0]
    d29c:	f3c3 2317 	ubfx	r3, r3, #8, #24
    d2a0:	4602      	mov	r2, r0
    d2a2:	68f8      	ldr	r0, [r7, #12]
    d2a4:	f7ff ff74 	bl	d190 <Chip_IOCON_PinMuxSet>
    d2a8:	697b      	ldr	r3, [r7, #20]
    d2aa:	3301      	adds	r3, #1
    d2ac:	617b      	str	r3, [r7, #20]
    d2ae:	697a      	ldr	r2, [r7, #20]
    d2b0:	687b      	ldr	r3, [r7, #4]
    d2b2:	429a      	cmp	r2, r3
    d2b4:	d3db      	bcc.n	d26e <Chip_IOCON_SetPinMuxing+0x12>
    d2b6:	bf00      	nop
    d2b8:	3718      	adds	r7, #24
    d2ba:	46bd      	mov	sp, r7
    d2bc:	bd80      	pop	{r7, pc}
    d2be:	bf00      	nop

0000d2c0 <Chip_SSP_Disable>:
    d2c0:	b480      	push	{r7}
    d2c2:	b083      	sub	sp, #12
    d2c4:	af00      	add	r7, sp, #0
    d2c6:	6078      	str	r0, [r7, #4]
    d2c8:	687b      	ldr	r3, [r7, #4]
    d2ca:	685b      	ldr	r3, [r3, #4]
    d2cc:	f003 020d 	and.w	r2, r3, #13
    d2d0:	687b      	ldr	r3, [r7, #4]
    d2d2:	605a      	str	r2, [r3, #4]
    d2d4:	bf00      	nop
    d2d6:	370c      	adds	r7, #12
    d2d8:	46bd      	mov	sp, r7
    d2da:	bc80      	pop	{r7}
    d2dc:	4770      	bx	lr
    d2de:	bf00      	nop

0000d2e0 <Chip_SSP_GetStatus>:
    d2e0:	b480      	push	{r7}
    d2e2:	b083      	sub	sp, #12
    d2e4:	af00      	add	r7, sp, #0
    d2e6:	6078      	str	r0, [r7, #4]
    d2e8:	460b      	mov	r3, r1
    d2ea:	70fb      	strb	r3, [r7, #3]
    d2ec:	687b      	ldr	r3, [r7, #4]
    d2ee:	68da      	ldr	r2, [r3, #12]
    d2f0:	78fb      	ldrb	r3, [r7, #3]
    d2f2:	4013      	ands	r3, r2
    d2f4:	2b00      	cmp	r3, #0
    d2f6:	bf14      	ite	ne
    d2f8:	2301      	movne	r3, #1
    d2fa:	2300      	moveq	r3, #0
    d2fc:	b2db      	uxtb	r3, r3
    d2fe:	4618      	mov	r0, r3
    d300:	370c      	adds	r7, #12
    d302:	46bd      	mov	sp, r7
    d304:	bc80      	pop	{r7}
    d306:	4770      	bx	lr

0000d308 <Chip_SSP_GetRawIntStatus>:
    d308:	b480      	push	{r7}
    d30a:	b083      	sub	sp, #12
    d30c:	af00      	add	r7, sp, #0
    d30e:	6078      	str	r0, [r7, #4]
    d310:	460b      	mov	r3, r1
    d312:	70fb      	strb	r3, [r7, #3]
    d314:	687b      	ldr	r3, [r7, #4]
    d316:	699a      	ldr	r2, [r3, #24]
    d318:	78fb      	ldrb	r3, [r7, #3]
    d31a:	4013      	ands	r3, r2
    d31c:	2b00      	cmp	r3, #0
    d31e:	bf14      	ite	ne
    d320:	2301      	movne	r3, #1
    d322:	2300      	moveq	r3, #0
    d324:	b2db      	uxtb	r3, r3
    d326:	4618      	mov	r0, r3
    d328:	370c      	adds	r7, #12
    d32a:	46bd      	mov	sp, r7
    d32c:	bc80      	pop	{r7}
    d32e:	4770      	bx	lr

0000d330 <Chip_SSP_GetDataSize>:
    d330:	b480      	push	{r7}
    d332:	b083      	sub	sp, #12
    d334:	af00      	add	r7, sp, #0
    d336:	6078      	str	r0, [r7, #4]
    d338:	687b      	ldr	r3, [r7, #4]
    d33a:	681b      	ldr	r3, [r3, #0]
    d33c:	b2db      	uxtb	r3, r3
    d33e:	f003 030f 	and.w	r3, r3, #15
    d342:	b2db      	uxtb	r3, r3
    d344:	4618      	mov	r0, r3
    d346:	370c      	adds	r7, #12
    d348:	46bd      	mov	sp, r7
    d34a:	bc80      	pop	{r7}
    d34c:	4770      	bx	lr
    d34e:	bf00      	nop

0000d350 <Chip_SSP_ClearIntPending>:
    d350:	b480      	push	{r7}
    d352:	b083      	sub	sp, #12
    d354:	af00      	add	r7, sp, #0
    d356:	6078      	str	r0, [r7, #4]
    d358:	460b      	mov	r3, r1
    d35a:	70fb      	strb	r3, [r7, #3]
    d35c:	78fa      	ldrb	r2, [r7, #3]
    d35e:	687b      	ldr	r3, [r7, #4]
    d360:	621a      	str	r2, [r3, #32]
    d362:	bf00      	nop
    d364:	370c      	adds	r7, #12
    d366:	46bd      	mov	sp, r7
    d368:	bc80      	pop	{r7}
    d36a:	4770      	bx	lr

0000d36c <Chip_SSP_ReceiveFrame>:
    d36c:	b480      	push	{r7}
    d36e:	b083      	sub	sp, #12
    d370:	af00      	add	r7, sp, #0
    d372:	6078      	str	r0, [r7, #4]
    d374:	687b      	ldr	r3, [r7, #4]
    d376:	689b      	ldr	r3, [r3, #8]
    d378:	b29b      	uxth	r3, r3
    d37a:	4618      	mov	r0, r3
    d37c:	370c      	adds	r7, #12
    d37e:	46bd      	mov	sp, r7
    d380:	bc80      	pop	{r7}
    d382:	4770      	bx	lr

0000d384 <Chip_SSP_SendFrame>:
    d384:	b480      	push	{r7}
    d386:	b083      	sub	sp, #12
    d388:	af00      	add	r7, sp, #0
    d38a:	6078      	str	r0, [r7, #4]
    d38c:	460b      	mov	r3, r1
    d38e:	807b      	strh	r3, [r7, #2]
    d390:	887a      	ldrh	r2, [r7, #2]
    d392:	687b      	ldr	r3, [r7, #4]
    d394:	609a      	str	r2, [r3, #8]
    d396:	bf00      	nop
    d398:	370c      	adds	r7, #12
    d39a:	46bd      	mov	sp, r7
    d39c:	bc80      	pop	{r7}
    d39e:	4770      	bx	lr

0000d3a0 <Chip_SSP_SetFormat>:
    d3a0:	b480      	push	{r7}
    d3a2:	b085      	sub	sp, #20
    d3a4:	af00      	add	r7, sp, #0
    d3a6:	60f8      	str	r0, [r7, #12]
    d3a8:	60b9      	str	r1, [r7, #8]
    d3aa:	607a      	str	r2, [r7, #4]
    d3ac:	603b      	str	r3, [r7, #0]
    d3ae:	68fb      	ldr	r3, [r7, #12]
    d3b0:	681b      	ldr	r3, [r3, #0]
    d3b2:	f023 02ff 	bic.w	r2, r3, #255	; 0xff
    d3b6:	68bb      	ldr	r3, [r7, #8]
    d3b8:	431a      	orrs	r2, r3
    d3ba:	687b      	ldr	r3, [r7, #4]
    d3bc:	431a      	orrs	r2, r3
    d3be:	683b      	ldr	r3, [r7, #0]
    d3c0:	431a      	orrs	r2, r3
    d3c2:	68fb      	ldr	r3, [r7, #12]
    d3c4:	601a      	str	r2, [r3, #0]
    d3c6:	bf00      	nop
    d3c8:	3714      	adds	r7, #20
    d3ca:	46bd      	mov	sp, r7
    d3cc:	bc80      	pop	{r7}
    d3ce:	4770      	bx	lr

0000d3d0 <Chip_SSP_Set_Mode>:
    d3d0:	b480      	push	{r7}
    d3d2:	b083      	sub	sp, #12
    d3d4:	af00      	add	r7, sp, #0
    d3d6:	6078      	str	r0, [r7, #4]
    d3d8:	6039      	str	r1, [r7, #0]
    d3da:	687b      	ldr	r3, [r7, #4]
    d3dc:	685b      	ldr	r3, [r3, #4]
    d3de:	f023 0204 	bic.w	r2, r3, #4
    d3e2:	683b      	ldr	r3, [r7, #0]
    d3e4:	431a      	orrs	r2, r3
    d3e6:	687b      	ldr	r3, [r7, #4]
    d3e8:	605a      	str	r2, [r3, #4]
    d3ea:	bf00      	nop
    d3ec:	370c      	adds	r7, #12
    d3ee:	46bd      	mov	sp, r7
    d3f0:	bc80      	pop	{r7}
    d3f2:	4770      	bx	lr

0000d3f4 <SSP_Write2BFifo>:
    d3f4:	b580      	push	{r7, lr}
    d3f6:	b082      	sub	sp, #8
    d3f8:	af00      	add	r7, sp, #0
    d3fa:	6078      	str	r0, [r7, #4]
    d3fc:	6039      	str	r1, [r7, #0]
    d3fe:	683b      	ldr	r3, [r7, #0]
    d400:	681b      	ldr	r3, [r3, #0]
    d402:	2b00      	cmp	r3, #0
    d404:	d00b      	beq.n	d41e <SSP_Write2BFifo+0x2a>
    d406:	683b      	ldr	r3, [r7, #0]
    d408:	681b      	ldr	r3, [r3, #0]
    d40a:	461a      	mov	r2, r3
    d40c:	683b      	ldr	r3, [r7, #0]
    d40e:	685b      	ldr	r3, [r3, #4]
    d410:	4413      	add	r3, r2
    d412:	881b      	ldrh	r3, [r3, #0]
    d414:	4619      	mov	r1, r3
    d416:	6878      	ldr	r0, [r7, #4]
    d418:	f7ff ffb4 	bl	d384 <Chip_SSP_SendFrame>
    d41c:	e004      	b.n	d428 <SSP_Write2BFifo+0x34>
    d41e:	f64f 71ff 	movw	r1, #65535	; 0xffff
    d422:	6878      	ldr	r0, [r7, #4]
    d424:	f7ff ffae 	bl	d384 <Chip_SSP_SendFrame>
    d428:	683b      	ldr	r3, [r7, #0]
    d42a:	685b      	ldr	r3, [r3, #4]
    d42c:	1c9a      	adds	r2, r3, #2
    d42e:	683b      	ldr	r3, [r7, #0]
    d430:	605a      	str	r2, [r3, #4]
    d432:	bf00      	nop
    d434:	3708      	adds	r7, #8
    d436:	46bd      	mov	sp, r7
    d438:	bd80      	pop	{r7, pc}
    d43a:	bf00      	nop

0000d43c <SSP_Write1BFifo>:
    d43c:	b580      	push	{r7, lr}
    d43e:	b082      	sub	sp, #8
    d440:	af00      	add	r7, sp, #0
    d442:	6078      	str	r0, [r7, #4]
    d444:	6039      	str	r1, [r7, #0]
    d446:	683b      	ldr	r3, [r7, #0]
    d448:	681b      	ldr	r3, [r3, #0]
    d44a:	2b00      	cmp	r3, #0
    d44c:	d00c      	beq.n	d468 <SSP_Write1BFifo+0x2c>
    d44e:	683b      	ldr	r3, [r7, #0]
    d450:	681b      	ldr	r3, [r3, #0]
    d452:	461a      	mov	r2, r3
    d454:	683b      	ldr	r3, [r7, #0]
    d456:	685b      	ldr	r3, [r3, #4]
    d458:	4413      	add	r3, r2
    d45a:	781b      	ldrb	r3, [r3, #0]
    d45c:	b29b      	uxth	r3, r3
    d45e:	4619      	mov	r1, r3
    d460:	6878      	ldr	r0, [r7, #4]
    d462:	f7ff ff8f 	bl	d384 <Chip_SSP_SendFrame>
    d466:	e003      	b.n	d470 <SSP_Write1BFifo+0x34>
    d468:	21ff      	movs	r1, #255	; 0xff
    d46a:	6878      	ldr	r0, [r7, #4]
    d46c:	f7ff ff8a 	bl	d384 <Chip_SSP_SendFrame>
    d470:	683b      	ldr	r3, [r7, #0]
    d472:	685b      	ldr	r3, [r3, #4]
    d474:	1c5a      	adds	r2, r3, #1
    d476:	683b      	ldr	r3, [r7, #0]
    d478:	605a      	str	r2, [r3, #4]
    d47a:	bf00      	nop
    d47c:	3708      	adds	r7, #8
    d47e:	46bd      	mov	sp, r7
    d480:	bd80      	pop	{r7, pc}
    d482:	bf00      	nop

0000d484 <SSP_Read2BFifo>:
    d484:	b580      	push	{r7, lr}
    d486:	b084      	sub	sp, #16
    d488:	af00      	add	r7, sp, #0
    d48a:	6078      	str	r0, [r7, #4]
    d48c:	6039      	str	r1, [r7, #0]
    d48e:	e016      	b.n	d4be <SSP_Read2BFifo+0x3a>
    d490:	6878      	ldr	r0, [r7, #4]
    d492:	f7ff ff6b 	bl	d36c <Chip_SSP_ReceiveFrame>
    d496:	4603      	mov	r3, r0
    d498:	81fb      	strh	r3, [r7, #14]
    d49a:	683b      	ldr	r3, [r7, #0]
    d49c:	689b      	ldr	r3, [r3, #8]
    d49e:	2b00      	cmp	r3, #0
    d4a0:	d008      	beq.n	d4b4 <SSP_Read2BFifo+0x30>
    d4a2:	683b      	ldr	r3, [r7, #0]
    d4a4:	689b      	ldr	r3, [r3, #8]
    d4a6:	461a      	mov	r2, r3
    d4a8:	683b      	ldr	r3, [r7, #0]
    d4aa:	68db      	ldr	r3, [r3, #12]
    d4ac:	4413      	add	r3, r2
    d4ae:	461a      	mov	r2, r3
    d4b0:	89fb      	ldrh	r3, [r7, #14]
    d4b2:	8013      	strh	r3, [r2, #0]
    d4b4:	683b      	ldr	r3, [r7, #0]
    d4b6:	68db      	ldr	r3, [r3, #12]
    d4b8:	1c9a      	adds	r2, r3, #2
    d4ba:	683b      	ldr	r3, [r7, #0]
    d4bc:	60da      	str	r2, [r3, #12]
    d4be:	2104      	movs	r1, #4
    d4c0:	6878      	ldr	r0, [r7, #4]
    d4c2:	f7ff ff0d 	bl	d2e0 <Chip_SSP_GetStatus>
    d4c6:	4603      	mov	r3, r0
    d4c8:	2b01      	cmp	r3, #1
    d4ca:	d105      	bne.n	d4d8 <SSP_Read2BFifo+0x54>
    d4cc:	683b      	ldr	r3, [r7, #0]
    d4ce:	68da      	ldr	r2, [r3, #12]
    d4d0:	683b      	ldr	r3, [r7, #0]
    d4d2:	691b      	ldr	r3, [r3, #16]
    d4d4:	429a      	cmp	r2, r3
    d4d6:	d3db      	bcc.n	d490 <SSP_Read2BFifo+0xc>
    d4d8:	bf00      	nop
    d4da:	3710      	adds	r7, #16
    d4dc:	46bd      	mov	sp, r7
    d4de:	bd80      	pop	{r7, pc}

0000d4e0 <SSP_Read1BFifo>:
    d4e0:	b580      	push	{r7, lr}
    d4e2:	b084      	sub	sp, #16
    d4e4:	af00      	add	r7, sp, #0
    d4e6:	6078      	str	r0, [r7, #4]
    d4e8:	6039      	str	r1, [r7, #0]
    d4ea:	e016      	b.n	d51a <SSP_Read1BFifo+0x3a>
    d4ec:	6878      	ldr	r0, [r7, #4]
    d4ee:	f7ff ff3d 	bl	d36c <Chip_SSP_ReceiveFrame>
    d4f2:	4603      	mov	r3, r0
    d4f4:	81fb      	strh	r3, [r7, #14]
    d4f6:	683b      	ldr	r3, [r7, #0]
    d4f8:	689b      	ldr	r3, [r3, #8]
    d4fa:	2b00      	cmp	r3, #0
    d4fc:	d008      	beq.n	d510 <SSP_Read1BFifo+0x30>
    d4fe:	683b      	ldr	r3, [r7, #0]
    d500:	689b      	ldr	r3, [r3, #8]
    d502:	461a      	mov	r2, r3
    d504:	683b      	ldr	r3, [r7, #0]
    d506:	68db      	ldr	r3, [r3, #12]
    d508:	4413      	add	r3, r2
    d50a:	89fa      	ldrh	r2, [r7, #14]
    d50c:	b2d2      	uxtb	r2, r2
    d50e:	701a      	strb	r2, [r3, #0]
    d510:	683b      	ldr	r3, [r7, #0]
    d512:	68db      	ldr	r3, [r3, #12]
    d514:	1c5a      	adds	r2, r3, #1
    d516:	683b      	ldr	r3, [r7, #0]
    d518:	60da      	str	r2, [r3, #12]
    d51a:	2104      	movs	r1, #4
    d51c:	6878      	ldr	r0, [r7, #4]
    d51e:	f7ff fedf 	bl	d2e0 <Chip_SSP_GetStatus>
    d522:	4603      	mov	r3, r0
    d524:	2b01      	cmp	r3, #1
    d526:	d105      	bne.n	d534 <SSP_Read1BFifo+0x54>
    d528:	683b      	ldr	r3, [r7, #0]
    d52a:	68da      	ldr	r2, [r3, #12]
    d52c:	683b      	ldr	r3, [r7, #0]
    d52e:	691b      	ldr	r3, [r3, #16]
    d530:	429a      	cmp	r2, r3
    d532:	d3db      	bcc.n	d4ec <SSP_Read1BFifo+0xc>
    d534:	bf00      	nop
    d536:	3710      	adds	r7, #16
    d538:	46bd      	mov	sp, r7
    d53a:	bd80      	pop	{r7, pc}

0000d53c <Chip_SSP_GetClockIndex>:
    d53c:	b480      	push	{r7}
    d53e:	b085      	sub	sp, #20
    d540:	af00      	add	r7, sp, #0
    d542:	6078      	str	r0, [r7, #4]
    d544:	687b      	ldr	r3, [r7, #4]
    d546:	4a07      	ldr	r2, [pc, #28]	; (d564 <Chip_SSP_GetClockIndex+0x28>)
    d548:	4293      	cmp	r3, r2
    d54a:	d102      	bne.n	d552 <Chip_SSP_GetClockIndex+0x16>
    d54c:	230a      	movs	r3, #10
    d54e:	73fb      	strb	r3, [r7, #15]
    d550:	e001      	b.n	d556 <Chip_SSP_GetClockIndex+0x1a>
    d552:	2315      	movs	r3, #21
    d554:	73fb      	strb	r3, [r7, #15]
    d556:	7bfb      	ldrb	r3, [r7, #15]
    d558:	4618      	mov	r0, r3
    d55a:	3714      	adds	r7, #20
    d55c:	46bd      	mov	sp, r7
    d55e:	bc80      	pop	{r7}
    d560:	4770      	bx	lr
    d562:	bf00      	nop
    d564:	40030000 	.word	0x40030000

0000d568 <Chip_SSP_GetClkIndex>:
    d568:	b480      	push	{r7}
    d56a:	b085      	sub	sp, #20
    d56c:	af00      	add	r7, sp, #0
    d56e:	6078      	str	r0, [r7, #4]
    d570:	687b      	ldr	r3, [r7, #4]
    d572:	4a07      	ldr	r2, [pc, #28]	; (d590 <Chip_SSP_GetClkIndex+0x28>)
    d574:	4293      	cmp	r3, r2
    d576:	d102      	bne.n	d57e <Chip_SSP_GetClkIndex+0x16>
    d578:	2315      	movs	r3, #21
    d57a:	73fb      	strb	r3, [r7, #15]
    d57c:	e001      	b.n	d582 <Chip_SSP_GetClkIndex+0x1a>
    d57e:	230a      	movs	r3, #10
    d580:	73fb      	strb	r3, [r7, #15]
    d582:	7bfb      	ldrb	r3, [r7, #15]
    d584:	4618      	mov	r0, r3
    d586:	3714      	adds	r7, #20
    d588:	46bd      	mov	sp, r7
    d58a:	bc80      	pop	{r7}
    d58c:	4770      	bx	lr
    d58e:	bf00      	nop
    d590:	40088000 	.word	0x40088000

0000d594 <Chip_SSP_SetClockRate>:
    d594:	b480      	push	{r7}
    d596:	b087      	sub	sp, #28
    d598:	af00      	add	r7, sp, #0
    d59a:	60f8      	str	r0, [r7, #12]
    d59c:	60b9      	str	r1, [r7, #8]
    d59e:	607a      	str	r2, [r7, #4]
    d5a0:	68fb      	ldr	r3, [r7, #12]
    d5a2:	681b      	ldr	r3, [r3, #0]
    d5a4:	f423 437f 	bic.w	r3, r3, #65280	; 0xff00
    d5a8:	617b      	str	r3, [r7, #20]
    d5aa:	68bb      	ldr	r3, [r7, #8]
    d5ac:	021b      	lsls	r3, r3, #8
    d5ae:	b29a      	uxth	r2, r3
    d5b0:	697b      	ldr	r3, [r7, #20]
    d5b2:	431a      	orrs	r2, r3
    d5b4:	68fb      	ldr	r3, [r7, #12]
    d5b6:	601a      	str	r2, [r3, #0]
    d5b8:	68fb      	ldr	r3, [r7, #12]
    d5ba:	687a      	ldr	r2, [r7, #4]
    d5bc:	611a      	str	r2, [r3, #16]
    d5be:	bf00      	nop
    d5c0:	371c      	adds	r7, #28
    d5c2:	46bd      	mov	sp, r7
    d5c4:	bc80      	pop	{r7}
    d5c6:	4770      	bx	lr

0000d5c8 <Chip_SSP_RWFrames_Blocking>:
    d5c8:	b580      	push	{r7, lr}
    d5ca:	b082      	sub	sp, #8
    d5cc:	af00      	add	r7, sp, #0
    d5ce:	6078      	str	r0, [r7, #4]
    d5d0:	6039      	str	r1, [r7, #0]
    d5d2:	e002      	b.n	d5da <Chip_SSP_RWFrames_Blocking+0x12>
    d5d4:	6878      	ldr	r0, [r7, #4]
    d5d6:	f7ff fec9 	bl	d36c <Chip_SSP_ReceiveFrame>
    d5da:	2104      	movs	r1, #4
    d5dc:	6878      	ldr	r0, [r7, #4]
    d5de:	f7ff fe7f 	bl	d2e0 <Chip_SSP_GetStatus>
    d5e2:	4603      	mov	r3, r0
    d5e4:	2b00      	cmp	r3, #0
    d5e6:	d1f5      	bne.n	d5d4 <Chip_SSP_RWFrames_Blocking+0xc>
    d5e8:	2103      	movs	r1, #3
    d5ea:	6878      	ldr	r0, [r7, #4]
    d5ec:	f7ff feb0 	bl	d350 <Chip_SSP_ClearIntPending>
    d5f0:	6878      	ldr	r0, [r7, #4]
    d5f2:	f7ff fe9d 	bl	d330 <Chip_SSP_GetDataSize>
    d5f6:	4603      	mov	r3, r0
    d5f8:	2b07      	cmp	r3, #7
    d5fa:	d949      	bls.n	d690 <Chip_SSP_RWFrames_Blocking+0xc8>
    d5fc:	e01d      	b.n	d63a <Chip_SSP_RWFrames_Blocking+0x72>
    d5fe:	2102      	movs	r1, #2
    d600:	6878      	ldr	r0, [r7, #4]
    d602:	f7ff fe6d 	bl	d2e0 <Chip_SSP_GetStatus>
    d606:	4603      	mov	r3, r0
    d608:	2b01      	cmp	r3, #1
    d60a:	d109      	bne.n	d620 <Chip_SSP_RWFrames_Blocking+0x58>
    d60c:	683b      	ldr	r3, [r7, #0]
    d60e:	685a      	ldr	r2, [r3, #4]
    d610:	683b      	ldr	r3, [r7, #0]
    d612:	691b      	ldr	r3, [r3, #16]
    d614:	429a      	cmp	r2, r3
    d616:	d203      	bcs.n	d620 <Chip_SSP_RWFrames_Blocking+0x58>
    d618:	6839      	ldr	r1, [r7, #0]
    d61a:	6878      	ldr	r0, [r7, #4]
    d61c:	f7ff feea 	bl	d3f4 <SSP_Write2BFifo>
    d620:	2101      	movs	r1, #1
    d622:	6878      	ldr	r0, [r7, #4]
    d624:	f7ff fe70 	bl	d308 <Chip_SSP_GetRawIntStatus>
    d628:	4603      	mov	r3, r0
    d62a:	2b01      	cmp	r3, #1
    d62c:	d101      	bne.n	d632 <Chip_SSP_RWFrames_Blocking+0x6a>
    d62e:	2300      	movs	r3, #0
    d630:	e049      	b.n	d6c6 <Chip_SSP_RWFrames_Blocking+0xfe>
    d632:	6839      	ldr	r1, [r7, #0]
    d634:	6878      	ldr	r0, [r7, #4]
    d636:	f7ff ff25 	bl	d484 <SSP_Read2BFifo>
    d63a:	683b      	ldr	r3, [r7, #0]
    d63c:	68da      	ldr	r2, [r3, #12]
    d63e:	683b      	ldr	r3, [r7, #0]
    d640:	691b      	ldr	r3, [r3, #16]
    d642:	429a      	cmp	r2, r3
    d644:	d3db      	bcc.n	d5fe <Chip_SSP_RWFrames_Blocking+0x36>
    d646:	683b      	ldr	r3, [r7, #0]
    d648:	685a      	ldr	r2, [r3, #4]
    d64a:	683b      	ldr	r3, [r7, #0]
    d64c:	691b      	ldr	r3, [r3, #16]
    d64e:	429a      	cmp	r2, r3
    d650:	d3d5      	bcc.n	d5fe <Chip_SSP_RWFrames_Blocking+0x36>
    d652:	e029      	b.n	d6a8 <Chip_SSP_RWFrames_Blocking+0xe0>
    d654:	2102      	movs	r1, #2
    d656:	6878      	ldr	r0, [r7, #4]
    d658:	f7ff fe42 	bl	d2e0 <Chip_SSP_GetStatus>
    d65c:	4603      	mov	r3, r0
    d65e:	2b01      	cmp	r3, #1
    d660:	d109      	bne.n	d676 <Chip_SSP_RWFrames_Blocking+0xae>
    d662:	683b      	ldr	r3, [r7, #0]
    d664:	685a      	ldr	r2, [r3, #4]
    d666:	683b      	ldr	r3, [r7, #0]
    d668:	691b      	ldr	r3, [r3, #16]
    d66a:	429a      	cmp	r2, r3
    d66c:	d203      	bcs.n	d676 <Chip_SSP_RWFrames_Blocking+0xae>
    d66e:	6839      	ldr	r1, [r7, #0]
    d670:	6878      	ldr	r0, [r7, #4]
    d672:	f7ff fee3 	bl	d43c <SSP_Write1BFifo>
    d676:	2101      	movs	r1, #1
    d678:	6878      	ldr	r0, [r7, #4]
    d67a:	f7ff fe45 	bl	d308 <Chip_SSP_GetRawIntStatus>
    d67e:	4603      	mov	r3, r0
    d680:	2b01      	cmp	r3, #1
    d682:	d101      	bne.n	d688 <Chip_SSP_RWFrames_Blocking+0xc0>
    d684:	2300      	movs	r3, #0
    d686:	e01e      	b.n	d6c6 <Chip_SSP_RWFrames_Blocking+0xfe>
    d688:	6839      	ldr	r1, [r7, #0]
    d68a:	6878      	ldr	r0, [r7, #4]
    d68c:	f7ff ff28 	bl	d4e0 <SSP_Read1BFifo>
    d690:	683b      	ldr	r3, [r7, #0]
    d692:	68da      	ldr	r2, [r3, #12]
    d694:	683b      	ldr	r3, [r7, #0]
    d696:	691b      	ldr	r3, [r3, #16]
    d698:	429a      	cmp	r2, r3
    d69a:	d3db      	bcc.n	d654 <Chip_SSP_RWFrames_Blocking+0x8c>
    d69c:	683b      	ldr	r3, [r7, #0]
    d69e:	685a      	ldr	r2, [r3, #4]
    d6a0:	683b      	ldr	r3, [r7, #0]
    d6a2:	691b      	ldr	r3, [r3, #16]
    d6a4:	429a      	cmp	r2, r3
    d6a6:	d3d5      	bcc.n	d654 <Chip_SSP_RWFrames_Blocking+0x8c>
    d6a8:	683b      	ldr	r3, [r7, #0]
    d6aa:	681b      	ldr	r3, [r3, #0]
    d6ac:	2b00      	cmp	r3, #0
    d6ae:	d002      	beq.n	d6b6 <Chip_SSP_RWFrames_Blocking+0xee>
    d6b0:	683b      	ldr	r3, [r7, #0]
    d6b2:	685b      	ldr	r3, [r3, #4]
    d6b4:	e007      	b.n	d6c6 <Chip_SSP_RWFrames_Blocking+0xfe>
    d6b6:	683b      	ldr	r3, [r7, #0]
    d6b8:	689b      	ldr	r3, [r3, #8]
    d6ba:	2b00      	cmp	r3, #0
    d6bc:	d002      	beq.n	d6c4 <Chip_SSP_RWFrames_Blocking+0xfc>
    d6be:	683b      	ldr	r3, [r7, #0]
    d6c0:	68db      	ldr	r3, [r3, #12]
    d6c2:	e000      	b.n	d6c6 <Chip_SSP_RWFrames_Blocking+0xfe>
    d6c4:	2300      	movs	r3, #0
    d6c6:	4618      	mov	r0, r3
    d6c8:	3708      	adds	r7, #8
    d6ca:	46bd      	mov	sp, r7
    d6cc:	bd80      	pop	{r7, pc}
    d6ce:	bf00      	nop

0000d6d0 <Chip_SSP_Int_FlushData>:
    d6d0:	b580      	push	{r7, lr}
    d6d2:	b082      	sub	sp, #8
    d6d4:	af00      	add	r7, sp, #0
    d6d6:	6078      	str	r0, [r7, #4]
    d6d8:	2110      	movs	r1, #16
    d6da:	6878      	ldr	r0, [r7, #4]
    d6dc:	f7ff fe00 	bl	d2e0 <Chip_SSP_GetStatus>
    d6e0:	4603      	mov	r3, r0
    d6e2:	2b00      	cmp	r3, #0
    d6e4:	d00b      	beq.n	d6fe <Chip_SSP_Int_FlushData+0x2e>
    d6e6:	bf00      	nop
    d6e8:	2110      	movs	r1, #16
    d6ea:	6878      	ldr	r0, [r7, #4]
    d6ec:	f7ff fdf8 	bl	d2e0 <Chip_SSP_GetStatus>
    d6f0:	4603      	mov	r3, r0
    d6f2:	2b00      	cmp	r3, #0
    d6f4:	d1f8      	bne.n	d6e8 <Chip_SSP_Int_FlushData+0x18>
    d6f6:	e002      	b.n	d6fe <Chip_SSP_Int_FlushData+0x2e>
    d6f8:	6878      	ldr	r0, [r7, #4]
    d6fa:	f7ff fe37 	bl	d36c <Chip_SSP_ReceiveFrame>
    d6fe:	2104      	movs	r1, #4
    d700:	6878      	ldr	r0, [r7, #4]
    d702:	f7ff fded 	bl	d2e0 <Chip_SSP_GetStatus>
    d706:	4603      	mov	r3, r0
    d708:	2b00      	cmp	r3, #0
    d70a:	d1f5      	bne.n	d6f8 <Chip_SSP_Int_FlushData+0x28>
    d70c:	2103      	movs	r1, #3
    d70e:	6878      	ldr	r0, [r7, #4]
    d710:	f7ff fe1e 	bl	d350 <Chip_SSP_ClearIntPending>
    d714:	bf00      	nop
    d716:	3708      	adds	r7, #8
    d718:	46bd      	mov	sp, r7
    d71a:	bd80      	pop	{r7, pc}

0000d71c <Chip_SSP_SetBitRate>:
    d71c:	b580      	push	{r7, lr}
    d71e:	b086      	sub	sp, #24
    d720:	af00      	add	r7, sp, #0
    d722:	6078      	str	r0, [r7, #4]
    d724:	6039      	str	r1, [r7, #0]
    d726:	6878      	ldr	r0, [r7, #4]
    d728:	f7ff ff1e 	bl	d568 <Chip_SSP_GetClkIndex>
    d72c:	4603      	mov	r3, r0
    d72e:	4618      	mov	r0, r3
    d730:	f7fe ff66 	bl	c600 <Chip_Clock_GetPeripheralClockRate>
    d734:	60b8      	str	r0, [r7, #8]
    d736:	2300      	movs	r3, #0
    d738:	617b      	str	r3, [r7, #20]
    d73a:	f04f 33ff 	mov.w	r3, #4294967295
    d73e:	613b      	str	r3, [r7, #16]
    d740:	2302      	movs	r3, #2
    d742:	60fb      	str	r3, [r7, #12]
    d744:	e017      	b.n	d776 <Chip_SSP_SetBitRate+0x5a>
    d746:	697b      	ldr	r3, [r7, #20]
    d748:	3301      	adds	r3, #1
    d74a:	68fa      	ldr	r2, [r7, #12]
    d74c:	fb02 f303 	mul.w	r3, r2, r3
    d750:	68ba      	ldr	r2, [r7, #8]
    d752:	fbb2 f3f3 	udiv	r3, r2, r3
    d756:	613b      	str	r3, [r7, #16]
    d758:	693a      	ldr	r2, [r7, #16]
    d75a:	683b      	ldr	r3, [r7, #0]
    d75c:	429a      	cmp	r2, r3
    d75e:	d90a      	bls.n	d776 <Chip_SSP_SetBitRate+0x5a>
    d760:	697b      	ldr	r3, [r7, #20]
    d762:	3301      	adds	r3, #1
    d764:	617b      	str	r3, [r7, #20]
    d766:	697b      	ldr	r3, [r7, #20]
    d768:	2bff      	cmp	r3, #255	; 0xff
    d76a:	d904      	bls.n	d776 <Chip_SSP_SetBitRate+0x5a>
    d76c:	2300      	movs	r3, #0
    d76e:	617b      	str	r3, [r7, #20]
    d770:	68fb      	ldr	r3, [r7, #12]
    d772:	3302      	adds	r3, #2
    d774:	60fb      	str	r3, [r7, #12]
    d776:	693a      	ldr	r2, [r7, #16]
    d778:	683b      	ldr	r3, [r7, #0]
    d77a:	429a      	cmp	r2, r3
    d77c:	d8e3      	bhi.n	d746 <Chip_SSP_SetBitRate+0x2a>
    d77e:	68fa      	ldr	r2, [r7, #12]
    d780:	6979      	ldr	r1, [r7, #20]
    d782:	6878      	ldr	r0, [r7, #4]
    d784:	f7ff ff06 	bl	d594 <Chip_SSP_SetClockRate>
    d788:	bf00      	nop
    d78a:	3718      	adds	r7, #24
    d78c:	46bd      	mov	sp, r7
    d78e:	bd80      	pop	{r7, pc}

0000d790 <Chip_SSP_Init>:
    d790:	b580      	push	{r7, lr}
    d792:	b082      	sub	sp, #8
    d794:	af00      	add	r7, sp, #0
    d796:	6078      	str	r0, [r7, #4]
    d798:	6878      	ldr	r0, [r7, #4]
    d79a:	f7ff fecf 	bl	d53c <Chip_SSP_GetClockIndex>
    d79e:	4603      	mov	r3, r0
    d7a0:	4618      	mov	r0, r3
    d7a2:	f7fe fe1f 	bl	c3e4 <Chip_Clock_EnablePeriphClock>
    d7a6:	2100      	movs	r1, #0
    d7a8:	6878      	ldr	r0, [r7, #4]
    d7aa:	f7ff fe11 	bl	d3d0 <Chip_SSP_Set_Mode>
    d7ae:	2300      	movs	r3, #0
    d7b0:	2200      	movs	r2, #0
    d7b2:	2107      	movs	r1, #7
    d7b4:	6878      	ldr	r0, [r7, #4]
    d7b6:	f7ff fdf3 	bl	d3a0 <Chip_SSP_SetFormat>
    d7ba:	4904      	ldr	r1, [pc, #16]	; (d7cc <Chip_SSP_Init+0x3c>)
    d7bc:	6878      	ldr	r0, [r7, #4]
    d7be:	f7ff ffad 	bl	d71c <Chip_SSP_SetBitRate>
    d7c2:	bf00      	nop
    d7c4:	3708      	adds	r7, #8
    d7c6:	46bd      	mov	sp, r7
    d7c8:	bd80      	pop	{r7, pc}
    d7ca:	bf00      	nop
    d7cc:	000186a0 	.word	0x000186a0

0000d7d0 <Chip_SSP_DeInit>:
    d7d0:	b580      	push	{r7, lr}
    d7d2:	b082      	sub	sp, #8
    d7d4:	af00      	add	r7, sp, #0
    d7d6:	6078      	str	r0, [r7, #4]
    d7d8:	6878      	ldr	r0, [r7, #4]
    d7da:	f7ff fd71 	bl	d2c0 <Chip_SSP_Disable>
    d7de:	6878      	ldr	r0, [r7, #4]
    d7e0:	f7ff feac 	bl	d53c <Chip_SSP_GetClockIndex>
    d7e4:	4603      	mov	r3, r0
    d7e6:	4618      	mov	r0, r3
    d7e8:	f7fe fe16 	bl	c418 <Chip_Clock_DisablePeriphClock>
    d7ec:	bf00      	nop
    d7ee:	3708      	adds	r7, #8
    d7f0:	46bd      	mov	sp, r7
    d7f2:	bd80      	pop	{r7, pc}

0000d7f4 <Chip_Clock_IsMainPLLEnabled>:
    d7f4:	b480      	push	{r7}
    d7f6:	af00      	add	r7, sp, #0
    d7f8:	4b06      	ldr	r3, [pc, #24]	; (d814 <Chip_Clock_IsMainPLLEnabled+0x20>)
    d7fa:	f8d3 3088 	ldr.w	r3, [r3, #136]	; 0x88
    d7fe:	f003 7380 	and.w	r3, r3, #16777216	; 0x1000000
    d802:	2b00      	cmp	r3, #0
    d804:	bf14      	ite	ne
    d806:	2301      	movne	r3, #1
    d808:	2300      	moveq	r3, #0
    d80a:	b2db      	uxtb	r3, r3
    d80c:	4618      	mov	r0, r3
    d80e:	46bd      	mov	sp, r7
    d810:	bc80      	pop	{r7}
    d812:	4770      	bx	lr
    d814:	400fc000 	.word	0x400fc000

0000d818 <Chip_Clock_IsMainPLLLocked>:
    d818:	b480      	push	{r7}
    d81a:	af00      	add	r7, sp, #0
    d81c:	4b06      	ldr	r3, [pc, #24]	; (d838 <Chip_Clock_IsMainPLLLocked+0x20>)
    d81e:	f8d3 3088 	ldr.w	r3, [r3, #136]	; 0x88
    d822:	f003 6380 	and.w	r3, r3, #67108864	; 0x4000000
    d826:	2b00      	cmp	r3, #0
    d828:	bf14      	ite	ne
    d82a:	2301      	movne	r3, #1
    d82c:	2300      	moveq	r3, #0
    d82e:	b2db      	uxtb	r3, r3
    d830:	4618      	mov	r0, r3
    d832:	46bd      	mov	sp, r7
    d834:	bc80      	pop	{r7}
    d836:	4770      	bx	lr
    d838:	400fc000 	.word	0x400fc000

0000d83c <Chip_Clock_IsMainPLLConnected>:
    d83c:	b480      	push	{r7}
    d83e:	af00      	add	r7, sp, #0
    d840:	4b06      	ldr	r3, [pc, #24]	; (d85c <Chip_Clock_IsMainPLLConnected+0x20>)
    d842:	f8d3 3088 	ldr.w	r3, [r3, #136]	; 0x88
    d846:	f003 7300 	and.w	r3, r3, #33554432	; 0x2000000
    d84a:	2b00      	cmp	r3, #0
    d84c:	bf14      	ite	ne
    d84e:	2301      	movne	r3, #1
    d850:	2300      	moveq	r3, #0
    d852:	b2db      	uxtb	r3, r3
    d854:	4618      	mov	r0, r3
    d856:	46bd      	mov	sp, r7
    d858:	bc80      	pop	{r7}
    d85a:	4770      	bx	lr
    d85c:	400fc000 	.word	0x400fc000

0000d860 <Chip_Clock_EnableCrystal>:
    d860:	b480      	push	{r7}
    d862:	af00      	add	r7, sp, #0
    d864:	4a05      	ldr	r2, [pc, #20]	; (d87c <Chip_Clock_EnableCrystal+0x1c>)
    d866:	4b05      	ldr	r3, [pc, #20]	; (d87c <Chip_Clock_EnableCrystal+0x1c>)
    d868:	f8d3 31a0 	ldr.w	r3, [r3, #416]	; 0x1a0
    d86c:	f043 0320 	orr.w	r3, r3, #32
    d870:	f8c2 31a0 	str.w	r3, [r2, #416]	; 0x1a0
    d874:	bf00      	nop
    d876:	46bd      	mov	sp, r7
    d878:	bc80      	pop	{r7}
    d87a:	4770      	bx	lr
    d87c:	400fc000 	.word	0x400fc000

0000d880 <Chip_Clock_IsCrystalEnabled>:
    d880:	b480      	push	{r7}
    d882:	af00      	add	r7, sp, #0
    d884:	4b06      	ldr	r3, [pc, #24]	; (d8a0 <Chip_Clock_IsCrystalEnabled+0x20>)
    d886:	f8d3 31a0 	ldr.w	r3, [r3, #416]	; 0x1a0
    d88a:	f003 0340 	and.w	r3, r3, #64	; 0x40
    d88e:	2b00      	cmp	r3, #0
    d890:	bf14      	ite	ne
    d892:	2301      	movne	r3, #1
    d894:	2300      	moveq	r3, #0
    d896:	b2db      	uxtb	r3, r3
    d898:	4618      	mov	r0, r3
    d89a:	46bd      	mov	sp, r7
    d89c:	bc80      	pop	{r7}
    d89e:	4770      	bx	lr
    d8a0:	400fc000 	.word	0x400fc000

0000d8a4 <Chip_Clock_SetMainPLLSource>:
    d8a4:	b480      	push	{r7}
    d8a6:	b083      	sub	sp, #12
    d8a8:	af00      	add	r7, sp, #0
    d8aa:	4603      	mov	r3, r0
    d8ac:	71fb      	strb	r3, [r7, #7]
    d8ae:	4a04      	ldr	r2, [pc, #16]	; (d8c0 <Chip_Clock_SetMainPLLSource+0x1c>)
    d8b0:	79fb      	ldrb	r3, [r7, #7]
    d8b2:	f8c2 310c 	str.w	r3, [r2, #268]	; 0x10c
    d8b6:	bf00      	nop
    d8b8:	370c      	adds	r7, #12
    d8ba:	46bd      	mov	sp, r7
    d8bc:	bc80      	pop	{r7}
    d8be:	4770      	bx	lr
    d8c0:	400fc000 	.word	0x400fc000

0000d8c4 <Chip_SetupXtalClocking>:
    d8c4:	b580      	push	{r7, lr}
    d8c6:	af00      	add	r7, sp, #0
    d8c8:	f7ff ffb8 	bl	d83c <Chip_Clock_IsMainPLLConnected>
    d8cc:	4603      	mov	r3, r0
    d8ce:	2b00      	cmp	r3, #0
    d8d0:	d003      	beq.n	d8da <Chip_SetupXtalClocking+0x16>
    d8d2:	2102      	movs	r1, #2
    d8d4:	2000      	movs	r0, #0
    d8d6:	f7fe fd33 	bl	c340 <Chip_Clock_DisablePLL>
    d8da:	f7ff ff8b 	bl	d7f4 <Chip_Clock_IsMainPLLEnabled>
    d8de:	4603      	mov	r3, r0
    d8e0:	2b00      	cmp	r3, #0
    d8e2:	d003      	beq.n	d8ec <Chip_SetupXtalClocking+0x28>
    d8e4:	2101      	movs	r1, #1
    d8e6:	2000      	movs	r0, #0
    d8e8:	f7fe fd2a 	bl	c340 <Chip_Clock_DisablePLL>
    d8ec:	f7ff ffc8 	bl	d880 <Chip_Clock_IsCrystalEnabled>
    d8f0:	4603      	mov	r3, r0
    d8f2:	f083 0301 	eor.w	r3, r3, #1
    d8f6:	b2db      	uxtb	r3, r3
    d8f8:	2b00      	cmp	r3, #0
    d8fa:	d001      	beq.n	d900 <Chip_SetupXtalClocking+0x3c>
    d8fc:	f7ff ffb0 	bl	d860 <Chip_Clock_EnableCrystal>
    d900:	bf00      	nop
    d902:	f7ff ffbd 	bl	d880 <Chip_Clock_IsCrystalEnabled>
    d906:	4603      	mov	r3, r0
    d908:	f083 0301 	eor.w	r3, r3, #1
    d90c:	b2db      	uxtb	r3, r3
    d90e:	2b00      	cmp	r3, #0
    d910:	d1f7      	bne.n	d902 <Chip_SetupXtalClocking+0x3e>
    d912:	2000      	movs	r0, #0
    d914:	f7fe fdac 	bl	c470 <Chip_Clock_SetCPUClockDiv>
    d918:	2001      	movs	r0, #1
    d91a:	f7ff ffc3 	bl	d8a4 <Chip_Clock_SetMainPLLSource>
    d91e:	2200      	movs	r2, #0
    d920:	210f      	movs	r1, #15
    d922:	2000      	movs	r0, #0
    d924:	f7fe fd30 	bl	c388 <Chip_Clock_SetupPLL>
    d928:	2101      	movs	r1, #1
    d92a:	2000      	movs	r0, #0
    d92c:	f7fe fce6 	bl	c2fc <Chip_Clock_EnablePLL>
    d930:	2003      	movs	r0, #3
    d932:	f7fe fd9d 	bl	c470 <Chip_Clock_SetCPUClockDiv>
    d936:	bf00      	nop
    d938:	f7ff ff6e 	bl	d818 <Chip_Clock_IsMainPLLLocked>
    d93c:	4603      	mov	r3, r0
    d93e:	f083 0301 	eor.w	r3, r3, #1
    d942:	b2db      	uxtb	r3, r3
    d944:	2b00      	cmp	r3, #0
    d946:	d1f7      	bne.n	d938 <Chip_SetupXtalClocking+0x74>
    d948:	2102      	movs	r1, #2
    d94a:	2000      	movs	r0, #0
    d94c:	f7fe fcd6 	bl	c2fc <Chip_Clock_EnablePLL>
    d950:	bf00      	nop
    d952:	bd80      	pop	{r7, pc}

0000d954 <Chip_UART_SendByte>:
    d954:	b480      	push	{r7}
    d956:	b083      	sub	sp, #12
    d958:	af00      	add	r7, sp, #0
    d95a:	6078      	str	r0, [r7, #4]
    d95c:	460b      	mov	r3, r1
    d95e:	70fb      	strb	r3, [r7, #3]
    d960:	78fa      	ldrb	r2, [r7, #3]
    d962:	687b      	ldr	r3, [r7, #4]
    d964:	601a      	str	r2, [r3, #0]
    d966:	bf00      	nop
    d968:	370c      	adds	r7, #12
    d96a:	46bd      	mov	sp, r7
    d96c:	bc80      	pop	{r7}
    d96e:	4770      	bx	lr

0000d970 <Chip_UART_ReadByte>:
    d970:	b480      	push	{r7}
    d972:	b083      	sub	sp, #12
    d974:	af00      	add	r7, sp, #0
    d976:	6078      	str	r0, [r7, #4]
    d978:	687b      	ldr	r3, [r7, #4]
    d97a:	681b      	ldr	r3, [r3, #0]
    d97c:	b2db      	uxtb	r3, r3
    d97e:	4618      	mov	r0, r3
    d980:	370c      	adds	r7, #12
    d982:	46bd      	mov	sp, r7
    d984:	bc80      	pop	{r7}
    d986:	4770      	bx	lr

0000d988 <Chip_UART_SetupFIFOS>:
    d988:	b480      	push	{r7}
    d98a:	b083      	sub	sp, #12
    d98c:	af00      	add	r7, sp, #0
    d98e:	6078      	str	r0, [r7, #4]
    d990:	6039      	str	r1, [r7, #0]
    d992:	687b      	ldr	r3, [r7, #4]
    d994:	683a      	ldr	r2, [r7, #0]
    d996:	609a      	str	r2, [r3, #8]
    d998:	bf00      	nop
    d99a:	370c      	adds	r7, #12
    d99c:	46bd      	mov	sp, r7
    d99e:	bc80      	pop	{r7}
    d9a0:	4770      	bx	lr
    d9a2:	bf00      	nop

0000d9a4 <Chip_UART_ConfigData>:
    d9a4:	b480      	push	{r7}
    d9a6:	b083      	sub	sp, #12
    d9a8:	af00      	add	r7, sp, #0
    d9aa:	6078      	str	r0, [r7, #4]
    d9ac:	6039      	str	r1, [r7, #0]
    d9ae:	687b      	ldr	r3, [r7, #4]
    d9b0:	683a      	ldr	r2, [r7, #0]
    d9b2:	60da      	str	r2, [r3, #12]
    d9b4:	bf00      	nop
    d9b6:	370c      	adds	r7, #12
    d9b8:	46bd      	mov	sp, r7
    d9ba:	bc80      	pop	{r7}
    d9bc:	4770      	bx	lr
    d9be:	bf00      	nop

0000d9c0 <Chip_UART_EnableDivisorAccess>:
    d9c0:	b480      	push	{r7}
    d9c2:	b083      	sub	sp, #12
    d9c4:	af00      	add	r7, sp, #0
    d9c6:	6078      	str	r0, [r7, #4]
    d9c8:	687b      	ldr	r3, [r7, #4]
    d9ca:	68db      	ldr	r3, [r3, #12]
    d9cc:	f043 0280 	orr.w	r2, r3, #128	; 0x80
    d9d0:	687b      	ldr	r3, [r7, #4]
    d9d2:	60da      	str	r2, [r3, #12]
    d9d4:	bf00      	nop
    d9d6:	370c      	adds	r7, #12
    d9d8:	46bd      	mov	sp, r7
    d9da:	bc80      	pop	{r7}
    d9dc:	4770      	bx	lr
    d9de:	bf00      	nop

0000d9e0 <Chip_UART_DisableDivisorAccess>:
    d9e0:	b480      	push	{r7}
    d9e2:	b083      	sub	sp, #12
    d9e4:	af00      	add	r7, sp, #0
    d9e6:	6078      	str	r0, [r7, #4]
    d9e8:	687b      	ldr	r3, [r7, #4]
    d9ea:	68db      	ldr	r3, [r3, #12]
    d9ec:	f023 0280 	bic.w	r2, r3, #128	; 0x80
    d9f0:	687b      	ldr	r3, [r7, #4]
    d9f2:	60da      	str	r2, [r3, #12]
    d9f4:	bf00      	nop
    d9f6:	370c      	adds	r7, #12
    d9f8:	46bd      	mov	sp, r7
    d9fa:	bc80      	pop	{r7}
    d9fc:	4770      	bx	lr
    d9fe:	bf00      	nop

0000da00 <Chip_UART_SetDivisorLatches>:
    da00:	b480      	push	{r7}
    da02:	b083      	sub	sp, #12
    da04:	af00      	add	r7, sp, #0
    da06:	6078      	str	r0, [r7, #4]
    da08:	460b      	mov	r3, r1
    da0a:	70fb      	strb	r3, [r7, #3]
    da0c:	4613      	mov	r3, r2
    da0e:	70bb      	strb	r3, [r7, #2]
    da10:	78fa      	ldrb	r2, [r7, #3]
    da12:	687b      	ldr	r3, [r7, #4]
    da14:	601a      	str	r2, [r3, #0]
    da16:	78ba      	ldrb	r2, [r7, #2]
    da18:	687b      	ldr	r3, [r7, #4]
    da1a:	605a      	str	r2, [r3, #4]
    da1c:	bf00      	nop
    da1e:	370c      	adds	r7, #12
    da20:	46bd      	mov	sp, r7
    da22:	bc80      	pop	{r7}
    da24:	4770      	bx	lr
    da26:	bf00      	nop

0000da28 <Chip_UART_ReadLineStatus>:
    da28:	b480      	push	{r7}
    da2a:	b083      	sub	sp, #12
    da2c:	af00      	add	r7, sp, #0
    da2e:	6078      	str	r0, [r7, #4]
    da30:	687b      	ldr	r3, [r7, #4]
    da32:	695b      	ldr	r3, [r3, #20]
    da34:	4618      	mov	r0, r3
    da36:	370c      	adds	r7, #12
    da38:	46bd      	mov	sp, r7
    da3a:	bc80      	pop	{r7}
    da3c:	4770      	bx	lr
    da3e:	bf00      	nop

0000da40 <Chip_UART_GetClockIndex>:
    da40:	b480      	push	{r7}
    da42:	b085      	sub	sp, #20
    da44:	af00      	add	r7, sp, #0
    da46:	6078      	str	r0, [r7, #4]
    da48:	687b      	ldr	r3, [r7, #4]
    da4a:	4a0e      	ldr	r2, [pc, #56]	; (da84 <Chip_UART_GetClockIndex+0x44>)
    da4c:	4293      	cmp	r3, r2
    da4e:	d102      	bne.n	da56 <Chip_UART_GetClockIndex+0x16>
    da50:	2304      	movs	r3, #4
    da52:	73fb      	strb	r3, [r7, #15]
    da54:	e00f      	b.n	da76 <Chip_UART_GetClockIndex+0x36>
    da56:	687b      	ldr	r3, [r7, #4]
    da58:	4a0b      	ldr	r2, [pc, #44]	; (da88 <Chip_UART_GetClockIndex+0x48>)
    da5a:	4293      	cmp	r3, r2
    da5c:	d102      	bne.n	da64 <Chip_UART_GetClockIndex+0x24>
    da5e:	2318      	movs	r3, #24
    da60:	73fb      	strb	r3, [r7, #15]
    da62:	e008      	b.n	da76 <Chip_UART_GetClockIndex+0x36>
    da64:	687b      	ldr	r3, [r7, #4]
    da66:	4a09      	ldr	r2, [pc, #36]	; (da8c <Chip_UART_GetClockIndex+0x4c>)
    da68:	4293      	cmp	r3, r2
    da6a:	d102      	bne.n	da72 <Chip_UART_GetClockIndex+0x32>
    da6c:	2319      	movs	r3, #25
    da6e:	73fb      	strb	r3, [r7, #15]
    da70:	e001      	b.n	da76 <Chip_UART_GetClockIndex+0x36>
    da72:	2303      	movs	r3, #3
    da74:	73fb      	strb	r3, [r7, #15]
    da76:	7bfb      	ldrb	r3, [r7, #15]
    da78:	4618      	mov	r0, r3
    da7a:	3714      	adds	r7, #20
    da7c:	46bd      	mov	sp, r7
    da7e:	bc80      	pop	{r7}
    da80:	4770      	bx	lr
    da82:	bf00      	nop
    da84:	40010000 	.word	0x40010000
    da88:	40098000 	.word	0x40098000
    da8c:	4009c000 	.word	0x4009c000

0000da90 <Chip_UART_GetClkIndex>:
    da90:	b480      	push	{r7}
    da92:	b085      	sub	sp, #20
    da94:	af00      	add	r7, sp, #0
    da96:	6078      	str	r0, [r7, #4]
    da98:	687b      	ldr	r3, [r7, #4]
    da9a:	4a0e      	ldr	r2, [pc, #56]	; (dad4 <Chip_UART_GetClkIndex+0x44>)
    da9c:	4293      	cmp	r3, r2
    da9e:	d102      	bne.n	daa6 <Chip_UART_GetClkIndex+0x16>
    daa0:	2304      	movs	r3, #4
    daa2:	73fb      	strb	r3, [r7, #15]
    daa4:	e00f      	b.n	dac6 <Chip_UART_GetClkIndex+0x36>
    daa6:	687b      	ldr	r3, [r7, #4]
    daa8:	4a0b      	ldr	r2, [pc, #44]	; (dad8 <Chip_UART_GetClkIndex+0x48>)
    daaa:	4293      	cmp	r3, r2
    daac:	d102      	bne.n	dab4 <Chip_UART_GetClkIndex+0x24>
    daae:	2318      	movs	r3, #24
    dab0:	73fb      	strb	r3, [r7, #15]
    dab2:	e008      	b.n	dac6 <Chip_UART_GetClkIndex+0x36>
    dab4:	687b      	ldr	r3, [r7, #4]
    dab6:	4a09      	ldr	r2, [pc, #36]	; (dadc <Chip_UART_GetClkIndex+0x4c>)
    dab8:	4293      	cmp	r3, r2
    daba:	d102      	bne.n	dac2 <Chip_UART_GetClkIndex+0x32>
    dabc:	2319      	movs	r3, #25
    dabe:	73fb      	strb	r3, [r7, #15]
    dac0:	e001      	b.n	dac6 <Chip_UART_GetClkIndex+0x36>
    dac2:	2303      	movs	r3, #3
    dac4:	73fb      	strb	r3, [r7, #15]
    dac6:	7bfb      	ldrb	r3, [r7, #15]
    dac8:	4618      	mov	r0, r3
    daca:	3714      	adds	r7, #20
    dacc:	46bd      	mov	sp, r7
    dace:	bc80      	pop	{r7}
    dad0:	4770      	bx	lr
    dad2:	bf00      	nop
    dad4:	40010000 	.word	0x40010000
    dad8:	40098000 	.word	0x40098000
    dadc:	4009c000 	.word	0x4009c000

0000dae0 <Chip_UART_Init>:
    dae0:	b580      	push	{r7, lr}
    dae2:	b084      	sub	sp, #16
    dae4:	af00      	add	r7, sp, #0
    dae6:	6078      	str	r0, [r7, #4]
    dae8:	6878      	ldr	r0, [r7, #4]
    daea:	f7ff ffa9 	bl	da40 <Chip_UART_GetClockIndex>
    daee:	4603      	mov	r3, r0
    daf0:	4618      	mov	r0, r3
    daf2:	f7fe fc77 	bl	c3e4 <Chip_Clock_EnablePeriphClock>
    daf6:	2107      	movs	r1, #7
    daf8:	6878      	ldr	r0, [r7, #4]
    dafa:	f7ff ff45 	bl	d988 <Chip_UART_SetupFIFOS>
    dafe:	6878      	ldr	r0, [r7, #4]
    db00:	f000 f836 	bl	db70 <Chip_UART_TXDisable>
    db04:	687b      	ldr	r3, [r7, #4]
    db06:	2200      	movs	r2, #0
    db08:	605a      	str	r2, [r3, #4]
    db0a:	687b      	ldr	r3, [r7, #4]
    db0c:	2200      	movs	r2, #0
    db0e:	60da      	str	r2, [r3, #12]
    db10:	687b      	ldr	r3, [r7, #4]
    db12:	2200      	movs	r2, #0
    db14:	621a      	str	r2, [r3, #32]
    db16:	687b      	ldr	r3, [r7, #4]
    db18:	2200      	movs	r2, #0
    db1a:	64da      	str	r2, [r3, #76]	; 0x4c
    db1c:	687b      	ldr	r3, [r7, #4]
    db1e:	2200      	movs	r2, #0
    db20:	655a      	str	r2, [r3, #84]	; 0x54
    db22:	687b      	ldr	r3, [r7, #4]
    db24:	2200      	movs	r2, #0
    db26:	651a      	str	r2, [r3, #80]	; 0x50
    db28:	687b      	ldr	r3, [r7, #4]
    db2a:	4a0a      	ldr	r2, [pc, #40]	; (db54 <Chip_UART_Init+0x74>)
    db2c:	4293      	cmp	r3, r2
    db2e:	d105      	bne.n	db3c <Chip_UART_Init+0x5c>
    db30:	687b      	ldr	r3, [r7, #4]
    db32:	2200      	movs	r2, #0
    db34:	611a      	str	r2, [r3, #16]
    db36:	687b      	ldr	r3, [r7, #4]
    db38:	699b      	ldr	r3, [r3, #24]
    db3a:	60fb      	str	r3, [r7, #12]
    db3c:	2103      	movs	r1, #3
    db3e:	6878      	ldr	r0, [r7, #4]
    db40:	f7ff ff30 	bl	d9a4 <Chip_UART_ConfigData>
    db44:	687b      	ldr	r3, [r7, #4]
    db46:	2210      	movs	r2, #16
    db48:	629a      	str	r2, [r3, #40]	; 0x28
    db4a:	bf00      	nop
    db4c:	3710      	adds	r7, #16
    db4e:	46bd      	mov	sp, r7
    db50:	bd80      	pop	{r7, pc}
    db52:	bf00      	nop
    db54:	40010000 	.word	0x40010000

0000db58 <Chip_UART_TXEnable>:
    db58:	b480      	push	{r7}
    db5a:	b083      	sub	sp, #12
    db5c:	af00      	add	r7, sp, #0
    db5e:	6078      	str	r0, [r7, #4]
    db60:	687b      	ldr	r3, [r7, #4]
    db62:	2280      	movs	r2, #128	; 0x80
    db64:	631a      	str	r2, [r3, #48]	; 0x30
    db66:	bf00      	nop
    db68:	370c      	adds	r7, #12
    db6a:	46bd      	mov	sp, r7
    db6c:	bc80      	pop	{r7}
    db6e:	4770      	bx	lr

0000db70 <Chip_UART_TXDisable>:
    db70:	b480      	push	{r7}
    db72:	b083      	sub	sp, #12
    db74:	af00      	add	r7, sp, #0
    db76:	6078      	str	r0, [r7, #4]
    db78:	687b      	ldr	r3, [r7, #4]
    db7a:	2200      	movs	r2, #0
    db7c:	631a      	str	r2, [r3, #48]	; 0x30
    db7e:	bf00      	nop
    db80:	370c      	adds	r7, #12
    db82:	46bd      	mov	sp, r7
    db84:	bc80      	pop	{r7}
    db86:	4770      	bx	lr

0000db88 <Chip_UART_Send>:
    db88:	b580      	push	{r7, lr}
    db8a:	b086      	sub	sp, #24
    db8c:	af00      	add	r7, sp, #0
    db8e:	60f8      	str	r0, [r7, #12]
    db90:	60b9      	str	r1, [r7, #8]
    db92:	607a      	str	r2, [r7, #4]
    db94:	2300      	movs	r3, #0
    db96:	617b      	str	r3, [r7, #20]
    db98:	68bb      	ldr	r3, [r7, #8]
    db9a:	613b      	str	r3, [r7, #16]
    db9c:	e00b      	b.n	dbb6 <Chip_UART_Send+0x2e>
    db9e:	693b      	ldr	r3, [r7, #16]
    dba0:	781b      	ldrb	r3, [r3, #0]
    dba2:	4619      	mov	r1, r3
    dba4:	68f8      	ldr	r0, [r7, #12]
    dba6:	f7ff fed5 	bl	d954 <Chip_UART_SendByte>
    dbaa:	693b      	ldr	r3, [r7, #16]
    dbac:	3301      	adds	r3, #1
    dbae:	613b      	str	r3, [r7, #16]
    dbb0:	697b      	ldr	r3, [r7, #20]
    dbb2:	3301      	adds	r3, #1
    dbb4:	617b      	str	r3, [r7, #20]
    dbb6:	697a      	ldr	r2, [r7, #20]
    dbb8:	687b      	ldr	r3, [r7, #4]
    dbba:	429a      	cmp	r2, r3
    dbbc:	da07      	bge.n	dbce <Chip_UART_Send+0x46>
    dbbe:	68f8      	ldr	r0, [r7, #12]
    dbc0:	f7ff ff32 	bl	da28 <Chip_UART_ReadLineStatus>
    dbc4:	4603      	mov	r3, r0
    dbc6:	f003 0320 	and.w	r3, r3, #32
    dbca:	2b00      	cmp	r3, #0
    dbcc:	d1e7      	bne.n	db9e <Chip_UART_Send+0x16>
    dbce:	697b      	ldr	r3, [r7, #20]
    dbd0:	4618      	mov	r0, r3
    dbd2:	3718      	adds	r7, #24
    dbd4:	46bd      	mov	sp, r7
    dbd6:	bd80      	pop	{r7, pc}

0000dbd8 <Chip_UART_CheckBusy>:
    dbd8:	b480      	push	{r7}
    dbda:	b083      	sub	sp, #12
    dbdc:	af00      	add	r7, sp, #0
    dbde:	6078      	str	r0, [r7, #4]
    dbe0:	687b      	ldr	r3, [r7, #4]
    dbe2:	695b      	ldr	r3, [r3, #20]
    dbe4:	f003 0340 	and.w	r3, r3, #64	; 0x40
    dbe8:	2b00      	cmp	r3, #0
    dbea:	d001      	beq.n	dbf0 <Chip_UART_CheckBusy+0x18>
    dbec:	2300      	movs	r3, #0
    dbee:	e000      	b.n	dbf2 <Chip_UART_CheckBusy+0x1a>
    dbf0:	2301      	movs	r3, #1
    dbf2:	4618      	mov	r0, r3
    dbf4:	370c      	adds	r7, #12
    dbf6:	46bd      	mov	sp, r7
    dbf8:	bc80      	pop	{r7}
    dbfa:	4770      	bx	lr

0000dbfc <Chip_UART_SendBlocking>:
    dbfc:	b580      	push	{r7, lr}
    dbfe:	b088      	sub	sp, #32
    dc00:	af00      	add	r7, sp, #0
    dc02:	60f8      	str	r0, [r7, #12]
    dc04:	60b9      	str	r1, [r7, #8]
    dc06:	607a      	str	r2, [r7, #4]
    dc08:	2300      	movs	r3, #0
    dc0a:	61fb      	str	r3, [r7, #28]
    dc0c:	68bb      	ldr	r3, [r7, #8]
    dc0e:	61bb      	str	r3, [r7, #24]
    dc10:	e011      	b.n	dc36 <Chip_UART_SendBlocking+0x3a>
    dc12:	687a      	ldr	r2, [r7, #4]
    dc14:	69b9      	ldr	r1, [r7, #24]
    dc16:	68f8      	ldr	r0, [r7, #12]
    dc18:	f7ff ffb6 	bl	db88 <Chip_UART_Send>
    dc1c:	6178      	str	r0, [r7, #20]
    dc1e:	687a      	ldr	r2, [r7, #4]
    dc20:	697b      	ldr	r3, [r7, #20]
    dc22:	1ad3      	subs	r3, r2, r3
    dc24:	607b      	str	r3, [r7, #4]
    dc26:	69fa      	ldr	r2, [r7, #28]
    dc28:	697b      	ldr	r3, [r7, #20]
    dc2a:	4413      	add	r3, r2
    dc2c:	61fb      	str	r3, [r7, #28]
    dc2e:	697b      	ldr	r3, [r7, #20]
    dc30:	69ba      	ldr	r2, [r7, #24]
    dc32:	4413      	add	r3, r2
    dc34:	61bb      	str	r3, [r7, #24]
    dc36:	687b      	ldr	r3, [r7, #4]
    dc38:	2b00      	cmp	r3, #0
    dc3a:	dcea      	bgt.n	dc12 <Chip_UART_SendBlocking+0x16>
    dc3c:	69fb      	ldr	r3, [r7, #28]
    dc3e:	4618      	mov	r0, r3
    dc40:	3720      	adds	r7, #32
    dc42:	46bd      	mov	sp, r7
    dc44:	bd80      	pop	{r7, pc}
    dc46:	bf00      	nop

0000dc48 <Chip_UART_Read>:
    dc48:	b580      	push	{r7, lr}
    dc4a:	b086      	sub	sp, #24
    dc4c:	af00      	add	r7, sp, #0
    dc4e:	60f8      	str	r0, [r7, #12]
    dc50:	60b9      	str	r1, [r7, #8]
    dc52:	607a      	str	r2, [r7, #4]
    dc54:	2300      	movs	r3, #0
    dc56:	617b      	str	r3, [r7, #20]
    dc58:	68bb      	ldr	r3, [r7, #8]
    dc5a:	613b      	str	r3, [r7, #16]
    dc5c:	e00c      	b.n	dc78 <Chip_UART_Read+0x30>
    dc5e:	68f8      	ldr	r0, [r7, #12]
    dc60:	f7ff fe86 	bl	d970 <Chip_UART_ReadByte>
    dc64:	4603      	mov	r3, r0
    dc66:	461a      	mov	r2, r3
    dc68:	693b      	ldr	r3, [r7, #16]
    dc6a:	701a      	strb	r2, [r3, #0]
    dc6c:	693b      	ldr	r3, [r7, #16]
    dc6e:	3301      	adds	r3, #1
    dc70:	613b      	str	r3, [r7, #16]
    dc72:	697b      	ldr	r3, [r7, #20]
    dc74:	3301      	adds	r3, #1
    dc76:	617b      	str	r3, [r7, #20]
    dc78:	697a      	ldr	r2, [r7, #20]
    dc7a:	687b      	ldr	r3, [r7, #4]
    dc7c:	429a      	cmp	r2, r3
    dc7e:	da07      	bge.n	dc90 <Chip_UART_Read+0x48>
    dc80:	68f8      	ldr	r0, [r7, #12]
    dc82:	f7ff fed1 	bl	da28 <Chip_UART_ReadLineStatus>
    dc86:	4603      	mov	r3, r0
    dc88:	f003 0301 	and.w	r3, r3, #1
    dc8c:	2b00      	cmp	r3, #0
    dc8e:	d1e6      	bne.n	dc5e <Chip_UART_Read+0x16>
    dc90:	697b      	ldr	r3, [r7, #20]
    dc92:	4618      	mov	r0, r3
    dc94:	3718      	adds	r7, #24
    dc96:	46bd      	mov	sp, r7
    dc98:	bd80      	pop	{r7, pc}
    dc9a:	bf00      	nop

0000dc9c <Chip_UART_SetBaud>:
    dc9c:	b580      	push	{r7, lr}
    dc9e:	b086      	sub	sp, #24
    dca0:	af00      	add	r7, sp, #0
    dca2:	6078      	str	r0, [r7, #4]
    dca4:	6039      	str	r1, [r7, #0]
    dca6:	6878      	ldr	r0, [r7, #4]
    dca8:	f7ff fef2 	bl	da90 <Chip_UART_GetClkIndex>
    dcac:	4603      	mov	r3, r0
    dcae:	4618      	mov	r0, r3
    dcb0:	f7fe fca6 	bl	c600 <Chip_Clock_GetPeripheralClockRate>
    dcb4:	6178      	str	r0, [r7, #20]
    dcb6:	683b      	ldr	r3, [r7, #0]
    dcb8:	011b      	lsls	r3, r3, #4
    dcba:	697a      	ldr	r2, [r7, #20]
    dcbc:	fbb2 f3f3 	udiv	r3, r2, r3
    dcc0:	613b      	str	r3, [r7, #16]
    dcc2:	693b      	ldr	r3, [r7, #16]
    dcc4:	0a1b      	lsrs	r3, r3, #8
    dcc6:	60fb      	str	r3, [r7, #12]
    dcc8:	68fb      	ldr	r3, [r7, #12]
    dcca:	021b      	lsls	r3, r3, #8
    dccc:	693a      	ldr	r2, [r7, #16]
    dcce:	1ad3      	subs	r3, r2, r3
    dcd0:	60bb      	str	r3, [r7, #8]
    dcd2:	6878      	ldr	r0, [r7, #4]
    dcd4:	f7ff fe74 	bl	d9c0 <Chip_UART_EnableDivisorAccess>
    dcd8:	68bb      	ldr	r3, [r7, #8]
    dcda:	b2db      	uxtb	r3, r3
    dcdc:	68fa      	ldr	r2, [r7, #12]
    dcde:	b2d2      	uxtb	r2, r2
    dce0:	4619      	mov	r1, r3
    dce2:	6878      	ldr	r0, [r7, #4]
    dce4:	f7ff fe8c 	bl	da00 <Chip_UART_SetDivisorLatches>
    dce8:	6878      	ldr	r0, [r7, #4]
    dcea:	f7ff fe79 	bl	d9e0 <Chip_UART_DisableDivisorAccess>
    dcee:	697a      	ldr	r2, [r7, #20]
    dcf0:	693b      	ldr	r3, [r7, #16]
    dcf2:	fbb2 f3f3 	udiv	r3, r2, r3
    dcf6:	4618      	mov	r0, r3
    dcf8:	3718      	adds	r7, #24
    dcfa:	46bd      	mov	sp, r7
    dcfc:	bd80      	pop	{r7, pc}
    dcfe:	bf00      	nop

0000dd00 <__main>:
    dd00:	b508      	push	{r3, lr}
    dd02:	2200      	movs	r2, #0
    dd04:	4611      	mov	r1, r2
    dd06:	4610      	mov	r0, r2
    dd08:	f000 f808 	bl	dd1c <_initio>
    dd0c:	e8bd 4008 	ldmia.w	sp!, {r3, lr}
    dd10:	f7fd bc88 	b.w	b624 <main>

0000dd14 <memcpy>:
    dd14:	f000 bb74 	b.w	e400 <__aeabi_memcpy>

0000dd18 <memset>:
    dd18:	f000 bb8c 	b.w	e434 <__aeabi_lowlevel_memset>

0000dd1c <_initio>:
    dd1c:	b570      	push	{r4, r5, r6, lr}
    dd1e:	f44f 72a0 	mov.w	r2, #320	; 0x140
    dd22:	2100      	movs	r1, #0
    dd24:	4820      	ldr	r0, [pc, #128]	; (dda8 <_initio+0x8c>)
    dd26:	f7ff fff7 	bl	dd18 <memset>
    dd2a:	20c0      	movs	r0, #192	; 0xc0
    dd2c:	f000 fa04 	bl	e138 <_Csys_alloc>
    dd30:	4c1e      	ldr	r4, [pc, #120]	; (ddac <_initio+0x90>)
    dd32:	22c0      	movs	r2, #192	; 0xc0
    dd34:	2100      	movs	r1, #0
    dd36:	4d1c      	ldr	r5, [pc, #112]	; (dda8 <_initio+0x8c>)
    dd38:	6020      	str	r0, [r4, #0]
    dd3a:	2628      	movs	r6, #40	; 0x28
    dd3c:	f7ff ffec 	bl	dd18 <memset>
    dd40:	6820      	ldr	r0, [r4, #0]
    dd42:	2300      	movs	r3, #0
    dd44:	2418      	movs	r4, #24
    dd46:	fb06 5203 	mla	r2, r6, r3, r5
    dd4a:	fb04 0103 	mla	r1, r4, r3, r0
    dd4e:	3301      	adds	r3, #1
    dd50:	2b08      	cmp	r3, #8
    dd52:	6251      	str	r1, [r2, #36]	; 0x24
    dd54:	d1f7      	bne.n	dd46 <_initio+0x2a>
    dd56:	4a14      	ldr	r2, [pc, #80]	; (dda8 <_initio+0x8c>)
    dd58:	4915      	ldr	r1, [pc, #84]	; (ddb0 <_initio+0x94>)
    dd5a:	2000      	movs	r0, #0
    dd5c:	f000 f8da 	bl	df14 <_fdopen>
    dd60:	f44f 5380 	mov.w	r3, #4096	; 0x1000
    dd64:	f44f 6280 	mov.w	r2, #1024	; 0x400
    dd68:	2100      	movs	r1, #0
    dd6a:	480f      	ldr	r0, [pc, #60]	; (dda8 <_initio+0x8c>)
    dd6c:	f000 f828 	bl	ddc0 <setvbuf>
    dd70:	4a10      	ldr	r2, [pc, #64]	; (ddb4 <_initio+0x98>)
    dd72:	4911      	ldr	r1, [pc, #68]	; (ddb8 <_initio+0x9c>)
    dd74:	2001      	movs	r0, #1
    dd76:	f000 f8cd 	bl	df14 <_fdopen>
    dd7a:	f44f 5380 	mov.w	r3, #4096	; 0x1000
    dd7e:	f44f 6280 	mov.w	r2, #1024	; 0x400
    dd82:	2100      	movs	r1, #0
    dd84:	480b      	ldr	r0, [pc, #44]	; (ddb4 <_initio+0x98>)
    dd86:	f000 f81b 	bl	ddc0 <setvbuf>
    dd8a:	4a0c      	ldr	r2, [pc, #48]	; (ddbc <_initio+0xa0>)
    dd8c:	490a      	ldr	r1, [pc, #40]	; (ddb8 <_initio+0x9c>)
    dd8e:	2002      	movs	r0, #2
    dd90:	f000 f8c0 	bl	df14 <_fdopen>
    dd94:	e8bd 4070 	ldmia.w	sp!, {r4, r5, r6, lr}
    dd98:	f44f 5380 	mov.w	r3, #4096	; 0x1000
    dd9c:	f44f 6280 	mov.w	r2, #1024	; 0x400
    dda0:	2100      	movs	r1, #0
    dda2:	4806      	ldr	r0, [pc, #24]	; (ddbc <_initio+0xa0>)
    dda4:	f000 b80c 	b.w	ddc0 <setvbuf>
    dda8:	10004a84 	.word	0x10004a84
    ddac:	10004a80 	.word	0x10004a80
    ddb0:	0000e78b 	.word	0x0000e78b
    ddb4:	10004aac 	.word	0x10004aac
    ddb8:	0000e78d 	.word	0x0000e78d
    ddbc:	10004ad4 	.word	0x10004ad4

0000ddc0 <setvbuf>:
    ddc0:	b570      	push	{r4, r5, r6, lr}
    ddc2:	68c4      	ldr	r4, [r0, #12]
    ddc4:	07a5      	lsls	r5, r4, #30
    ddc6:	d017      	beq.n	ddf8 <setvbuf+0x38>
    ddc8:	f5b2 7f00 	cmp.w	r2, #512	; 0x200
    ddcc:	d009      	beq.n	dde2 <setvbuf+0x22>
    ddce:	f5b2 6f80 	cmp.w	r2, #1024	; 0x400
    ddd2:	d003      	beq.n	dddc <setvbuf+0x1c>
    ddd4:	f5b2 7f80 	cmp.w	r2, #256	; 0x100
    ddd8:	d10e      	bne.n	ddf8 <setvbuf+0x38>
    ddda:	e002      	b.n	dde2 <setvbuf+0x22>
    dddc:	6a41      	ldr	r1, [r0, #36]	; 0x24
    ddde:	2301      	movs	r3, #1
    dde0:	e003      	b.n	ddea <setvbuf+0x2a>
    dde2:	4d06      	ldr	r5, [pc, #24]	; (ddfc <setvbuf+0x3c>)
    dde4:	1e5e      	subs	r6, r3, #1
    dde6:	42ae      	cmp	r6, r5
    dde8:	d806      	bhi.n	ddf8 <setvbuf+0x38>
    ddea:	4322      	orrs	r2, r4
    ddec:	6101      	str	r1, [r0, #16]
    ddee:	6001      	str	r1, [r0, #0]
    ddf0:	61c3      	str	r3, [r0, #28]
    ddf2:	60c2      	str	r2, [r0, #12]
    ddf4:	2000      	movs	r0, #0
    ddf6:	bd70      	pop	{r4, r5, r6, pc}
    ddf8:	2001      	movs	r0, #1
    ddfa:	bd70      	pop	{r4, r5, r6, pc}
    ddfc:	00fffffe 	.word	0x00fffffe

0000de00 <strcmp>:
    de00:	ea40 0301 	orr.w	r3, r0, r1
    de04:	079b      	lsls	r3, r3, #30
    de06:	b530      	push	{r4, r5, lr}
    de08:	d110      	bne.n	de2c <strcmp+0x2c>
    de0a:	4605      	mov	r5, r0
    de0c:	460c      	mov	r4, r1
    de0e:	4621      	mov	r1, r4
    de10:	4628      	mov	r0, r5
    de12:	680b      	ldr	r3, [r1, #0]
    de14:	f855 2b04 	ldr.w	r2, [r5], #4
    de18:	3404      	adds	r4, #4
    de1a:	429a      	cmp	r2, r3
    de1c:	d106      	bne.n	de2c <strcmp+0x2c>
    de1e:	f1a2 3301 	sub.w	r3, r2, #16843009	; 0x1010101
    de22:	ea23 0302 	bic.w	r3, r3, r2
    de26:	f013 3f80 	tst.w	r3, #2155905152	; 0x80808080
    de2a:	d0f0      	beq.n	de0e <strcmp+0xe>
    de2c:	f810 3b01 	ldrb.w	r3, [r0], #1
    de30:	f811 2b01 	ldrb.w	r2, [r1], #1
    de34:	4293      	cmp	r3, r2
    de36:	d001      	beq.n	de3c <strcmp+0x3c>
    de38:	1a98      	subs	r0, r3, r2
    de3a:	bd30      	pop	{r4, r5, pc}
    de3c:	2b00      	cmp	r3, #0
    de3e:	d1f5      	bne.n	de2c <strcmp+0x2c>
    de40:	4618      	mov	r0, r3
    de42:	bd30      	pop	{r4, r5, pc}

0000de44 <strcpy>:
    de44:	ea40 0301 	orr.w	r3, r0, r1
    de48:	079b      	lsls	r3, r3, #30
    de4a:	b510      	push	{r4, lr}
    de4c:	d113      	bne.n	de76 <strcpy+0x32>
    de4e:	4602      	mov	r2, r0
    de50:	3904      	subs	r1, #4
    de52:	f851 3f04 	ldr.w	r3, [r1, #4]!
    de56:	f1a3 3401 	sub.w	r4, r3, #16843009	; 0x1010101
    de5a:	ea24 0403 	bic.w	r4, r4, r3
    de5e:	f014 3f80 	tst.w	r4, #2155905152	; 0x80808080
    de62:	d102      	bne.n	de6a <strcpy+0x26>
    de64:	f842 3b04 	str.w	r3, [r2], #4
    de68:	e7f3      	b.n	de52 <strcpy+0xe>
    de6a:	b2d9      	uxtb	r1, r3
    de6c:	f802 1b01 	strb.w	r1, [r2], #1
    de70:	b141      	cbz	r1, de84 <strcpy+0x40>
    de72:	121b      	asrs	r3, r3, #8
    de74:	e7f9      	b.n	de6a <strcpy+0x26>
    de76:	1e42      	subs	r2, r0, #1
    de78:	f811 3b01 	ldrb.w	r3, [r1], #1
    de7c:	f802 3f01 	strb.w	r3, [r2, #1]!
    de80:	2b00      	cmp	r3, #0
    de82:	d1f9      	bne.n	de78 <strcpy+0x34>
    de84:	bd10      	pop	{r4, pc}

0000de86 <strlen>:
    de86:	b510      	push	{r4, lr}
    de88:	1c42      	adds	r2, r0, #1
    de8a:	0783      	lsls	r3, r0, #30
    de8c:	d005      	beq.n	de9a <strlen+0x14>
    de8e:	f810 3b01 	ldrb.w	r3, [r0], #1
    de92:	2b00      	cmp	r3, #0
    de94:	d1f9      	bne.n	de8a <strlen+0x4>
    de96:	1a80      	subs	r0, r0, r2
    de98:	bd10      	pop	{r4, pc}
    de9a:	4603      	mov	r3, r0
    de9c:	f850 1b04 	ldr.w	r1, [r0], #4
    dea0:	f1a1 3401 	sub.w	r4, r1, #16843009	; 0x1010101
    dea4:	ea24 0401 	bic.w	r4, r4, r1
    dea8:	f014 3f80 	tst.w	r4, #2155905152	; 0x80808080
    deac:	d0f5      	beq.n	de9a <strlen+0x14>
    deae:	f011 0fff 	tst.w	r1, #255	; 0xff
    deb2:	d00a      	beq.n	deca <strlen+0x44>
    deb4:	f411 4f7f 	tst.w	r1, #65280	; 0xff00
    deb8:	d005      	beq.n	dec6 <strlen+0x40>
    deba:	f411 0f7f 	tst.w	r1, #16711680	; 0xff0000
    debe:	bf14      	ite	ne
    dec0:	4603      	movne	r3, r0
    dec2:	3303      	addeq	r3, #3
    dec4:	e002      	b.n	decc <strlen+0x46>
    dec6:	3302      	adds	r3, #2
    dec8:	e000      	b.n	decc <strlen+0x46>
    deca:	3301      	adds	r3, #1
    decc:	1a98      	subs	r0, r3, r2
    dece:	bd10      	pop	{r4, pc}

0000ded0 <_deferredlazyseek>:
    ded0:	68c3      	ldr	r3, [r0, #12]
    ded2:	b510      	push	{r4, lr}
    ded4:	f023 0320 	bic.w	r3, r3, #32
    ded8:	60c3      	str	r3, [r0, #12]
    deda:	6a43      	ldr	r3, [r0, #36]	; 0x24
    dedc:	6982      	ldr	r2, [r0, #24]
    dede:	685b      	ldr	r3, [r3, #4]
    dee0:	4604      	mov	r4, r0
    dee2:	429a      	cmp	r2, r3
    dee4:	d00f      	beq.n	df06 <_deferredlazyseek+0x36>
    dee6:	f000 f84a 	bl	df7e <_fflush>
    deea:	68e3      	ldr	r3, [r4, #12]
    deec:	6a62      	ldr	r2, [r4, #36]	; 0x24
    deee:	f423 5340 	bic.w	r3, r3, #12288	; 0x3000
    def2:	f023 0310 	bic.w	r3, r3, #16
    def6:	f043 0310 	orr.w	r3, r3, #16
    defa:	60e3      	str	r3, [r4, #12]
    defc:	6853      	ldr	r3, [r2, #4]
    defe:	61a3      	str	r3, [r4, #24]
    df00:	6923      	ldr	r3, [r4, #16]
    df02:	6093      	str	r3, [r2, #8]
    df04:	6023      	str	r3, [r4, #0]
    df06:	68e3      	ldr	r3, [r4, #12]
    df08:	f423 4380 	bic.w	r3, r3, #16384	; 0x4000
    df0c:	f023 0340 	bic.w	r3, r3, #64	; 0x40
    df10:	60e3      	str	r3, [r4, #12]
    df12:	bd10      	pop	{r4, pc}

0000df14 <_fdopen>:
    df14:	b570      	push	{r4, r5, r6, lr}
    df16:	460d      	mov	r5, r1
    df18:	4606      	mov	r6, r0
    df1a:	4610      	mov	r0, r2
    df1c:	4614      	mov	r4, r2
    df1e:	f000 f91b 	bl	e158 <fclose>
    df22:	782b      	ldrb	r3, [r5, #0]
    df24:	2b72      	cmp	r3, #114	; 0x72
    df26:	d00a      	beq.n	df3e <_fdopen+0x2a>
    df28:	2b77      	cmp	r3, #119	; 0x77
    df2a:	d005      	beq.n	df38 <_fdopen+0x24>
    df2c:	2b61      	cmp	r3, #97	; 0x61
    df2e:	d122      	bne.n	df76 <_fdopen+0x62>
    df30:	2308      	movs	r3, #8
    df32:	f248 0202 	movw	r2, #32770	; 0x8002
    df36:	e004      	b.n	df42 <_fdopen+0x2e>
    df38:	2304      	movs	r3, #4
    df3a:	2202      	movs	r2, #2
    df3c:	e001      	b.n	df42 <_fdopen+0x2e>
    df3e:	2300      	movs	r3, #0
    df40:	2201      	movs	r2, #1
    df42:	f815 1f01 	ldrb.w	r1, [r5, #1]!
    df46:	292b      	cmp	r1, #43	; 0x2b
    df48:	d006      	beq.n	df58 <_fdopen+0x44>
    df4a:	2962      	cmp	r1, #98	; 0x62
    df4c:	d109      	bne.n	df62 <_fdopen+0x4e>
    df4e:	f042 0204 	orr.w	r2, r2, #4
    df52:	f043 0301 	orr.w	r3, r3, #1
    df56:	e7f4      	b.n	df42 <_fdopen+0x2e>
    df58:	f042 0203 	orr.w	r2, r2, #3
    df5c:	f043 0302 	orr.w	r3, r3, #2
    df60:	e7ef      	b.n	df42 <_fdopen+0x2e>
    df62:	071b      	lsls	r3, r3, #28
    df64:	60e2      	str	r2, [r4, #12]
    df66:	6166      	str	r6, [r4, #20]
    df68:	d507      	bpl.n	df7a <_fdopen+0x66>
    df6a:	2202      	movs	r2, #2
    df6c:	2100      	movs	r1, #0
    df6e:	4620      	mov	r0, r4
    df70:	f000 f940 	bl	e1f4 <fseek>
    df74:	e001      	b.n	df7a <_fdopen+0x66>
    df76:	2000      	movs	r0, #0
    df78:	bd70      	pop	{r4, r5, r6, pc}
    df7a:	4620      	mov	r0, r4
    df7c:	bd70      	pop	{r4, r5, r6, pc}

0000df7e <_fflush>:
    df7e:	b538      	push	{r3, r4, r5, lr}
    df80:	4604      	mov	r4, r0
    df82:	6a43      	ldr	r3, [r0, #36]	; 0x24
    df84:	6905      	ldr	r5, [r0, #16]
    df86:	6801      	ldr	r1, [r0, #0]
    df88:	68c0      	ldr	r0, [r0, #12]
    df8a:	689b      	ldr	r3, [r3, #8]
    df8c:	f420 2200 	bic.w	r2, r0, #524288	; 0x80000
    df90:	60e2      	str	r2, [r4, #12]
    df92:	f000 0282 	and.w	r2, r0, #130	; 0x82
    df96:	2a02      	cmp	r2, #2
    df98:	d002      	beq.n	dfa0 <_fflush+0x22>
    df9a:	f04f 30ff 	mov.w	r0, #4294967295
    df9e:	bd38      	pop	{r3, r4, r5, pc}
    dfa0:	f410 3080 	ands.w	r0, r0, #65536	; 0x10000
    dfa4:	d016      	beq.n	dfd4 <_fflush+0x56>
    dfa6:	4299      	cmp	r1, r3
    dfa8:	bf38      	it	cc
    dfaa:	4619      	movcc	r1, r3
    dfac:	428d      	cmp	r5, r1
    dfae:	d109      	bne.n	dfc4 <_fflush+0x46>
    dfb0:	6a63      	ldr	r3, [r4, #36]	; 0x24
    dfb2:	2000      	movs	r0, #0
    dfb4:	609d      	str	r5, [r3, #8]
    dfb6:	68e3      	ldr	r3, [r4, #12]
    dfb8:	6025      	str	r5, [r4, #0]
    dfba:	f423 3380 	bic.w	r3, r3, #65536	; 0x10000
    dfbe:	60a0      	str	r0, [r4, #8]
    dfc0:	60e3      	str	r3, [r4, #12]
    dfc2:	bd38      	pop	{r3, r4, r5, pc}
    dfc4:	4622      	mov	r2, r4
    dfc6:	1b49      	subs	r1, r1, r5
    dfc8:	4628      	mov	r0, r5
    dfca:	f000 f805 	bl	dfd8 <_Cwritebuf>
    dfce:	2800      	cmp	r0, #0
    dfd0:	d0ee      	beq.n	dfb0 <_fflush+0x32>
    dfd2:	e7e2      	b.n	df9a <_fflush+0x1c>
    dfd4:	bd38      	pop	{r3, r4, r5, pc}
	...

0000dfd8 <_Cwritebuf>:
    dfd8:	e92d 41f0 	stmdb	sp!, {r4, r5, r6, r7, r8, lr}
    dfdc:	68d5      	ldr	r5, [r2, #12]
    dfde:	4680      	mov	r8, r0
    dfe0:	02eb      	lsls	r3, r5, #11
    dfe2:	460e      	mov	r6, r1
    dfe4:	4614      	mov	r4, r2
    dfe6:	6957      	ldr	r7, [r2, #20]
    dfe8:	d505      	bpl.n	dff6 <_Cwritebuf+0x1e>
    dfea:	4638      	mov	r0, r7
    dfec:	f000 fa48 	bl	e480 <__sys_flen>
    dff0:	f045 0510 	orr.w	r5, r5, #16
    dff4:	61a0      	str	r0, [r4, #24]
    dff6:	4b11      	ldr	r3, [pc, #68]	; (e03c <_Cwritebuf+0x64>)
    dff8:	402b      	ands	r3, r5
    dffa:	b153      	cbz	r3, e012 <_Cwritebuf+0x3a>
    dffc:	69a1      	ldr	r1, [r4, #24]
    dffe:	4638      	mov	r0, r7
    e000:	f000 fa50 	bl	e4a4 <__sys_seek>
    e004:	2800      	cmp	r0, #0
    e006:	db10      	blt.n	e02a <_Cwritebuf+0x52>
    e008:	f425 3500 	bic.w	r5, r5, #131072	; 0x20000
    e00c:	f025 0510 	bic.w	r5, r5, #16
    e010:	60e5      	str	r5, [r4, #12]
    e012:	4632      	mov	r2, r6
    e014:	4641      	mov	r1, r8
    e016:	4638      	mov	r0, r7
    e018:	f7fd fe9a 	bl	bd50 <__sys_write>
    e01c:	f020 4300 	bic.w	r3, r0, #2147483648	; 0x80000000
    e020:	1af6      	subs	r6, r6, r3
    e022:	69a3      	ldr	r3, [r4, #24]
    e024:	441e      	add	r6, r3
    e026:	61a6      	str	r6, [r4, #24]
    e028:	b128      	cbz	r0, e036 <_Cwritebuf+0x5e>
    e02a:	68e3      	ldr	r3, [r4, #12]
    e02c:	f04f 30ff 	mov.w	r0, #4294967295
    e030:	f043 0380 	orr.w	r3, r3, #128	; 0x80
    e034:	60e3      	str	r3, [r4, #12]
    e036:	e8bd 81f0 	ldmia.w	sp!, {r4, r5, r6, r7, r8, pc}
    e03a:	bf00      	nop
    e03c:	00020010 	.word	0x00020010

0000e040 <malloc>:
    e040:	b5f8      	push	{r3, r4, r5, r6, r7, lr}
    e042:	4f30      	ldr	r7, [pc, #192]	; (e104 <malloc+0xc4>)
    e044:	683c      	ldr	r4, [r7, #0]
    e046:	b1a0      	cbz	r0, e072 <malloc+0x32>
    e048:	1cc5      	adds	r5, r0, #3
    e04a:	08ad      	lsrs	r5, r5, #2
    e04c:	2600      	movs	r6, #0
    e04e:	f105 0e0a 	add.w	lr, r5, #10
    e052:	f105 0c03 	add.w	ip, r5, #3
    e056:	e005      	b.n	e064 <malloc+0x24>
    e058:	6823      	ldr	r3, [r4, #0]
    e05a:	f1b3 5f80 	cmp.w	r3, #268435456	; 0x10000000
    e05e:	d014      	beq.n	e08a <malloc+0x4a>
    e060:	4626      	mov	r6, r4
    e062:	68a4      	ldr	r4, [r4, #8]
    e064:	2c00      	cmp	r4, #0
    e066:	d1f7      	bne.n	e058 <malloc+0x18>
    e068:	300c      	adds	r0, #12
    e06a:	f000 f97b 	bl	e364 <_sbrk>
    e06e:	1c43      	adds	r3, r0, #1
    e070:	d110      	bne.n	e094 <malloc+0x54>
    e072:	2000      	movs	r0, #0
    e074:	bdf8      	pop	{r3, r4, r5, r6, r7, pc}
    e076:	6811      	ldr	r1, [r2, #0]
    e078:	f1b1 5f80 	cmp.w	r1, #268435456	; 0x10000000
    e07c:	d115      	bne.n	e0aa <malloc+0x6a>
    e07e:	6851      	ldr	r1, [r2, #4]
    e080:	440b      	add	r3, r1
    e082:	3303      	adds	r3, #3
    e084:	6063      	str	r3, [r4, #4]
    e086:	6893      	ldr	r3, [r2, #8]
    e088:	60a3      	str	r3, [r4, #8]
    e08a:	68a2      	ldr	r2, [r4, #8]
    e08c:	6863      	ldr	r3, [r4, #4]
    e08e:	2a00      	cmp	r2, #0
    e090:	d1f1      	bne.n	e076 <malloc+0x36>
    e092:	e00a      	b.n	e0aa <malloc+0x6a>
    e094:	f04f 5300 	mov.w	r3, #536870912	; 0x20000000
    e098:	e880 0028 	stmia.w	r0, {r3, r5}
    e09c:	6084      	str	r4, [r0, #8]
    e09e:	b90e      	cbnz	r6, e0a4 <malloc+0x64>
    e0a0:	6038      	str	r0, [r7, #0]
    e0a2:	e000      	b.n	e0a6 <malloc+0x66>
    e0a4:	60b0      	str	r0, [r6, #8]
    e0a6:	300c      	adds	r0, #12
    e0a8:	bdf8      	pop	{r3, r4, r5, r6, r7, pc}
    e0aa:	429d      	cmp	r5, r3
    e0ac:	dc07      	bgt.n	e0be <malloc+0x7e>
    e0ae:	4563      	cmp	r3, ip
    e0b0:	dc05      	bgt.n	e0be <malloc+0x7e>
    e0b2:	4620      	mov	r0, r4
    e0b4:	f04f 5300 	mov.w	r3, #536870912	; 0x20000000
    e0b8:	f840 3b0c 	str.w	r3, [r0], #12
    e0bc:	bdf8      	pop	{r3, r4, r5, r6, r7, pc}
    e0be:	4573      	cmp	r3, lr
    e0c0:	d911      	bls.n	e0e6 <malloc+0xa6>
    e0c2:	4620      	mov	r0, r4
    e0c4:	f04f 5100 	mov.w	r1, #536870912	; 0x20000000
    e0c8:	6065      	str	r5, [r4, #4]
    e0ca:	f840 1b0c 	str.w	r1, [r0], #12
    e0ce:	eb00 0185 	add.w	r1, r0, r5, lsl #2
    e0d2:	60a1      	str	r1, [r4, #8]
    e0d4:	f04f 5480 	mov.w	r4, #268435456	; 0x10000000
    e0d8:	f840 4025 	str.w	r4, [r0, r5, lsl #2]
    e0dc:	1b5d      	subs	r5, r3, r5
    e0de:	3d03      	subs	r5, #3
    e0e0:	604d      	str	r5, [r1, #4]
    e0e2:	608a      	str	r2, [r1, #8]
    e0e4:	bdf8      	pop	{r3, r4, r5, r6, r7, pc}
    e0e6:	2a00      	cmp	r2, #0
    e0e8:	d1ba      	bne.n	e060 <malloc+0x20>
    e0ea:	eba0 0083 	sub.w	r0, r0, r3, lsl #2
    e0ee:	f000 f939 	bl	e364 <_sbrk>
    e0f2:	3001      	adds	r0, #1
    e0f4:	d0bd      	beq.n	e072 <malloc+0x32>
    e0f6:	f04f 5300 	mov.w	r3, #536870912	; 0x20000000
    e0fa:	e884 0028 	stmia.w	r4, {r3, r5}
    e0fe:	f104 000c 	add.w	r0, r4, #12
    e102:	bdf8      	pop	{r3, r4, r5, r6, r7, pc}
    e104:	10004bc8 	.word	0x10004bc8

0000e108 <free>:
    e108:	b1a8      	cbz	r0, e136 <free+0x2e>
    e10a:	f04f 5380 	mov.w	r3, #268435456	; 0x10000000
    e10e:	f840 3c0c 	str.w	r3, [r0, #-12]
    e112:	f850 2c04 	ldr.w	r2, [r0, #-4]
    e116:	b172      	cbz	r2, e136 <free+0x2e>
    e118:	6813      	ldr	r3, [r2, #0]
    e11a:	f1b3 5f80 	cmp.w	r3, #268435456	; 0x10000000
    e11e:	d10a      	bne.n	e136 <free+0x2e>
    e120:	6853      	ldr	r3, [r2, #4]
    e122:	f850 1c08 	ldr.w	r1, [r0, #-8]
    e126:	440b      	add	r3, r1
    e128:	3303      	adds	r3, #3
    e12a:	f840 3c08 	str.w	r3, [r0, #-8]
    e12e:	6893      	ldr	r3, [r2, #8]
    e130:	f840 3c04 	str.w	r3, [r0, #-4]
    e134:	e7ed      	b.n	e112 <free+0xa>
    e136:	4770      	bx	lr

0000e138 <_Csys_alloc>:
    e138:	b510      	push	{r4, lr}
    e13a:	f7ff ff81 	bl	e040 <malloc>
    e13e:	4604      	mov	r4, r0
    e140:	b928      	cbnz	r0, e14e <_Csys_alloc+0x16>
    e142:	2217      	movs	r2, #23
    e144:	4903      	ldr	r1, [pc, #12]	; (e154 <_Csys_alloc+0x1c>)
    e146:	f7fd fe03 	bl	bd50 <__sys_write>
    e14a:	f000 f98d 	bl	e468 <__exit>
    e14e:	4620      	mov	r0, r4
    e150:	bd10      	pop	{r4, pc}
    e152:	bf00      	nop
    e154:	0000e78f 	.word	0x0000e78f

0000e158 <fclose>:
    e158:	e92d 41f0 	stmdb	sp!, {r4, r5, r6, r7, r8, lr}
    e15c:	68c5      	ldr	r5, [r0, #12]
    e15e:	b088      	sub	sp, #32
    e160:	07a9      	lsls	r1, r5, #30
    e162:	4604      	mov	r4, r0
    e164:	6a46      	ldr	r6, [r0, #36]	; 0x24
    e166:	d028      	beq.n	e1ba <fclose+0x62>
    e168:	072a      	lsls	r2, r5, #28
    e16a:	d419      	bmi.n	e1a0 <fclose+0x48>
    e16c:	f8d0 8014 	ldr.w	r8, [r0, #20]
    e170:	6907      	ldr	r7, [r0, #16]
    e172:	f000 f827 	bl	e1c4 <fflush>
    e176:	4640      	mov	r0, r8
    e178:	f000 f97c 	bl	e474 <__sys_close>
    e17c:	052b      	lsls	r3, r5, #20
    e17e:	d502      	bpl.n	e186 <fclose+0x2e>
    e180:	4638      	mov	r0, r7
    e182:	f7ff ffc1 	bl	e108 <free>
    e186:	0dad      	lsrs	r5, r5, #22
    e188:	05ad      	lsls	r5, r5, #22
    e18a:	f115 4fa5 	cmn.w	r5, #1384120320	; 0x52800000
    e18e:	d107      	bne.n	e1a0 <fclose+0x48>
    e190:	2220      	movs	r2, #32
    e192:	6a21      	ldr	r1, [r4, #32]
    e194:	4668      	mov	r0, sp
    e196:	f000 f98b 	bl	e4b0 <__sys_tmpnam>
    e19a:	4668      	mov	r0, sp
    e19c:	f000 f8d8 	bl	e350 <remove>
    e1a0:	2218      	movs	r2, #24
    e1a2:	2100      	movs	r1, #0
    e1a4:	6a60      	ldr	r0, [r4, #36]	; 0x24
    e1a6:	f7ff fdb7 	bl	dd18 <memset>
    e1aa:	2228      	movs	r2, #40	; 0x28
    e1ac:	2100      	movs	r1, #0
    e1ae:	4620      	mov	r0, r4
    e1b0:	f7ff fdb2 	bl	dd18 <memset>
    e1b4:	6266      	str	r6, [r4, #36]	; 0x24
    e1b6:	2000      	movs	r0, #0
    e1b8:	e001      	b.n	e1be <fclose+0x66>
    e1ba:	f04f 30ff 	mov.w	r0, #4294967295
    e1be:	b008      	add	sp, #32
    e1c0:	e8bd 81f0 	ldmia.w	sp!, {r4, r5, r6, r7, r8, pc}

0000e1c4 <fflush>:
    e1c4:	b570      	push	{r4, r5, r6, lr}
    e1c6:	4604      	mov	r4, r0
    e1c8:	b118      	cbz	r0, e1d2 <fflush+0xe>
    e1ca:	e8bd 4070 	ldmia.w	sp!, {r4, r5, r6, lr}
    e1ce:	f000 b8e9 	b.w	e3a4 <_do_fflush>
    e1d2:	4605      	mov	r5, r0
    e1d4:	4e06      	ldr	r6, [pc, #24]	; (e1f0 <fflush+0x2c>)
    e1d6:	1930      	adds	r0, r6, r4
    e1d8:	f000 f8e4 	bl	e3a4 <_do_fflush>
    e1dc:	3428      	adds	r4, #40	; 0x28
    e1de:	2800      	cmp	r0, #0
    e1e0:	bf18      	it	ne
    e1e2:	f04f 35ff 	movne.w	r5, #4294967295
    e1e6:	f5b4 7fa0 	cmp.w	r4, #320	; 0x140
    e1ea:	d1f4      	bne.n	e1d6 <fflush+0x12>
    e1ec:	4628      	mov	r0, r5
    e1ee:	bd70      	pop	{r4, r5, r6, pc}
    e1f0:	10004a84 	.word	0x10004a84

0000e1f4 <fseek>:
    e1f4:	e92d 43f8 	stmdb	sp!, {r3, r4, r5, r6, r7, r8, r9, lr}
    e1f8:	68c6      	ldr	r6, [r0, #12]
    e1fa:	4b41      	ldr	r3, [pc, #260]	; (e300 <fseek+0x10c>)
    e1fc:	4604      	mov	r4, r0
    e1fe:	4033      	ands	r3, r6
    e200:	460d      	mov	r5, r1
    e202:	4690      	mov	r8, r2
    e204:	2b00      	cmp	r3, #0
    e206:	d077      	beq.n	e2f8 <fseek+0x104>
    e208:	f8d0 9014 	ldr.w	r9, [r0, #20]
    e20c:	4648      	mov	r0, r9
    e20e:	f000 f93d 	bl	e48c <__sys_istty>
    e212:	4607      	mov	r7, r0
    e214:	2800      	cmp	r0, #0
    e216:	d16f      	bne.n	e2f8 <fseek+0x104>
    e218:	f1b8 0f01 	cmp.w	r8, #1
    e21c:	d006      	beq.n	e22c <fseek+0x38>
    e21e:	f1b8 0f02 	cmp.w	r8, #2
    e222:	d008      	beq.n	e236 <fseek+0x42>
    e224:	f1b8 0f00 	cmp.w	r8, #0
    e228:	d166      	bne.n	e2f8 <fseek+0x104>
    e22a:	e029      	b.n	e280 <fseek+0x8c>
    e22c:	4620      	mov	r0, r4
    e22e:	f000 f869 	bl	e304 <ftell>
    e232:	4405      	add	r5, r0
    e234:	e024      	b.n	e280 <fseek+0x8c>
    e236:	4648      	mov	r0, r9
    e238:	f000 f922 	bl	e480 <__sys_flen>
    e23c:	f1b0 0e00 	subs.w	lr, r0, #0
    e240:	f8d4 c00c 	ldr.w	ip, [r4, #12]
    e244:	da04      	bge.n	e250 <fseek+0x5c>
    e246:	f04c 0180 	orr.w	r1, ip, #128	; 0x80
    e24a:	60e1      	str	r1, [r4, #12]
    e24c:	2701      	movs	r7, #1
    e24e:	e054      	b.n	e2fa <fseek+0x106>
    e250:	6a60      	ldr	r0, [r4, #36]	; 0x24
    e252:	6883      	ldr	r3, [r0, #8]
    e254:	461a      	mov	r2, r3
    e256:	69a3      	ldr	r3, [r4, #24]
    e258:	4619      	mov	r1, r3
    e25a:	6823      	ldr	r3, [r4, #0]
    e25c:	4293      	cmp	r3, r2
    e25e:	bf2c      	ite	cs
    e260:	18c9      	addcs	r1, r1, r3
    e262:	1889      	addcc	r1, r1, r2
    e264:	6923      	ldr	r3, [r4, #16]
    e266:	f01c 0f20 	tst.w	ip, #32
    e26a:	eba1 0303 	sub.w	r3, r1, r3
    e26e:	d003      	beq.n	e278 <fseek+0x84>
    e270:	6842      	ldr	r2, [r0, #4]
    e272:	4293      	cmp	r3, r2
    e274:	bfb8      	it	lt
    e276:	4613      	movlt	r3, r2
    e278:	4573      	cmp	r3, lr
    e27a:	bfac      	ite	ge
    e27c:	18ed      	addge	r5, r5, r3
    e27e:	4475      	addlt	r5, lr
    e280:	2d00      	cmp	r5, #0
    e282:	db39      	blt.n	e2f8 <fseek+0x104>
    e284:	f416 5f00 	tst.w	r6, #8192	; 0x2000
    e288:	6a62      	ldr	r2, [r4, #36]	; 0x24
    e28a:	d004      	beq.n	e296 <fseek+0xa2>
    e28c:	6823      	ldr	r3, [r4, #0]
    e28e:	6891      	ldr	r1, [r2, #8]
    e290:	4299      	cmp	r1, r3
    e292:	bf38      	it	cc
    e294:	6093      	strcc	r3, [r2, #8]
    e296:	69a1      	ldr	r1, [r4, #24]
    e298:	428d      	cmp	r5, r1
    e29a:	db10      	blt.n	e2be <fseek+0xca>
    e29c:	6820      	ldr	r0, [r4, #0]
    e29e:	6893      	ldr	r3, [r2, #8]
    e2a0:	f8d4 e010 	ldr.w	lr, [r4, #16]
    e2a4:	4283      	cmp	r3, r0
    e2a6:	bf38      	it	cc
    e2a8:	4603      	movcc	r3, r0
    e2aa:	1858      	adds	r0, r3, r1
    e2ac:	ebce 0000 	rsb	r0, lr, r0
    e2b0:	4285      	cmp	r5, r0
    e2b2:	dc04      	bgt.n	e2be <fseek+0xca>
    e2b4:	68d0      	ldr	r0, [r2, #12]
    e2b6:	eb01 0c00 	add.w	ip, r1, r0
    e2ba:	4565      	cmp	r5, ip
    e2bc:	db06      	blt.n	e2cc <fseek+0xd8>
    e2be:	2300      	movs	r3, #0
    e2c0:	60a3      	str	r3, [r4, #8]
    e2c2:	6063      	str	r3, [r4, #4]
    e2c4:	f046 0620 	orr.w	r6, r6, #32
    e2c8:	6055      	str	r5, [r2, #4]
    e2ca:	e00f      	b.n	e2ec <fseek+0xf8>
    e2cc:	1a6d      	subs	r5, r5, r1
    e2ce:	07b1      	lsls	r1, r6, #30
    e2d0:	bf44      	itt	mi
    e2d2:	1a28      	submi	r0, r5, r0
    e2d4:	60a0      	strmi	r0, [r4, #8]
    e2d6:	07f2      	lsls	r2, r6, #31
    e2d8:	bf44      	itt	mi
    e2da:	ebce 0303 	rsbmi	r3, lr, r3
    e2de:	1aeb      	submi	r3, r5, r3
    e2e0:	4475      	add	r5, lr
    e2e2:	bf48      	it	mi
    e2e4:	6063      	strmi	r3, [r4, #4]
    e2e6:	6025      	str	r5, [r4, #0]
    e2e8:	f026 0620 	bic.w	r6, r6, #32
    e2ec:	f426 2603 	bic.w	r6, r6, #536576	; 0x83000
    e2f0:	f026 0640 	bic.w	r6, r6, #64	; 0x40
    e2f4:	60e6      	str	r6, [r4, #12]
    e2f6:	e000      	b.n	e2fa <fseek+0x106>
    e2f8:	2702      	movs	r7, #2
    e2fa:	4638      	mov	r0, r7
    e2fc:	e8bd 83f8 	ldmia.w	sp!, {r3, r4, r5, r6, r7, r8, r9, pc}
    e300:	00100003 	.word	0x00100003

0000e304 <ftell>:
    e304:	68c3      	ldr	r3, [r0, #12]
    e306:	079a      	lsls	r2, r3, #30
    e308:	d105      	bne.n	e316 <ftell+0x12>
    e30a:	4b10      	ldr	r3, [pc, #64]	; (e34c <ftell+0x48>)
    e30c:	2221      	movs	r2, #33	; 0x21
    e30e:	601a      	str	r2, [r3, #0]
    e310:	f04f 30ff 	mov.w	r0, #4294967295
    e314:	4770      	bx	lr
    e316:	f413 2f00 	tst.w	r3, #524288	; 0x80000
    e31a:	f003 0320 	and.w	r3, r3, #32
    e31e:	d00a      	beq.n	e336 <ftell+0x32>
    e320:	b113      	cbz	r3, e328 <ftell+0x24>
    e322:	6a43      	ldr	r3, [r0, #36]	; 0x24
    e324:	6858      	ldr	r0, [r3, #4]
    e326:	e004      	b.n	e332 <ftell+0x2e>
    e328:	6802      	ldr	r2, [r0, #0]
    e32a:	6983      	ldr	r3, [r0, #24]
    e32c:	6900      	ldr	r0, [r0, #16]
    e32e:	4413      	add	r3, r2
    e330:	1a18      	subs	r0, r3, r0
    e332:	3801      	subs	r0, #1
    e334:	4770      	bx	lr
    e336:	b113      	cbz	r3, e33e <ftell+0x3a>
    e338:	6a43      	ldr	r3, [r0, #36]	; 0x24
    e33a:	6858      	ldr	r0, [r3, #4]
    e33c:	4770      	bx	lr
    e33e:	6802      	ldr	r2, [r0, #0]
    e340:	6983      	ldr	r3, [r0, #24]
    e342:	6900      	ldr	r0, [r0, #16]
    e344:	4413      	add	r3, r2
    e346:	1a18      	subs	r0, r3, r0
    e348:	4770      	bx	lr
    e34a:	bf00      	nop
    e34c:	10004bc4 	.word	0x10004bc4

0000e350 <remove>:
    e350:	b510      	push	{r4, lr}
    e352:	4604      	mov	r4, r0
    e354:	f7ff fd97 	bl	de86 <strlen>
    e358:	4601      	mov	r1, r0
    e35a:	4620      	mov	r0, r4
    e35c:	e8bd 4010 	ldmia.w	sp!, {r4, lr}
    e360:	f000 b89a 	b.w	e498 <__sys_remove>

0000e364 <_sbrk>:
    e364:	b538      	push	{r3, r4, r5, lr}
    e366:	4b0c      	ldr	r3, [pc, #48]	; (e398 <_sbrk+0x34>)
    e368:	681a      	ldr	r2, [r3, #0]
    e36a:	b90a      	cbnz	r2, e370 <_sbrk+0xc>
    e36c:	4a0b      	ldr	r2, [pc, #44]	; (e39c <_sbrk+0x38>)
    e36e:	601a      	str	r2, [r3, #0]
    e370:	1cc4      	adds	r4, r0, #3
    e372:	681d      	ldr	r5, [r3, #0]
    e374:	f024 0403 	bic.w	r4, r4, #3
    e378:	442c      	add	r4, r5
    e37a:	4620      	mov	r0, r4
    e37c:	f000 f834 	bl	e3e8 <__check_heap_overflow>
    e380:	b918      	cbnz	r0, e38a <_sbrk+0x26>
    e382:	4b05      	ldr	r3, [pc, #20]	; (e398 <_sbrk+0x34>)
    e384:	4628      	mov	r0, r5
    e386:	601c      	str	r4, [r3, #0]
    e388:	bd38      	pop	{r3, r4, r5, pc}
    e38a:	4b05      	ldr	r3, [pc, #20]	; (e3a0 <_sbrk+0x3c>)
    e38c:	220c      	movs	r2, #12
    e38e:	601a      	str	r2, [r3, #0]
    e390:	f04f 30ff 	mov.w	r0, #4294967295
    e394:	bd38      	pop	{r3, r4, r5, pc}
    e396:	bf00      	nop
    e398:	10004bcc 	.word	0x10004bcc
    e39c:	10004da0 	.word	0x10004da0
    e3a0:	10004bc4 	.word	0x10004bc4

0000e3a4 <_do_fflush>:
    e3a4:	68c2      	ldr	r2, [r0, #12]
    e3a6:	b570      	push	{r4, r5, r6, lr}
    e3a8:	f012 0303 	ands.w	r3, r2, #3
    e3ac:	4604      	mov	r4, r0
    e3ae:	d019      	beq.n	e3e4 <_do_fflush+0x40>
    e3b0:	0693      	lsls	r3, r2, #26
    e3b2:	d504      	bpl.n	e3be <_do_fflush+0x1a>
    e3b4:	6a43      	ldr	r3, [r0, #36]	; 0x24
    e3b6:	685d      	ldr	r5, [r3, #4]
    e3b8:	f7ff fd8a 	bl	ded0 <_deferredlazyseek>
    e3bc:	e004      	b.n	e3c8 <_do_fflush+0x24>
    e3be:	6805      	ldr	r5, [r0, #0]
    e3c0:	6983      	ldr	r3, [r0, #24]
    e3c2:	442b      	add	r3, r5
    e3c4:	6905      	ldr	r5, [r0, #16]
    e3c6:	1b5d      	subs	r5, r3, r5
    e3c8:	68e3      	ldr	r3, [r4, #12]
    e3ca:	4620      	mov	r0, r4
    e3cc:	f423 5340 	bic.w	r3, r3, #12288	; 0x3000
    e3d0:	60e3      	str	r3, [r4, #12]
    e3d2:	f7ff fdd4 	bl	df7e <_fflush>
    e3d6:	4606      	mov	r6, r0
    e3d8:	2200      	movs	r2, #0
    e3da:	4629      	mov	r1, r5
    e3dc:	4620      	mov	r0, r4
    e3de:	f7ff ff09 	bl	e1f4 <fseek>
    e3e2:	4633      	mov	r3, r6
    e3e4:	4618      	mov	r0, r3
    e3e6:	bd70      	pop	{r4, r5, r6, pc}

0000e3e8 <__check_heap_overflow>:
    e3e8:	4b04      	ldr	r3, [pc, #16]	; (e3fc <__check_heap_overflow+0x14>)
    e3ea:	b123      	cbz	r3, e3f6 <__check_heap_overflow+0xe>
    e3ec:	4298      	cmp	r0, r3
    e3ee:	bf34      	ite	cc
    e3f0:	2000      	movcc	r0, #0
    e3f2:	2001      	movcs	r0, #1
    e3f4:	4770      	bx	lr
    e3f6:	4618      	mov	r0, r3
    e3f8:	4770      	bx	lr
    e3fa:	bf00      	nop
    e3fc:	00000000 	.word	0x00000000

0000e400 <__aeabi_memcpy>:
    e400:	ea40 0301 	orr.w	r3, r0, r1
    e404:	07db      	lsls	r3, r3, #31
    e406:	4603      	mov	r3, r0
    e408:	d40c      	bmi.n	e424 <copy1>

0000e40a <__aeabi_memcpy4>:
    e40a:	4603      	mov	r3, r0
    e40c:	3a04      	subs	r2, #4

0000e40e <copy4>:
    e40e:	bf22      	ittt	cs
    e410:	f851 cb04 	ldrcs.w	ip, [r1], #4
    e414:	f843 cb04 	strcs.w	ip, [r3], #4
    e418:	f1b2 0204 	subscs.w	r2, r2, #4
    e41c:	d2f7      	bcs.n	e40e <copy4>
    e41e:	3204      	adds	r2, #4
    e420:	bf08      	it	eq
    e422:	4770      	bxeq	lr

0000e424 <copy1>:
    e424:	3a01      	subs	r2, #1
    e426:	bf24      	itt	cs
    e428:	f811 cb01 	ldrbcs.w	ip, [r1], #1
    e42c:	f803 cb01 	strbcs.w	ip, [r3], #1
    e430:	d8f8      	bhi.n	e424 <copy1>
    e432:	4770      	bx	lr

0000e434 <__aeabi_lowlevel_memset>:
    e434:	4603      	mov	r3, r0
    e436:	f013 0f03 	tst.w	r3, #3
    e43a:	d10e      	bne.n	e45a <memset1a>
    e43c:	f001 01ff 	and.w	r1, r1, #255	; 0xff
    e440:	ea41 2101 	orr.w	r1, r1, r1, lsl #8
    e444:	ea41 4101 	orr.w	r1, r1, r1, lsl #16

0000e448 <__bhs_memset4>:
    e448:	3a04      	subs	r2, #4

0000e44a <memset4>:
    e44a:	bf24      	itt	cs
    e44c:	f843 1b04 	strcs.w	r1, [r3], #4
    e450:	f1b2 0204 	subscs.w	r2, r2, #4
    e454:	d2f9      	bcs.n	e44a <memset4>

0000e456 <memset1>:
    e456:	f102 0204 	add.w	r2, r2, #4

0000e45a <memset1a>:
    e45a:	3a01      	subs	r2, #1
    e45c:	bf24      	itt	cs
    e45e:	f803 1b01 	strbcs.w	r1, [r3], #1
    e462:	e7fa      	bcs.n	e45a <memset1a>
    e464:	4770      	bx	lr
	...

0000e468 <__exit>:
    e468:	2018      	movs	r0, #24
    e46a:	4901      	ldr	r1, [pc, #4]	; (e470 <__exit+0x8>)
    e46c:	beab      	bkpt	0x00ab
    e46e:	4770      	bx	lr
    e470:	00020026 	.word	0x00020026

0000e474 <__sys_close>:
    e474:	b403      	push	{r0, r1}
    e476:	4669      	mov	r1, sp
    e478:	2002      	movs	r0, #2
    e47a:	beab      	bkpt	0x00ab
    e47c:	b002      	add	sp, #8
    e47e:	4770      	bx	lr

0000e480 <__sys_flen>:
    e480:	b403      	push	{r0, r1}
    e482:	4669      	mov	r1, sp
    e484:	200c      	movs	r0, #12
    e486:	beab      	bkpt	0x00ab
    e488:	b002      	add	sp, #8
    e48a:	4770      	bx	lr

0000e48c <__sys_istty>:
    e48c:	b403      	push	{r0, r1}
    e48e:	4669      	mov	r1, sp
    e490:	2009      	movs	r0, #9
    e492:	beab      	bkpt	0x00ab
    e494:	b002      	add	sp, #8
    e496:	4770      	bx	lr

0000e498 <__sys_remove>:
    e498:	b403      	push	{r0, r1}
    e49a:	4669      	mov	r1, sp
    e49c:	200e      	movs	r0, #14
    e49e:	beab      	bkpt	0x00ab
    e4a0:	b002      	add	sp, #8
    e4a2:	4770      	bx	lr

0000e4a4 <__sys_seek>:
    e4a4:	b403      	push	{r0, r1}
    e4a6:	4669      	mov	r1, sp
    e4a8:	200a      	movs	r0, #10
    e4aa:	beab      	bkpt	0x00ab
    e4ac:	b002      	add	sp, #8
    e4ae:	4770      	bx	lr

0000e4b0 <__sys_tmpnam>:
    e4b0:	b40f      	push	{r0, r1, r2, r3}
    e4b2:	4669      	mov	r1, sp
    e4b4:	200d      	movs	r0, #13
    e4b6:	beab      	bkpt	0x00ab
    e4b8:	b004      	add	sp, #16
    e4ba:	4770      	bx	lr
    e4bc:	00000a0d 	.word	0x00000a0d
    e4c0:	30325b1b 	.word	0x30325b1b
    e4c4:	4835323b 	.word	0x4835323b
    e4c8:	6c655720 	.word	0x6c655720
    e4cc:	656d6f63 	.word	0x656d6f63
    e4d0:	0d0a0d20 	.word	0x0d0a0d20
    e4d4:	0000000a 	.word	0x0000000a
    e4d8:	70736944 	.word	0x70736944
    e4dc:	0079616c 	.word	0x0079616c
    e4e0:	5241552f 	.word	0x5241552f
    e4e4:	002f3054 	.word	0x002f3054
    e4e8:	38315b1b 	.word	0x38315b1b
    e4ec:	4838313b 	.word	0x4838313b
    e4f0:	2a2a2a2a 	.word	0x2a2a2a2a
    e4f4:	2a2a2a2a 	.word	0x2a2a2a2a
    e4f8:	2a2a2a2a 	.word	0x2a2a2a2a
    e4fc:	2a2a2a2a 	.word	0x2a2a2a2a
    e500:	2a2a2a2a 	.word	0x2a2a2a2a
    e504:	2a2a2a2a 	.word	0x2a2a2a2a
    e508:	2a2a2a2a 	.word	0x2a2a2a2a
    e50c:	2a2a2a2a 	.word	0x2a2a2a2a
    e510:	2a2a2a2a 	.word	0x2a2a2a2a
    e514:	2a2a2a2a 	.word	0x2a2a2a2a
    e518:	2a2a2a2a 	.word	0x2a2a2a2a
    e51c:	2a2a2a2a 	.word	0x2a2a2a2a
    e520:	2a2a2a2a 	.word	0x2a2a2a2a
    e524:	2a2a2a2a 	.word	0x2a2a2a2a
    e528:	00000000 	.word	0x00000000
    e52c:	35325b1b 	.word	0x35325b1b
    e530:	4838313b 	.word	0x4838313b
    e534:	2a2a2a2a 	.word	0x2a2a2a2a
    e538:	2a2a2a2a 	.word	0x2a2a2a2a
    e53c:	2a2a2a2a 	.word	0x2a2a2a2a
    e540:	2a2a2a2a 	.word	0x2a2a2a2a
    e544:	2a2a2a2a 	.word	0x2a2a2a2a
    e548:	2a2a2a2a 	.word	0x2a2a2a2a
    e54c:	2a2a2a2a 	.word	0x2a2a2a2a
    e550:	2a2a2a2a 	.word	0x2a2a2a2a
    e554:	2a2a2a2a 	.word	0x2a2a2a2a
    e558:	2a2a2a2a 	.word	0x2a2a2a2a
    e55c:	2a2a2a2a 	.word	0x2a2a2a2a
    e560:	2a2a2a2a 	.word	0x2a2a2a2a
    e564:	2a2a2a2a 	.word	0x2a2a2a2a
    e568:	2a2a2a2a 	.word	0x2a2a2a2a
    e56c:	00000000 	.word	0x00000000
    e570:	39315b1b 	.word	0x39315b1b
    e574:	4838313b 	.word	0x4838313b
    e578:	00000023 	.word	0x00000023
    e57c:	30325b1b 	.word	0x30325b1b
    e580:	4838313b 	.word	0x4838313b
    e584:	00000023 	.word	0x00000023
    e588:	31325b1b 	.word	0x31325b1b
    e58c:	4838313b 	.word	0x4838313b
    e590:	00000023 	.word	0x00000023
    e594:	32325b1b 	.word	0x32325b1b
    e598:	4838313b 	.word	0x4838313b
    e59c:	00000023 	.word	0x00000023
    e5a0:	33325b1b 	.word	0x33325b1b
    e5a4:	4838313b 	.word	0x4838313b
    e5a8:	00000023 	.word	0x00000023
    e5ac:	34325b1b 	.word	0x34325b1b
    e5b0:	4838313b 	.word	0x4838313b
    e5b4:	00000023 	.word	0x00000023
    e5b8:	39315b1b 	.word	0x39315b1b
    e5bc:	4834363b 	.word	0x4834363b
    e5c0:	00000023 	.word	0x00000023
    e5c4:	30325b1b 	.word	0x30325b1b
    e5c8:	4834363b 	.word	0x4834363b
    e5cc:	00000023 	.word	0x00000023
    e5d0:	31325b1b 	.word	0x31325b1b
    e5d4:	4834363b 	.word	0x4834363b
    e5d8:	00000023 	.word	0x00000023
    e5dc:	32325b1b 	.word	0x32325b1b
    e5e0:	4834363b 	.word	0x4834363b
    e5e4:	00000023 	.word	0x00000023
    e5e8:	33325b1b 	.word	0x33325b1b
    e5ec:	4834363b 	.word	0x4834363b
    e5f0:	00000023 	.word	0x00000023
    e5f4:	34325b1b 	.word	0x34325b1b
    e5f8:	4834363b 	.word	0x4834363b
    e5fc:	00000023 	.word	0x00000023
    e600:	30325b1b 	.word	0x30325b1b
    e604:	4830323b 	.word	0x4830323b
    e608:	6c654823 	.word	0x6c654823
    e60c:	00006f6c 	.word	0x00006f6c
    e610:	454c4449 	.word	0x454c4449
    e614:	00000000 	.word	0x00000000
    e618:	09632509 	.word	0x09632509
    e61c:	25097525 	.word	0x25097525
    e620:	75250975 	.word	0x75250975
    e624:	00000a0d 	.word	0x00000a0d
    e628:	09752509 	.word	0x09752509
    e62c:	25752509 	.word	0x25752509
    e630:	000a0d25 	.word	0x000a0d25
    e634:	09752509 	.word	0x09752509
    e638:	25313c09 	.word	0x25313c09
    e63c:	000a0d25 	.word	0x000a0d25
    e640:	20726d54 	.word	0x20726d54
    e644:	00637653 	.word	0x00637653
    e648:	51726d54 	.word	0x51726d54
    e64c:	00000000 	.word	0x00000000

0000e650 <xIRQ>:
    e650:	00000f0e                                ....

0000e654 <xIRQ>:
    e654:	08070605 5241552f 002f3354 5241552f     ..../UART3/./UAR
    e664:	002f3054 5053532f 00002f31 4332492f     T0/./SSP1/../I2C
    e674:	00002f30 4332492f 00002f32              0/../I2C2/..

0000e680 <xAvailablePeripherals>:
    e680:	0000e658 00000000 4009c000 0000e660     X..........@`...
    e690:	00000000 4000c000 0000e668 00000001     .......@h.......
    e6a0:	40030000 0000e670 00000002 4001c000     ...@p..........@
    e6b0:	0000e678 00000002 400a0000 544e4f43     x..........@CONT
    e6c0:	5f4c4f52 4b534154 00000000 6b617242     ROL_TASK....Brak
    e6d0:	79535f65 6d657473 00000000 65636341     e_System....Acce
    e6e0:	6172656c 00006574 70736944 0079616c     lerate..Display.
    e6f0:	69676e45 5320656e 75746174 00000073     Engine Status...
    e700:	3a636341 00000000 003a7242 00204e4f     Acc:....Br:.ON .
    e710:	0046464f 6c756e28 0000296c              OFF.(null)..

0000e71c <OscRateIn>:
    e71c:	00b71b00                                ....

0000e720 <RTCOscRateIn>:
    e720:	00008000                                ....

0000e724 <pinLCDCTRL>:
    e724:	1d070605                                ....

0000e728 <pinLCDDATA>:
    e728:	16151413                                ....

0000e72c <pinmuxing>:
    e72c:	00000a00 00000a08 00000a20 00000a28     ........ ...(...
    e73c:	000008b0 000009b8 00000ad0 00000901     ................
    e74c:	00000909 00000921 00000941 00000949     ....!...A...I...
    e75c:	00000951 00000971 00000979 00000981     Q...q...y.......
    e76c:	00000989 000009d9 0000081a 00000878     ............x...
    e77c:	00000822 00000880 00000888              "...........

0000e788 <I2C_PeriphClk>:
    e788:	721a1307 2a007700 5f202a2a 73797343     ...r.w.*** _Csys
    e798:	6c6c615f 6620636f 656c6961 00000a64              _alloc failed..

Disassembly of section .after_vectors:

0000e7a8 <MemManage_Handler>:
    e7a8:	b480      	push	{r7}
    e7aa:	af00      	add	r7, sp, #0
    e7ac:	b500      	push	{lr}
    e7ae:	f01e 0f04 	tst.w	lr, #4
    e7b2:	bf0c      	ite	eq
    e7b4:	f3ef 8008 	mrseq	r0, MSP
    e7b8:	f3ef 8009 	mrsne	r0, PSP
    e7bc:	6981      	ldr	r1, [r0, #24]
    e7be:	f8df 2004 	ldr.w	r2, [pc, #4]	; e7c4 <handler2_address_const>
    e7c2:	4710      	bx	r2

0000e7c4 <handler2_address_const>:
    e7c4:	0000ae59 	.word	0x0000ae59
    e7c8:	bf00      	nop
    e7ca:	46bd      	mov	sp, r7
    e7cc:	bc80      	pop	{r7}
    e7ce:	4770      	bx	lr

0000e7d0 <data_init>:
    e7d0:	b480      	push	{r7}
    e7d2:	b089      	sub	sp, #36	; 0x24
    e7d4:	af00      	add	r7, sp, #0
    e7d6:	60f8      	str	r0, [r7, #12]
    e7d8:	60b9      	str	r1, [r7, #8]
    e7da:	607a      	str	r2, [r7, #4]
    e7dc:	68bb      	ldr	r3, [r7, #8]
    e7de:	61fb      	str	r3, [r7, #28]
    e7e0:	68fb      	ldr	r3, [r7, #12]
    e7e2:	61bb      	str	r3, [r7, #24]
    e7e4:	2300      	movs	r3, #0
    e7e6:	617b      	str	r3, [r7, #20]
    e7e8:	e00a      	b.n	e800 <data_init+0x30>
    e7ea:	69fb      	ldr	r3, [r7, #28]
    e7ec:	1d1a      	adds	r2, r3, #4
    e7ee:	61fa      	str	r2, [r7, #28]
    e7f0:	69ba      	ldr	r2, [r7, #24]
    e7f2:	1d11      	adds	r1, r2, #4
    e7f4:	61b9      	str	r1, [r7, #24]
    e7f6:	6812      	ldr	r2, [r2, #0]
    e7f8:	601a      	str	r2, [r3, #0]
    e7fa:	697b      	ldr	r3, [r7, #20]
    e7fc:	3304      	adds	r3, #4
    e7fe:	617b      	str	r3, [r7, #20]
    e800:	697a      	ldr	r2, [r7, #20]
    e802:	687b      	ldr	r3, [r7, #4]
    e804:	429a      	cmp	r2, r3
    e806:	d3f0      	bcc.n	e7ea <data_init+0x1a>
    e808:	bf00      	nop
    e80a:	3724      	adds	r7, #36	; 0x24
    e80c:	46bd      	mov	sp, r7
    e80e:	bc80      	pop	{r7}
    e810:	4770      	bx	lr
    e812:	bf00      	nop

0000e814 <bss_init>:
    e814:	b480      	push	{r7}
    e816:	b085      	sub	sp, #20
    e818:	af00      	add	r7, sp, #0
    e81a:	6078      	str	r0, [r7, #4]
    e81c:	6039      	str	r1, [r7, #0]
    e81e:	687b      	ldr	r3, [r7, #4]
    e820:	60fb      	str	r3, [r7, #12]
    e822:	2300      	movs	r3, #0
    e824:	60bb      	str	r3, [r7, #8]
    e826:	e007      	b.n	e838 <bss_init+0x24>
    e828:	68fb      	ldr	r3, [r7, #12]
    e82a:	1d1a      	adds	r2, r3, #4
    e82c:	60fa      	str	r2, [r7, #12]
    e82e:	2200      	movs	r2, #0
    e830:	601a      	str	r2, [r3, #0]
    e832:	68bb      	ldr	r3, [r7, #8]
    e834:	3304      	adds	r3, #4
    e836:	60bb      	str	r3, [r7, #8]
    e838:	68ba      	ldr	r2, [r7, #8]
    e83a:	683b      	ldr	r3, [r7, #0]
    e83c:	429a      	cmp	r2, r3
    e83e:	d3f3      	bcc.n	e828 <bss_init+0x14>
    e840:	bf00      	nop
    e842:	3714      	adds	r7, #20
    e844:	46bd      	mov	sp, r7
    e846:	bc80      	pop	{r7}
    e848:	4770      	bx	lr
    e84a:	bf00      	nop

0000e84c <NMI_Handler>:
    e84c:	b480      	push	{r7}
    e84e:	af00      	add	r7, sp, #0
    e850:	e7fe      	b.n	e850 <NMI_Handler+0x4>
    e852:	bf00      	nop

0000e854 <HardFault_Handler>:
    e854:	b480      	push	{r7}
    e856:	af00      	add	r7, sp, #0
    e858:	f01e 0f04 	tst.w	lr, #4
    e85c:	bf0c      	ite	eq
    e85e:	f3ef 8008 	mrseq	r0, MSP
    e862:	f3ef 8009 	mrsne	r0, PSP
    e866:	6981      	ldr	r1, [r0, #24]
    e868:	4a1a      	ldr	r2, [pc, #104]	; (e8d4 <handler4_address_const>)
    e86a:	4710      	bx	r2

0000e86c <handler1_address_const>:
    e86c:	0000ae59 	.word	0x0000ae59
    e870:	e7fe      	b.n	e870 <handler1_address_const+0x4>
    e872:	bf00      	nop
    e874:	b480      	push	{r7}
    e876:	af00      	add	r7, sp, #0
    e878:	f01e 0f04 	tst.w	lr, #4
    e87c:	bf0c      	ite	eq
    e87e:	f3ef 8008 	mrseq	r0, MSP
    e882:	f3ef 8009 	mrsne	r0, PSP
    e886:	6981      	ldr	r1, [r0, #24]
    e888:	4a00      	ldr	r2, [pc, #0]	; (e88c <handler2_address_const>)
    e88a:	4710      	bx	r2

0000e88c <handler2_address_const>:
    e88c:	0000ae59 	.word	0x0000ae59
    e890:	bf00      	nop
    e892:	46bd      	mov	sp, r7
    e894:	bc80      	pop	{r7}
    e896:	4770      	bx	lr

0000e898 <BusFault_Handler>:
    e898:	b480      	push	{r7}
    e89a:	af00      	add	r7, sp, #0
    e89c:	f01e 0f04 	tst.w	lr, #4
    e8a0:	bf0c      	ite	eq
    e8a2:	f3ef 8008 	mrseq	r0, MSP
    e8a6:	f3ef 8009 	mrsne	r0, PSP
    e8aa:	6981      	ldr	r1, [r0, #24]
    e8ac:	4a00      	ldr	r2, [pc, #0]	; (e8b0 <handler3_address_const>)
    e8ae:	4710      	bx	r2

0000e8b0 <handler3_address_const>:
    e8b0:	0000ae59 	.word	0x0000ae59
    e8b4:	bf00      	nop
    e8b6:	46bd      	mov	sp, r7
    e8b8:	bc80      	pop	{r7}
    e8ba:	4770      	bx	lr

0000e8bc <UsageFault_Handler>:
    e8bc:	b480      	push	{r7}
    e8be:	af00      	add	r7, sp, #0
    e8c0:	f01e 0f04 	tst.w	lr, #4
    e8c4:	bf0c      	ite	eq
    e8c6:	f3ef 8008 	mrseq	r0, MSP
    e8ca:	f3ef 8009 	mrsne	r0, PSP
    e8ce:	6981      	ldr	r1, [r0, #24]
    e8d0:	4a00      	ldr	r2, [pc, #0]	; (e8d4 <handler4_address_const>)
    e8d2:	4710      	bx	r2

0000e8d4 <handler4_address_const>:
    e8d4:	0000ae59 	.word	0x0000ae59
    e8d8:	bf00      	nop
    e8da:	46bd      	mov	sp, r7
    e8dc:	bc80      	pop	{r7}
    e8de:	4770      	bx	lr
    e8e0:	b480      	push	{r7}
    e8e2:	af00      	add	r7, sp, #0
    e8e4:	e7fe      	b.n	e8e4 <handler4_address_const+0x10>
    e8e6:	bf00      	nop

0000e8e8 <DebugMon_Handler>:
    e8e8:	b480      	push	{r7}
    e8ea:	af00      	add	r7, sp, #0
    e8ec:	e7fe      	b.n	e8ec <DebugMon_Handler+0x4>
    e8ee:	bf00      	nop
    e8f0:	b480      	push	{r7}
    e8f2:	af00      	add	r7, sp, #0
    e8f4:	e7fe      	b.n	e8f4 <DebugMon_Handler+0xc>
    e8f6:	bf00      	nop
    e8f8:	b480      	push	{r7}
    e8fa:	af00      	add	r7, sp, #0
    e8fc:	e7fe      	b.n	e8fc <DebugMon_Handler+0x14>
    e8fe:	bf00      	nop

0000e900 <ADC_IRQHandler>:
    e900:	b480      	push	{r7}
    e902:	af00      	add	r7, sp, #0
    e904:	e7fe      	b.n	e904 <ADC_IRQHandler+0x4>
    e906:	bf00      	nop
