
C:\Users\Kalidas Tate\Documents\LPCXpresso_8.2.2_650\workspaceTEST\FreeRTOS-Plus-Demo-1\Debug\FreeRTOS-Plus-Demo-1.axf:     file format elf32-littlearm
C:\Users\Kalidas Tate\Documents\LPCXpresso_8.2.2_650\workspaceTEST\FreeRTOS-Plus-Demo-1\Debug\FreeRTOS-Plus-Demo-1.axf
architecture: arm, flags 0x00000112:
EXEC_P, HAS_SYMS, D_PAGED
start address 0x0000b531

Program Header:
    LOAD off    0x00010000 vaddr 0x00000000 paddr 0x00000000 align 2**16
         filesz 0x0000e908 memsz 0x0000e908 flags r-x
    LOAD off    0x00024c18 vaddr 0x10004c18 paddr 0x0000e908 align 2**16
         filesz 0x00000188 memsz 0x00000188 flags rw-
    LOAD off    0x00030000 vaddr 0x10000000 paddr 0x10000000 align 2**16
         filesz 0x00000190 memsz 0x00004c18 flags rw-
private flags = 5000200: [Version5 EABI] [soft-float ABI]

Sections:
Idx Name          Size      VMA       LMA       File off  Algn
  0 privileged_functions 00003b98  00000000  00000000  00010000  2**2
                  CONTENTS, ALLOC, LOAD, READONLY, CODE
  1 .text         0000ac0f  00003b98  00003b98  00013b98  2**2
                  CONTENTS, ALLOC, LOAD, READONLY, CODE
  2 .after_vectors 00000160  0000e7a8  0000e7a8  0001e7a8  2**2
                  CONTENTS, ALLOC, LOAD, READONLY, CODE
  3 privileged_data 00000190  10000000  10000000  00030000  2**2
                  CONTENTS, ALLOC, LOAD, DATA
  4 .bss          00004a18  10000200  10000200  00030190  2**9
                  ALLOC
  5 .data         00000188  10004c18  0000e908  00024c18  2**2
                  CONTENTS, ALLOC, LOAD, DATA
  6 .debug_info   00012c83  00000000  00000000  00030190  2**0
                  CONTENTS, READONLY, DEBUGGING
  7 .debug_abbrev 00003d44  00000000  00000000  00042e13  2**0
                  CONTENTS, READONLY, DEBUGGING
  8 .debug_aranges 00001298  00000000  00000000  00046b57  2**0
                  CONTENTS, READONLY, DEBUGGING
  9 .debug_ranges 00001130  00000000  00000000  00047def  2**0
                  CONTENTS, READONLY, DEBUGGING
 10 .debug_macro  0000ab75  00000000  00000000  00048f1f  2**0
                  CONTENTS, READONLY, DEBUGGING
 11 .debug_line   000124e7  00000000  00000000  00053a94  2**0
                  CONTENTS, READONLY, DEBUGGING
 12 .debug_str    00022e5b  00000000  00000000  00065f7b  2**0
                  CONTENTS, READONLY, DEBUGGING
 13 .comment      000000dc  00000000  00000000  00088dd6  2**0
                  CONTENTS, READONLY
 14 .ARM.attributes 00000031  00000000  00000000  00088eb2  2**0
                  CONTENTS, READONLY
 15 .debug_frame  000047ec  00000000  00000000  00088ee4  2**2
                  CONTENTS, READONLY, DEBUGGING
SYMBOL TABLE:
00000000 l    d  privileged_functions	00000000 privileged_functions
00003b98 l    d  .text	00000000 .text
0000e7a8 l    d  .after_vectors	00000000 .after_vectors
10000000 l    d  privileged_data	00000000 privileged_data
10000200 l    d  .bss	00000000 .bss
10004c18 l    d  .data	00000000 .data
00000000 l    d  .debug_info	00000000 .debug_info
00000000 l    d  .debug_abbrev	00000000 .debug_abbrev
00000000 l    d  .debug_aranges	00000000 .debug_aranges
00000000 l    d  .debug_ranges	00000000 .debug_ranges
00000000 l    d  .debug_macro	00000000 .debug_macro
00000000 l    d  .debug_line	00000000 .debug_line
00000000 l    d  .debug_str	00000000 .debug_str
00000000 l    d  .comment	00000000 .comment
00000000 l    d  .ARM.attributes	00000000 .ARM.attributes
00000000 l    d  .debug_frame	00000000 .debug_frame
00000000 l    df *ABS*	00000000 cr_startup_lpc175x_6x.c
0000b560 l     F .text	00000000 zero_loop
0000e8d4 l       .after_vectors	00000000 handler4_address_const
0000e86c l       .after_vectors	00000000 handler1_address_const
0000e88c l       .after_vectors	00000000 handler2_address_const
0000e8b0 l       .after_vectors	00000000 handler3_address_const
00000000 l    df *ABS*	00000000 heap_2.c
00007d68 l     F .text	00000050 prvHeapInit
10004018 l     O .bss	00000004 xHeapHasBeenInitialised.7734
10004008 l     O .bss	00000008 xStart
10004010 l     O .bss	00000008 xEnd
10004c54 l     O .data	00000004 xFreeBytesRemaining
10000408 l     O .bss	00003c00 ucHeap
00000000 l    df *ABS*	00000000 port.c
000004ec l     F privileged_functions	000000e0 prvSetupMPU
000004c8 l     F privileged_functions	00000024 prvSetupTimerInterrupt
10004c58 l     O .data	00000004 uxCriticalNesting
000005cc l     F privileged_functions	0000003e prvGetMPURegionSizeSetting
0000065c l       privileged_functions	00000000 pxCurrentTCBConst
000006e0 l     F privileged_functions	00000068 prvSVCHandler
000006a0 l     F privileged_functions	0000003e prvRestoreContextOfFirstTask
000006d8 l       privileged_functions	00000000 pxCurrentTCBConst2
00007e4c l     F .text	00000016 prvRaisePrivilege
00000000 l    df *ABS*	00000000 queue.c
0000144c l     F privileged_functions	000000d6 prvCopyDataToQueue
0000141c l     F privileged_functions	00000030 prvIsQueueFull
00001358 l     F privileged_functions	00000098 prvUnlockQueue
00001524 l     F privileged_functions	0000004c prvCopyDataFromQueue
000013f0 l     F privileged_functions	0000002c prvIsQueueEmpty
00000000 l    df *ABS*	00000000 tasks.c
00008360 l     F .text	00000048 prvResetNextTaskUnblockTime
100000fc l     O privileged_data	00000014 xTasksWaitingTermination
10000110 l     O privileged_data	00000004 uxTasksDeleted
10000144 l     O privileged_data	00000004 uxTaskNumber
10000134 l     O privileged_data	00000004 xSchedulerRunning
1000014c l     O privileged_data	00000004 uxSchedulerSuspended
000032c0 l     F privileged_functions	0000006c prvAddCurrentTaskToDelayedList
1000012c l     O privileged_data	00000004 xTickCount
10000054 l     O privileged_data	00000064 pxReadyTasksLists
10000130 l     O privileged_data	00000004 uxTopReadyPriority
10000114 l     O privileged_data	00000014 xSuspendedTaskList
10000128 l     O privileged_data	00000004 uxCurrentNumberOfTasks
00003138 l     F privileged_functions	00000068 prvTaskIsTaskSuspended
100000e8 l     O privileged_data	00000014 xPendingReadyList
00008350 l     F .text	0000000e prvIdleTask
10000148 l     O privileged_data	00000004 xNextTaskUnblockTime
1000013c l     O privileged_data	00000004 xYieldPending
10000138 l     O privileged_data	00000004 uxPendedTicks
000034b0 l     F privileged_functions	00000036 prvTaskCheckFreeStackSpace
00003398 l     F privileged_functions	00000118 prvListTaskWithinSingleList
100000e0 l     O privileged_data	00000004 pxDelayedTaskList
100000e4 l     O privileged_data	00000004 pxOverflowDelayedTaskList
000083a8 l     F .text	0000004a prvWriteNameToBuffer
10000140 l     O privileged_data	00000004 xNumOfOverflows
10000154 l     O privileged_data	00000004 ulTotalRunTime
10000150 l     O privileged_data	00000004 ulTaskSwitchedInTime
0000332c l     F privileged_functions	0000006c prvAllocateTCBAndStack
00003078 l     F privileged_functions	000000be prvInitialiseTCBVariables
000031a0 l     F privileged_functions	00000080 prvInitialiseTaskLists
100000b8 l     O privileged_data	00000014 xDelayedTaskList1
100000cc l     O privileged_data	00000014 xDelayedTaskList2
00003220 l     F privileged_functions	00000028 prvDeleteTCB
00003248 l     F privileged_functions	00000078 prvCheckTasksWaitingTermination
00000000 l    df *ABS*	00000000 timers.c
0000371c l     F privileged_functions	00000080 prvCheckForValidListAndQueue
10000188 l     O privileged_data	00000004 xTimerQueue
0000379c l     F privileged_functions	00000024 prvTimerTask
10000158 l     O privileged_data	00000014 xActiveTimerList1
1000016c l     O privileged_data	00000014 xActiveTimerList2
10000180 l     O privileged_data	00000004 pxCurrentTimerList
10000184 l     O privileged_data	00000004 pxOverflowTimerList
00003abc l     F privileged_functions	00000048 prvGetNextExpireTime
00003b04 l     F privileged_functions	00000094 prvProcessTimerOrBlockTask
000037c0 l     F privileged_functions	0000010c prvProcessReceivedCommands
00003a7c l     F privileged_functions	00000040 prvSampleTimeNow
000038cc l     F privileged_functions	00000084 prvInsertTimerInActiveList
00003950 l     F privileged_functions	00000074 prvProcessExpiredTimer
000039c4 l     F privileged_functions	000000b8 prvSwitchTimerLists
1000018c l     O privileged_data	00000004 xLastTime.7981
00000000 l    df *ABS*	00000000 Infotainment-UART-Console.c
10000200 l     O .bss	00000200 xRegTestStack8
10004c18 l     O .data	0000003c xRegInfotainmentTaskParameters
00007be4 l     F .text	00000184 prvInfotainmentTask
00000000 l    df *ABS*	00000000 list.c
00000000 l    df *ABS*	00000000 IOUtils_TaskNotificationBasedRx.c
00000000 l    df *ABS*	00000000 FreeRTOS_lpc17xx_DriverInterface.c
00000000 l    df *ABS*	00000000 FreeRTOS_lpc17xx_i2c.c
000086a4 l     F .text	0000003a Chip_IOCON_DisableOD
1000401c l     O .bss	0000000c pxTxTransferControlStructs
10004028 l     O .bss	00000003 ucSlaveAddresses
1000402c l     O .bss	00000003 xDataDirection
00000000 l    df *ABS*	00000000 FreeRTOS_lpc17xx_ssp.c
00008ae0 l     F .text	00000030 NVIC_EnableIRQ
00008b10 l     F .text	00000034 NVIC_DisableIRQ
00008b44 l     F .text	00000054 NVIC_SetPriority
00008b98 l     F .text	0000003a Chip_IOCON_DisableOD
00008bd4 l     F .text	0000001e Chip_SSP_Enable
00008bf4 l     F .text	0000001e Chip_SSP_Disable
00008c14 l     F .text	0000001e Chip_SSP_Int_Enable
00008c34 l     F .text	0000001e Chip_SSP_Int_Disable
00008c54 l     F .text	00000030 Chip_SSP_SetFormat
00008c84 l     F .text	00000024 Chip_SSP_Set_Mode
10004030 l     O .bss	00000008 pxTxTransferControlStructs
10004038 l     O .bss	00000008 pxRxTransferControlStructs
10004040 l     O .bss	00000008 ulReceiveActive
0000e650 l     O .text	00000002 xIRQ
00000000 l    df *ABS*	00000000 FreeRTOS_lpc17xx_uart.c
0000921c l     F .text	00000030 NVIC_EnableIRQ
0000924c l     F .text	00000034 NVIC_DisableIRQ
00009280 l     F .text	00000054 NVIC_SetPriority
000092d4 l     F .text	0000003a Chip_IOCON_DisableOD
00009310 l     F .text	00000020 Chip_UART_IntEnable
00009330 l     F .text	00000022 Chip_UART_IntDisable
00009354 l     F .text	00000016 Chip_UART_ReadIntIDReg
0000936c l     F .text	0000001a Chip_UART_SetupFIFOS
00009388 l     F .text	0000001a Chip_UART_ConfigData
10004048 l     O .bss	00000010 pxTxTransferControlStructs
10004058 l     O .bss	00000010 pxRxTransferControlStructs
0000e654 l     O .text	00000004 xIRQ
000098dc l     F .text	00000054 prvFillFifoFromBuffer
00000000 l    df *ABS*	00000000 FreeRTOS_DriverInterface.c
0000e680 l     O .text	0000003c xAvailablePeripherals
00000000 l    df *ABS*	00000000 FreeRTOS_IOUtils.c
00000000 l    df *ABS*	00000000 IOUtils_CharQueueTxAndRx.c
00000000 l    df *ABS*	00000000 IOUtils_CircularBufferRx.c
00000000 l    df *ABS*	00000000 IOUtils_ZeroCopyTx.c
00000000 l    df *ABS*	00000000 EEPROM_Write_Faullt.c
0000a958 l     F .text	00000030 NVIC_EnableIRQ
0000a988 l     F .text	00000034 NVIC_DisableIRQ
0000a9bc l     F .text	00000028 NVIC_SystemReset
0000a9e4 l     F .text	00000068 Chip_GPIO_SetPinState
0000aa4c l     F .text	00000038 Chip_GPIO_SetPinDIROutput
0000aa84 l     F .text	0000003a Chip_GPIO_SetPinDIRInput
0000aac0 l     F .text	00000042 Chip_GPIO_SetPinDIR
0000ab04 l     F .text	00000034 Chip_GPIO_SetDir
10004068 l     O .bss	00000004 mode_poll
1000406c l     O .bss	00000001 i2cDev
0000ab38 l     F .text	00000032 i2c_state_handling
0000ab6c l     F .text	00000084 i2c_set_mode
0000abf0 l     F .text	0000003a i2c_app_init
10004070 l     O .bss	00000018 xfer.7590
0000e7c4 l       .after_vectors	00000000 handler2_address_const
00000000 l    df *ABS*	00000000 Control_Task.c
10004200 l     O .bss	00000200 xRegTestStack
10004c5c l     O .data	0000003c xRegControlTaskParameters
0000afe0 l     F .text	000000d0 prvMyControlTask
00000000 l    df *ABS*	00000000 Brake.c
0000b0b0 l     F .text	00000038 Chip_GPIO_GetPinState
0000b0e8 l     F .text	00000026 Chip_GPIO_ReadPortBit
0000b110 l     F .text	00000038 Chip_GPIO_SetPinDIROutput
0000b148 l     F .text	0000003a Chip_GPIO_SetPinDIRInput
0000b184 l     F .text	00000042 Chip_GPIO_SetPinDIR
10004400 l     O .bss	00000200 xRegTestStack
10004c98 l     O .data	0000003c xRegBreakTaskParameters
0000b210 l     F .text	0000005c prvMyBrakeTask
00000000 l    df *ABS*	00000000 Accelerate.c
0000b26c l     F .text	00000038 Chip_GPIO_GetPinState
0000b2a4 l     F .text	00000026 Chip_GPIO_ReadPortBit
0000b2cc l     F .text	00000038 Chip_GPIO_SetPinDIROutput
0000b304 l     F .text	0000003a Chip_GPIO_SetPinDIRInput
0000b340 l     F .text	00000042 Chip_GPIO_SetPinDIR
10004600 l     O .bss	00000200 xRegTestStack
10004cd4 l     O .data	0000003c xRegAccelerationTaskParameters
0000b3cc l     F .text	0000005c prvMyAccelerationTask
00000000 l    df *ABS*	00000000 Display.c
10004800 l     O .bss	00000200 xRegTestStack
10004d10 l     O .data	0000003c xRegDisplayTaskParameters
0000b478 l     F .text	000000b8 prvMyDisplayTask
00000000 l    df *ABS*	00000000 main.c
0000b588 l     F .text	00000048 NVIC_SetPriorityGrouping
0000b5d0 l     F .text	00000054 NVIC_SetPriority
10004a04 l     O .bss	00000004 ulClocksPer10thOfAMilliSecond
00000000 l    df *ABS*	00000000 printf-stdarg.c
0000b750 l     F .text	0000002e printchar
0000b780 l     F .text	000000b0 prints
0000b830 l     F .text	000000d8 printi
0000b908 l     F .text	000001c4 print
00000000 l    df *ABS*	00000000 sysinit.c
00000000 l    df *ABS*	00000000 board.c
0000bb1c l     F .text	00000016 Chip_IOCON_Init
0000bb34 l     F .text	00000038 Chip_IOCON_EnableOD
0000bb6c l     F .text	0000001c Chip_IOCON_SetI2CPad
0000bb88 l     F .text	00000016 Chip_GPIO_Init
0000bba0 l     F .text	00000068 Chip_GPIO_SetPinState
0000bc08 l     F .text	0000002c Chip_GPIO_WritePortBit
0000bc34 l     F .text	00000038 Chip_GPIO_SetPinDIROutput
0000bc6c l     F .text	0000003a Chip_GPIO_SetPinDIRInput
0000bca8 l     F .text	00000042 Chip_GPIO_SetPinDIR
0000bcec l     F .text	0000002e Chip_GPIO_WriteDirBit
0000bd1c l     F .text	0000001c Chip_UART_SendByte
0000bd38 l     F .text	00000016 Chip_UART_ReadLineStatus
0000bd88 l     F .text	00000018 Board_LED_Init
0000e724 l     O .text	00000004 pinLCDCTRL
0000e728 l     O .text	00000004 pinLCDDATA
0000bdd4 l     F .text	000000cc Board_LCD_Send_Nibble
0000bfcc l     F .text	00000044 Board_lcd_Send_Cmd_Signals
0000bf88 l     F .text	00000044 Board_lcd_Send_Data_Signals
00000000 l    df *ABS*	00000000 board_sysinit.c
0000c18c l     F .text	00000030 Chip_SYSCTL_SetFLASHAccess
0000e72c l     O .text	0000005c pinmuxing
00000000 l    df *ABS*	00000000 chip_17xx_40xx.c
00000000 l    df *ABS*	00000000 clock_17xx_40xx.c
0000c214 l     F .text	00000024 Chip_Clock_IsMainPLLEnabled
0000c238 l     F .text	00000024 Chip_Clock_IsMainPLLConnected
0000c25c l     F .text	00000034 Chip_Clock_FeedPLL
0000c290 l     F .text	00000020 Chip_Clock_GetMainPLLSource
0000c2b0 l     F .text	00000014 Chip_Clock_GetMainOscRate
0000c2c4 l     F .text	00000014 Chip_Clock_GetIntOscRate
0000c2d8 l     F .text	00000014 Chip_Clock_GetRTCOscRate
0000c2ec l     F .text	0000000e Chip_Clock_GetMainPLLInClockRate
00000000 l    df *ABS*	00000000 i2c_17xx_40xx.c
0000e788 l     O .text	00000003 I2C_PeriphClk
10004d4c l     O .data	00000054 i2c
10004a08 l     O .bss	00000078 i2c_slave
0000c628 l     F .text	00000030 enableClk
0000c658 l     F .text	00000024 getClkRate
0000c67c l     F .text	0000001e startMasterXfer
0000c69c l     F .text	0000001e startSlaverXfer
0000c6bc l     F .text	00000024 isI2CBusFree
0000c6e0 l     F .text	0000001a getCurState
0000c6fc l     F .text	00000022 isMasterState
0000c720 l     F .text	0000003e isSlaveAddrMatching
0000c760 l     F .text	0000009c lookupSlaveIndex
00000000 l    df *ABS*	00000000 iocon_17xx_40xx.c
00000000 l    df *ABS*	00000000 ssp_17xx_40xx.c
0000d2c0 l     F .text	0000001e Chip_SSP_Disable
0000d2e0 l     F .text	00000028 Chip_SSP_GetStatus
0000d308 l     F .text	00000028 Chip_SSP_GetRawIntStatus
0000d330 l     F .text	0000001e Chip_SSP_GetDataSize
0000d350 l     F .text	0000001c Chip_SSP_ClearIntPending
0000d36c l     F .text	00000018 Chip_SSP_ReceiveFrame
0000d384 l     F .text	0000001c Chip_SSP_SendFrame
0000d3a0 l     F .text	00000030 Chip_SSP_SetFormat
0000d3d0 l     F .text	00000024 Chip_SSP_Set_Mode
0000d3f4 l     F .text	00000046 SSP_Write2BFifo
0000d43c l     F .text	00000046 SSP_Write1BFifo
0000d484 l     F .text	0000005c SSP_Read2BFifo
0000d4e0 l     F .text	0000005c SSP_Read1BFifo
0000d53c l     F .text	0000002c Chip_SSP_GetClockIndex
0000d568 l     F .text	0000002c Chip_SSP_GetClkIndex
00000000 l    df *ABS*	00000000 sysinit_17xx_40xx.c
0000d7f4 l     F .text	00000024 Chip_Clock_IsMainPLLEnabled
0000d818 l     F .text	00000024 Chip_Clock_IsMainPLLLocked
0000d83c l     F .text	00000024 Chip_Clock_IsMainPLLConnected
0000d860 l     F .text	00000020 Chip_Clock_EnableCrystal
0000d880 l     F .text	00000024 Chip_Clock_IsCrystalEnabled
0000d8a4 l     F .text	00000020 Chip_Clock_SetMainPLLSource
00000000 l    df *ABS*	00000000 uart_17xx_40xx.c
0000d954 l     F .text	0000001c Chip_UART_SendByte
0000d970 l     F .text	00000018 Chip_UART_ReadByte
0000d988 l     F .text	0000001a Chip_UART_SetupFIFOS
0000d9a4 l     F .text	0000001a Chip_UART_ConfigData
0000d9c0 l     F .text	0000001e Chip_UART_EnableDivisorAccess
0000d9e0 l     F .text	0000001e Chip_UART_DisableDivisorAccess
0000da00 l     F .text	00000026 Chip_UART_SetDivisorLatches
0000da28 l     F .text	00000016 Chip_UART_ReadLineStatus
0000da40 l     F .text	00000050 Chip_UART_GetClockIndex
0000da90 l     F .text	00000050 Chip_UART_GetClkIndex
00000000 l    df *ABS*	00000000 _cr__main.c
00000000 l    df *ABS*	00000000 memcpy.c
00000000 l    df *ABS*	00000000 memset.c
00000000 l    df *ABS*	00000000 initio.c
00000000 l    df *ABS*	00000000 setvbuf.c
00000000 l    df *ABS*	00000000 strcmp.c
00000000 l    df *ABS*	00000000 strcpy.c
00000000 l    df *ABS*	00000000 strlen.c
00000000 l    df *ABS*	00000000 _deferredlazyseek.c
00000000 l    df *ABS*	00000000 _fdopen.c
00000000 l    df *ABS*	00000000 _fflush.c
00000000 l    df *ABS*	00000000 _writebuf.c
00000000 l    df *ABS*	00000000 alloc.c
00000000 l    df *ABS*	00000000 fclose.c
00000000 l    df *ABS*	00000000 fflush.c
00000000 l    df *ABS*	00000000 fseek.c
00000000 l    df *ABS*	00000000 ftell.c
00000000 l    df *ABS*	00000000 remove.c
00000000 l    df *ABS*	00000000 _cr_sbrk.c
00000000 l    df *ABS*	00000000 _do_fflush.c
00000000 l    df *ABS*	00000000 _cr_check_heap.c
00000000 l    df *ABS*	00000000 memcpy.o
0000e424 l       .text	00000000 copy1
0000e40e l       .text	00000000 copy4
0000e45a l       .text	00000000 memset1a
0000e448 l       .text	00000000 __bhs_memset4
0000e44a l       .text	00000000 memset4
0000e456 l       .text	00000000 memset1
00000000 l    df *ABS*	00000000 __sys_appexit.o
00000000 l    df *ABS*	00000000 __sys_close.o
00000000 l    df *ABS*	00000000 __sys_flen.o
00000000 l    df *ABS*	00000000 __sys_istty.o
00000000 l    df *ABS*	00000000 __sys_remove.o
00000000 l    df *ABS*	00000000 __sys_seek.o
00000000 l    df *ABS*	00000000 __sys_tmpnam.o
00000000 l    df *ABS*	00000000 
00000000 l       *UND*	00000000 FreeRTOS_CLIGetOutputBuffer
00000000 l       *UND*	00000000 xTaskIsTaskSuspended
00000000 l       *UND*	00000000 FreeRTOS_CLIProcessCommand
00000000 l       *UND*	00000000 FreeRTOS_CLIGetParameter
00000000 l       *UND*	00000000 xGlobalQueue_UART
00000000 l       *UND*	00000000 FreeRTOS_CLIRegisterCommand
0000e720 g     O .text	00000004 RTCOscRateIn
0000de44 g     F .text	00000042 strcpy
0000dd00 g     F .text	00000014 __main
0000e900  w    F .after_vectors	00000006 TIMER2_IRQHandler
0000e8e8  w    F .after_vectors	00000006 DebugMon_Handler
0000e900  w    F .after_vectors	00000006 RIT_IRQHandler
000027a4 g     F privileged_functions	00000094 vTaskPlaceOnUnorderedEventList
0000ded0 g     F .text	00000044 _deferredlazyseek
00000270 g     F privileged_functions	00000014 xPortGetFreeHeapSize
00001fd8 g     F privileged_functions	000000e4 vTaskGetRunTimeStats
0000e468 g     F .text	00000000 __exit
00007df4 g     F .text	00000058 vPortExitCritical
000017a8 g     F privileged_functions	00000034 uxTaskPriorityGet
000034e8 g     F privileged_functions	0000006e xTimerCreate
0000ac3c g     F .text	0000000e I2C0_IRQHandler
0000e4b0 g     F .text	00000000 __sys_tmpnam
0000dbd8 g     F .text	00000024 Chip_UART_CheckBusy
00000000 g       privileged_functions	00000000 __FLASH_segment_start__
0000e854  w    F .after_vectors	0000001e HardFault_Handler
000011f4 g     F privileged_functions	0000005c vQueueWaitForMessageRestricted
0000c7fc g     F .text	00000284 handleMasterXferState
0000a3f0 g     F .text	000000c0 xIOUtilsConfigureTransferQueue
0000a524 g     F .text	00000068 xIOUtilsWaitTxQueueEmpty
10004c0c g     O .bss	00000004 xGlobalDispQueue
00000664 g     F privileged_functions	00000028 SysTick_Handler
0000dc9c g     F .text	00000062 Chip_UART_SetBaud
00007ee4 g     F .text	0000002e MPU_xTaskGetTickCount
0000e900  w    F .after_vectors	00000006 USBActivity_IRQHandler
00009754 g     F .text	00000186 FreeRTOS_UART_read
0000e900  w    F .after_vectors	00000006 PWM1_IRQHandler
000085d0 g     F .text	0000007c xIOUtilsTxCharsFromTNCircularBufferFromISR
0000a81c g     F .text	0000009e xIOUtilsConfigureZeroCopyTx
0000060c g     F privileged_functions	00000056 PendSV_Handler
00000c00 g     F privileged_functions	000000e4 xQueueGenericSendFromISR
0000e84c  w    F .after_vectors	00000006 NMI_Handler
0000c5e8 g     F .text	00000018 Chip_Clock_GetSystemClockRate
0000e908 g       .after_vectors	00000000 __exidx_end
0000ac2c g     F .text	0000000e I2C1_IRQHandler
0000813c g     F .text	00000036 MPU_FreeRTOS_open
0000e900  w    F .after_vectors	00000006 EINT2_IRQHandler
0000e900  w    F .after_vectors	00000006 UART1_IRQHandler
0000c2fc g     F .text	00000044 Chip_Clock_EnablePLL
00001064 g     F privileged_functions	0000005c xQueueGiveMutexRecursive
00007eb4 g     F .text	0000002e MPU_vTaskDelay
10000050 g     O privileged_data	00000004 pxCurrentTCB
0000e900  w    F .after_vectors	00000006 EINT3_IRQHandler
0000cfb0 g     F .text	00000058 Chip_I2C_MasterSend
0000e900  w    F .after_vectors	00000006 CANActivity_IRQHandler
0000cf14 g     F .text	0000009c Chip_I2C_MasterTransfer
10004bc4 g     O .bss	00000004 errno
0000c4ac g     F .text	0000008c Chip_Clock_GetPCLKDiv
0000e908 g       .after_vectors	00000000 _etext
10004a80 g     O .bss	00000004 _extra
00001820 g     F privileged_functions	00000130 vTaskPrioritySet
0000bee0 g     F .text	00000040 Board_Lcd_Cmd_Write
0000dd00  w    F .text	00000014 __CR_SEMIHOST
10000100 g       privileged_functions	00000000 __privileged_data_end__
0000e900  w    F .after_vectors	00000006 TIMER3_IRQHandler
10000400 g     O .bss	00000004 xInfotainmentTask
00009cfc g     F .text	000002e4 UART0_IRQHandler
0000e814 g     F .after_vectors	00000036 bss_init
000002ec g     F privileged_functions	0000003c xPortStartScheduler
00001c08 g     F privileged_functions	00000020 vTaskEndScheduler
0000dd14 g     F .text	00000004 memcpy
00002734 g     F privileged_functions	00000070 vTaskPlaceOnEventList
00002e50 g     F privileged_functions	000001b0 xTaskGenericCreate
0000ddc0 g     F .text	00000040 setvbuf
00008174 g     F .text	0000003a MPU_FreeRTOS_ioctl
0000d038 g     F .text	00000060 Chip_I2C_MasterStateHandler
000008f8 g     F privileged_functions	00000096 xQueuePeekFromISR
0000c388 g     F .text	0000005c Chip_Clock_SetupPLL
00008000 g     F .text	0000003e MPU_xQueueGenericReceive
10008000 g       *ABS*	00000000 __SRAM_segment_end__
000001f0 g     F privileged_functions	00000074 vPortFree
10004c14 g     O .bss	00000004 SystemCoreClock
0000d7d0 g     F .text	00000024 Chip_SSP_DeInit
0000dae0 g     F .text	00000078 Chip_UART_Init
00001328 g     F privileged_functions	00000016 uxQueueGetQueueNumber
0000e040 g     F .text	000000c8 malloc
0000e350 g     F .text	00000014 remove
00001dac g     F privileged_functions	00000038 uxTaskGetStackHighWaterMark
0000e8bc  w    F .after_vectors	00000024 UsageFault_Handler
00000fd0 g     F privileged_functions	0000002e xQueueGetMutexHolder
0000d1c8 g     F .text	00000092 Chip_IOCON_PinMux
00008244 g     F .text	00000046 vListInsertEnd
0000e400 g     F .text	0000000a __aeabi_memcpy
00009fe0 g     F .text	00000108 FreeRTOS_open
0000c1d8 g     F .text	00000012 Board_SetupClocking
0000e480 g     F .text	00000000 __sys_flen
00000100 g       *ABS*	00000000 _Privileged_Data_Region_Size
0000cecc g     F .text	00000048 Chip_I2C_SetMasterEventHandler
0000e900  w    F .after_vectors	00000006 IntDefaultHandler
00008f14 g     F .text	000000a0 FreeRTOS_SSP_read
000094a8 g     F .text	000002ac FreeRTOS_UART_write
00001abc g     F privileged_functions	000000c0 xTaskResumeFromISR
000083f4 g     F .text	000000dc xIOUtilsConfigureTaskNotificationBasedRx
0000822c g     F .text	00000018 vListInitialiseItem
00000000  w      *UND*	00000000 _pvHeapLimit
0000e900  w    F .after_vectors	00000006 PLL0_IRQHandler
0000e900  w    F .after_vectors	00000006 CAN_IRQHandler
10000000 g     O privileged_data	00000050 xQueueRegistry
0000e1c4 g     F .text	00000030 fflush
0000cacc g     F .text	000002b6 handleSlaveXferState
0000e900  w    F .after_vectors	00000006 PLL1_IRQHandler
000017dc g     F privileged_functions	00000044 uxTaskPriorityGetFromISR
00008980 g     F .text	000000e4 FreeRTOS_I2C_read
10000000 g       privileged_functions	00000000 __SRAM_segment_start__
0000ae58 g     F .text	00000140 pop_registers_from_fault_stack
0000e900  w    F .after_vectors	00000006 SSP0_IRQHandler
0000e908 g       .after_vectors	00000000 __exidx_start
00007f14 g     F .text	0000003e MPU_xQueueGenericCreate
0000e40a g     F .text	0000002a __aeabi_memcpy4
0000df14 g     F .text	0000006a _fdopen
0000e434 g     F .text	00000032 __aeabi_lowlevel_memset
10008000 g       privileged_functions	00000000 _vRamTop
0000a918 g     F .text	0000003e xIOUtilsReleaseZeroCopyWriteMutex
0000e364 g     F .text	00000040 _sbrk
000000cc g     F privileged_functions	00000124 pvPortMalloc
0000c538 g     F .text	00000034 Chip_Clock_GetSYSCLKRate
0000bf60 g     F .text	00000028 Board_LCD_Write_String
0000c0b0 g     F .text	00000020 Board_Init
0000e900  w    F .after_vectors	00000006 I2S_IRQHandler
00000bd0 g     F privileged_functions	00000030 vQueueDelete
00000328 g     F privileged_functions	00000024 vPortEndScheduler
0000e900  w    F .after_vectors	00000006 I2C2_IRQHandler
000081ec g     F .text	0000003e vListInitialise
0000d5c8 g     F .text	00000106 Chip_SSP_RWFrames_Blocking
00001d5c g     F privileged_functions	0000001c xTaskGetTickCount
00000750 g     F privileged_functions	000001a8 xQueueGenericSend
00001570 g     F privileged_functions	00000034 vTaskAllocateMPURegions
0000e900  w    F .after_vectors	00000006 RTC_IRQHandler
10004c18 g       .bss	00000000 _ebss
0000e900  w    F .after_vectors	00000006 TIMER0_IRQHandler
0000c5c0 g     F .text	00000028 Chip_Clock_GetMainClockRate
0000e900  w    F .after_vectors	00000006 SPI_IRQHandler
000093a4 g     F .text	00000104 FreeRTOS_UART_open
0000a7f4 g     F .text	00000026 vIOUtilsSetCircularBufferTimeout
0000ce64 g     F .text	00000068 Chip_I2C_SetClockRate
00001de4 g     F privileged_functions	000000f8 uxTaskGetSystemState
0000d6d0 g     F .text	0000004c Chip_SSP_Int_FlushData
00002d8c g     F privileged_functions	000000c4 xTaskPriorityDisinherit
00004000 g       *ABS*	00000000 __privileged_functions_end__
000086e0 g     F .text	000001a8 FreeRTOS_I2C_open
000084d0 g     F .text	00000100 xIOUtilsReadCharsFromTNBasedCircularBuffer
000028a8 g     F privileged_functions	000000bc xTaskRemoveFromEventList
0000b740 g     F .text	0000000e vApplicationMallocFailedHook
0000e7d0 g     F .after_vectors	00000042 data_init
0000e40a g     F .text	0000002a __aeabi_memcpy8
0000a3a0 g     F .text	00000026 xIOUtilsSetTxQueueTimeout
00007fcc g     F .text	00000032 MPU_uxQueueMessagesWaiting
0000e900  w    F .after_vectors	00000006 EINT1_IRQHandler
0000e900  w    F .after_vectors	00000006 TIMER1_IRQHandler
0000ce30 g     F .text	00000034 Chip_I2C_Init
0000d190 g     F .text	00000036 Chip_IOCON_PinMuxSet
10004da0 g       .data	00000000 end
000015a4 g     F privileged_functions	000000bc vTaskDelete
0000e900  w    F .after_vectors	00000006 UART2_IRQHandler
00001110 g     F privileged_functions	00000044 vQueueUnregisterQueue
0000e1f4 g     F .text	00000110 fseek
0000ca80 g     F .text	0000004a getSlaveIndex
00003050 g     F privileged_functions	00000028 pvTaskIncrementMutexHeldCount
0000d594 g     F .text	00000034 Chip_SSP_SetClockRate
0000df7e g     F .text	00000058 _fflush
00002bd4 g     F privileged_functions	000000a8 xTaskCheckForTimeOut
0000ac4c g     F .text	000001d0 test
10000000 g       privileged_data	00000000 _bss
00002504 g     F privileged_functions	000000bc ulTaskNotifyTake
0000c3e4 g     F .text	00000034 Chip_Clock_EnablePeriphClock
00001c28 g     F privileged_functions	0000001c vTaskSuspendAll
10000404 g     O .bss	00000004 xConsoleUART1
00001d78 g     F privileged_functions	00000020 xTaskGetTickCountFromISR
00008a64 g     F .text	0000007c FreeRTOS_I2C_ioctl
0000d71c g     F .text	00000074 Chip_SSP_SetBitRate
000082fc g     F .text	00000052 uxListRemove
0000e900  w    F .after_vectors	00000006 ADC_IRQHandler
0000e71c g     O .text	00000004 OscRateIn
0000c0d0 g     F .text	000000bc Board_I2C_Init
00007f8c g     F .text	0000003e MPU_xQueueGenericSend
00002cd0 g     F privileged_functions	000000bc vTaskPriorityInherit
10007ff0 g       *ABS*	00000000 _vStackTop
00001a14 g     F privileged_functions	000000a8 vTaskResume
00008fb4 g     F .text	00000150 FreeRTOS_SSP_ioctl
00002a1c g     F privileged_functions	00000130 vTaskSwitchContext
00009104 g     F .text	00000118 SSP1_IRQHandler
0000a6f4 g     F .text	00000100 xIOUtilsReadCharsFromCircularBuffer
00002838 g     F privileged_functions	00000070 vTaskPlaceOnEventListRestricted
0000d008 g     F .text	00000030 Chip_I2C_IsMasterActive
0000e3e8 g     F .text	00000018 __check_heap_overflow
000080a8 g     F .text	0000002e MPU_vQueueDelete
00002338 g     F privileged_functions	000000e0 xTaskNotifyWait
0000c418 g     F .text	00000034 Chip_Clock_DisablePeriphClock
0000e900  w    F .after_vectors	00000006 USB_IRQHandler
0000368c g     F privileged_functions	00000090 xTimerGenericCommand
0000302c g     F privileged_functions	00000024 vTaskSetTaskNumber
0000b72c g     F .text	00000014 vApplicationStackOverflowHook
00001950 g     F privileged_functions	000000c4 vTaskSuspend
00001d98 g     F privileged_functions	00000014 uxTaskGetNumberOfTasks
00008ca8 g     F .text	000001b8 FreeRTOS_SSP_open
0000e900  w    F .after_vectors	00000006 BOD_IRQHandler
0000db70 g     F .text	00000018 Chip_UART_TXDisable
0000bda0 g     F .text	00000034 Board_UARTPutChar
00001000 g     F privileged_functions	00000064 xQueueTakeMutexRecursive
0000d158 g     F .text	00000038 Chip_I2C_IsStateChanged
0000db88 g     F .text	00000050 Chip_UART_Send
00004000 g       *ABS*	00000000 _Privileged_Functions_Region_Size
000020bc g     F privileged_functions	00000128 xTaskGenericNotify
0000b698 g     F .text	00000018 vMainConfigureTimerForRunTimeStats
0000bd50 g     F .text	00000038 __sys_write
00001edc g     F privileged_functions	000000fc vTaskList
0000dd18 g     F .text	00000004 memset
00003000 g     F privileged_functions	0000002a uxTaskGetTaskNumber
0000e7a8 g     F .after_vectors	00000028 MemManage_Handler
0000a2c8 g     F .text	000000d6 vIOUtilsCreateTransferControlStructure
0000b624 g     F .text	00000074 main
0000bea0 g     F .text	00000040 delay_ms
0000dc48 g     F .text	00000052 Chip_UART_Read
0000e3a4 g     F .text	00000044 _do_fflush
0000e304 g     F .text	0000004c ftell
00008040 g     F .text	00000030 MPU_xQueueCreateMutex
0000e900  w    F .after_vectors	00000006 WDT_IRQHandler
0000828c g     F .text	00000070 vListInsert
0000068c g     F privileged_functions	00000012 SVC_Handler
0000e158 g     F .text	0000006c fclose
0000362c g     F privileged_functions	00000060 xTimerCreateTimerTask
0000d8c4 g     F .text	00000090 Chip_SetupXtalClocking
00001340 g     F privileged_functions	00000018 ucQueueGetQueueType
00003600 g     F privileged_functions	0000002a pcTimerGetTimerName
000016d0 g     F privileged_functions	000000d8 vTaskDelayUntil
00000d8c g     F privileged_functions	000000be xQueueReceiveFromISR
0000e4a4 g     F .text	00000000 __sys_seek
00002b7c g     F privileged_functions	0000001c xTaskGetCurrentTaskHandle
00001154 g     F privileged_functions	0000009e xQueueGenericCreate
0000de00 g     F .text	00000044 strcmp
00000f70 g     F privileged_functions	0000005e xQueueCreateCountingSemaphore
0000baf8 g     F .text	00000024 SystemInit
0000ae1c g     F .text	0000003c delay
000021e4 g     F privileged_functions	00000154 xTaskGenericNotifyFromISR
0000e900  w    F .after_vectors	00000006 QEI_IRQHandler
0000130c g     F privileged_functions	0000001a vQueueSetQueueNumber
00002964 g     F privileged_functions	000000b8 xTaskRemoveFromUnorderedEventList
00008e60 g     F .text	000000b4 FreeRTOS_SSP_write
00001c44 g     F privileged_functions	00000118 xTaskResumeAll
0000e474 g     F .text	00000000 __sys_close
0000dbfc g     F .text	0000004a Chip_UART_SendBlocking
00000b94 g     F privileged_functions	0000003a uxQueueSpacesAvailable
0000bacc g     F .text	0000002c sprintf
00001b7c g     F privileged_functions	0000008c vTaskStartScheduler
0000c1bc g     F .text	0000001c Board_SetupMuxing
0000a3c8 g     F .text	00000026 vIOUtilsSetRxQueueTimeout
0000c010 g     F .text	000000a0 Board_LCD_Init
00000e84 g     F privileged_functions	0000003a xQueueIsQueueFullFromISR
00009930 g     F .text	000000e8 FreeRTOS_UART_ioctl
00003558 g     F privileged_functions	00000034 pvTimerGetTimerID
0000e900  w    F .after_vectors	00000006 EINT0_IRQHandler
0000e900  w    F .after_vectors	00000006 ETH_IRQHandler
0000af98 g     F .text	00000048 vMyControlTaskStart
0000dfd8 g     F .text	00000068 _Cwritebuf
0000c490 g     F .text	0000001c Chip_Clock_GetCPUClockDiv
00080000 g       *ABS*	00000000 __FLASH_segment_end__
10004c18 g       .data	00000000 _data
00002c7c g     F privileged_functions	00000018 vTaskMissedYield
10004da0 g       .data	00000000 _pvHeapStart
0000d790 g     F .text	00000040 Chip_SSP_Init
0000d25c g     F .text	00000062 Chip_IOCON_SetPinMuxing
0000cdd0 g     F .text	00000060 Chip_I2C_EventHandlerPolling
00000990 g     F privileged_functions	000001d4 xQueueGenericReceive
00000b64 g     F privileged_functions	00000030 uxQueueMessagesWaiting
000010c0 g     F privileged_functions	00000050 vQueueAddToRegistry
0000b384 g     F .text	00000048 vMyAccelerationTaskStart
000025c0 g     F privileged_functions	00000174 xTaskIncrementTick
0000b1c8 g     F .text	00000048 vMyBrakeTaskStart
0000e498 g     F .text	00000000 __sys_remove
00001250 g     F privileged_functions	000000bc xQueueGenericReset
0000358c g     F privileged_functions	00000034 vTimerSetTimerID
10004da0 g       .data	00000000 _edata
0000a4b0 g     F .text	00000074 xIOUtilsReceiveCharsFromRxQueue
0000cd84 g     F .text	0000004c Chip_I2C_EventHandler
10004c10 g     O .bss	00000004 xGlobalQueue
00007b98 g     F .text	0000004c vMyInfotainmentTaskStart
00000264 g     F privileged_functions	0000000c vPortInitialiseBlocks
000035c0 g     F privileged_functions	0000003e xTimerIsTimerActive
10004bc8 g     O .bss	00000004 __heaps
0000e468 g     F .text	00000000 __sys_appexit
0000a58c g     F .text	00000034 xIOUtilsClearRxCharQueue
00000000 g     O privileged_functions	000000cc g_pfnVectors
0000b530 g     F .text	00000050 ResetISR
0000c1fc g     F .text	00000018 SystemCoreClockUpdate
0000a0e8 g     F .text	000001e0 FreeRTOS_ioctl
10004bcc g     O .bss	00000004 __end_of_heap
0000e900  w    F .after_vectors	00000006 DMA_IRQHandler
0000bf20 g     F .text	00000040 Board_Lcd_Data_Write
00001660 g     F privileged_functions	00000070 vTaskDelay
0000e138 g     F .text	00000020 _Csys_alloc
0000db58 g     F .text	00000018 Chip_UART_TXEnable
0000a8bc g     F .text	0000005c xIOUtilsGetZeroCopyWriteMutex
0000b6b0 g     F .text	0000007c ulMainGetRunTimeCounterValue
00002c94 g     F privileged_functions	0000003c xTaskGetSchedulerState
0000a5c0 g     F .text	000000f4 xIOUtilsConfigureCircularBufferRx
10004a00 g     O .bss	00000004 xLCDTask
0000c340 g     F .text	00000048 Chip_Clock_DisablePLL
00007f54 g     F .text	00000036 MPU_xQueueGenericReset
00008070 g     F .text	00000036 MPU_xQueueCreateCountingSemaphore
0000c56c g     F .text	00000054 Chip_Clock_GetMainPLLOutClockRate
0000e898  w    F .after_vectors	00000024 BusFault_Handler
0000b428 g     F .text	00000050 vMyDisplayStart
0000de86 g     F .text	0000004a strlen
00000284 g     F privileged_functions	00000066 pxPortInitialiseStack
00009a18 g     F .text	000002e4 UART3_IRQHandler
0000e900  w    F .after_vectors	00000006 MCPWM_IRQHandler
10000000 g       privileged_functions	00000000 __privileged_data_start__
00002b98 g     F privileged_functions	0000003c vTaskSetTimeOutState
000080d8 g     F .text	00000032 MPU_pvPortMalloc
00007db8 g     F .text	0000003c vPortEnterCritical
0000c44c g     F .text	00000024 Chip_Clock_GetCPUClockSource
0000a6b4 g     F .text	0000003e vIOUtilsClearRxCircularBuffer
00000ec0 g     F privileged_functions	0000002a uxQueueMessagesWaitingFromISR
0000864c g     F .text	00000058 vFreeRTOS_lpc17xx_PopulateFunctionPointers
00000e4c g     F privileged_functions	00000036 xQueueIsQueueEmptyFromISR
000081b0 g     F .text	0000003c MPU_FreeRTOS_write
0000dd1c g     F .text	000000a4 _initio
00007e64 g     F .text	00000050 MPU_xTaskGenericCreate
0000034c g     F privileged_functions	0000017c vPortStoreTaskMPUSettings
0000d098 g     F .text	000000c0 Chip_I2C_SlaveStateHandler
10004a84 g     O .bss	00000140 __Ciob
00008888 g     F .text	000000f8 FreeRTOS_I2C_write
00002b4c g     F privileged_functions	00000030 uxTaskResetEventItemValue
0000e48c g     F .text	00000000 __sys_istty
00000eec g     F privileged_functions	00000084 xQueueCreateMutex
0000810c g     F .text	0000002e MPU_vPortFree
00000000 g       privileged_functions	00000000 __privileged_functions_start__
10004bd0 g     O .bss	0000003c buffer_data
00002418 g     F privileged_functions	000000ec vTaskNotifyGiveFromISR
00000ce4 g     F privileged_functions	000000a8 xQueueGiveFromISR
0000e108 g     F .text	00000030 free
0000c1ec g     F .text	00000010 Board_SystemInit
0000c470 g     F .text	00000020 Chip_Clock_SetCPUClockDiv
0000c600 g     F .text	00000026 Chip_Clock_GetPeripheralClockRate



Disassembly of section privileged_functions:

00000000 <__FLASH_segment_start__>:
       0:	10007ff0 	.word	0x10007ff0
       4:	0000b531 	.word	0x0000b531
       8:	0000e84d 	.word	0x0000e84d
       c:	0000e855 	.word	0x0000e855
      10:	0000e7a9 	.word	0x0000e7a9
      14:	0000e899 	.word	0x0000e899
      18:	0000e8bd 	.word	0x0000e8bd
	...
      2c:	0000068d 	.word	0x0000068d
      30:	0000e8e9 	.word	0x0000e8e9
      34:	00000000 	.word	0x00000000
      38:	0000060d 	.word	0x0000060d
      3c:	00000665 	.word	0x00000665
      40:	0000e901 	.word	0x0000e901
      44:	0000e901 	.word	0x0000e901
      48:	0000e901 	.word	0x0000e901
      4c:	0000e901 	.word	0x0000e901
      50:	0000e901 	.word	0x0000e901
      54:	00009cfd 	.word	0x00009cfd
      58:	0000e901 	.word	0x0000e901
      5c:	0000e901 	.word	0x0000e901
      60:	00009a19 	.word	0x00009a19
      64:	0000e901 	.word	0x0000e901
      68:	0000ac3d 	.word	0x0000ac3d
      6c:	0000ac2d 	.word	0x0000ac2d
      70:	0000e901 	.word	0x0000e901
      74:	0000e901 	.word	0x0000e901
      78:	0000e901 	.word	0x0000e901
      7c:	00009105 	.word	0x00009105
      80:	0000e901 	.word	0x0000e901
      84:	0000e901 	.word	0x0000e901
      88:	0000e901 	.word	0x0000e901
      8c:	0000e901 	.word	0x0000e901
      90:	0000e901 	.word	0x0000e901
      94:	0000e901 	.word	0x0000e901
      98:	0000e901 	.word	0x0000e901
      9c:	0000e901 	.word	0x0000e901
      a0:	0000e901 	.word	0x0000e901
      a4:	0000e901 	.word	0x0000e901
      a8:	0000e901 	.word	0x0000e901
      ac:	0000e901 	.word	0x0000e901
      b0:	0000e901 	.word	0x0000e901
      b4:	0000e901 	.word	0x0000e901
      b8:	0000e901 	.word	0x0000e901
      bc:	0000e901 	.word	0x0000e901
      c0:	0000e901 	.word	0x0000e901
      c4:	0000e901 	.word	0x0000e901
      c8:	0000e901 	.word	0x0000e901

000000cc <pvPortMalloc>:
      cc:	b580      	push	{r7, lr}
      ce:	b088      	sub	sp, #32
      d0:	af00      	add	r7, sp, #0
      d2:	6078      	str	r0, [r7, #4]
      d4:	2300      	movs	r3, #0
      d6:	617b      	str	r3, [r7, #20]
      d8:	f001 fda6 	bl	1c28 <vTaskSuspendAll>
      dc:	4b40      	ldr	r3, [pc, #256]	; (1e0 <_Privileged_Data_Region_Size+0xe0>)
      de:	681b      	ldr	r3, [r3, #0]
      e0:	2b00      	cmp	r3, #0
      e2:	d104      	bne.n	ee <pvPortMalloc+0x22>
      e4:	f007 fe40 	bl	7d68 <prvHeapInit>
      e8:	4b3d      	ldr	r3, [pc, #244]	; (1e0 <_Privileged_Data_Region_Size+0xe0>)
      ea:	2201      	movs	r2, #1
      ec:	601a      	str	r2, [r3, #0]
      ee:	687b      	ldr	r3, [r7, #4]
      f0:	2b00      	cmp	r3, #0
      f2:	d00e      	beq.n	112 <_Privileged_Data_Region_Size+0x12>
      f4:	2308      	movs	r3, #8
      f6:	461a      	mov	r2, r3
      f8:	687b      	ldr	r3, [r7, #4]
      fa:	4413      	add	r3, r2
      fc:	607b      	str	r3, [r7, #4]
      fe:	687b      	ldr	r3, [r7, #4]
     100:	f003 0307 	and.w	r3, r3, #7
     104:	2b00      	cmp	r3, #0
     106:	d004      	beq.n	112 <_Privileged_Data_Region_Size+0x12>
     108:	687b      	ldr	r3, [r7, #4]
     10a:	f023 0307 	bic.w	r3, r3, #7
     10e:	3308      	adds	r3, #8
     110:	607b      	str	r3, [r7, #4]
     112:	687b      	ldr	r3, [r7, #4]
     114:	2b00      	cmp	r3, #0
     116:	d057      	beq.n	1c8 <_Privileged_Data_Region_Size+0xc8>
     118:	687b      	ldr	r3, [r7, #4]
     11a:	f643 32f7 	movw	r2, #15351	; 0x3bf7
     11e:	4293      	cmp	r3, r2
     120:	d852      	bhi.n	1c8 <_Privileged_Data_Region_Size+0xc8>
     122:	4b30      	ldr	r3, [pc, #192]	; (1e4 <_Privileged_Data_Region_Size+0xe4>)
     124:	61bb      	str	r3, [r7, #24]
     126:	4b2f      	ldr	r3, [pc, #188]	; (1e4 <_Privileged_Data_Region_Size+0xe4>)
     128:	681b      	ldr	r3, [r3, #0]
     12a:	61fb      	str	r3, [r7, #28]
     12c:	e004      	b.n	138 <_Privileged_Data_Region_Size+0x38>
     12e:	69fb      	ldr	r3, [r7, #28]
     130:	61bb      	str	r3, [r7, #24]
     132:	69fb      	ldr	r3, [r7, #28]
     134:	681b      	ldr	r3, [r3, #0]
     136:	61fb      	str	r3, [r7, #28]
     138:	69fb      	ldr	r3, [r7, #28]
     13a:	685a      	ldr	r2, [r3, #4]
     13c:	687b      	ldr	r3, [r7, #4]
     13e:	429a      	cmp	r2, r3
     140:	d203      	bcs.n	14a <_Privileged_Data_Region_Size+0x4a>
     142:	69fb      	ldr	r3, [r7, #28]
     144:	681b      	ldr	r3, [r3, #0]
     146:	2b00      	cmp	r3, #0
     148:	d1f1      	bne.n	12e <_Privileged_Data_Region_Size+0x2e>
     14a:	69fb      	ldr	r3, [r7, #28]
     14c:	4a26      	ldr	r2, [pc, #152]	; (1e8 <_Privileged_Data_Region_Size+0xe8>)
     14e:	4293      	cmp	r3, r2
     150:	d03a      	beq.n	1c8 <_Privileged_Data_Region_Size+0xc8>
     152:	69bb      	ldr	r3, [r7, #24]
     154:	681b      	ldr	r3, [r3, #0]
     156:	2208      	movs	r2, #8
     158:	4413      	add	r3, r2
     15a:	617b      	str	r3, [r7, #20]
     15c:	69fb      	ldr	r3, [r7, #28]
     15e:	681a      	ldr	r2, [r3, #0]
     160:	69bb      	ldr	r3, [r7, #24]
     162:	601a      	str	r2, [r3, #0]
     164:	69fb      	ldr	r3, [r7, #28]
     166:	685a      	ldr	r2, [r3, #4]
     168:	687b      	ldr	r3, [r7, #4]
     16a:	1ad3      	subs	r3, r2, r3
     16c:	2208      	movs	r2, #8
     16e:	0052      	lsls	r2, r2, #1
     170:	4293      	cmp	r3, r2
     172:	d922      	bls.n	1ba <_Privileged_Data_Region_Size+0xba>
     174:	69fa      	ldr	r2, [r7, #28]
     176:	687b      	ldr	r3, [r7, #4]
     178:	4413      	add	r3, r2
     17a:	60fb      	str	r3, [r7, #12]
     17c:	69fb      	ldr	r3, [r7, #28]
     17e:	685a      	ldr	r2, [r3, #4]
     180:	687b      	ldr	r3, [r7, #4]
     182:	1ad2      	subs	r2, r2, r3
     184:	68fb      	ldr	r3, [r7, #12]
     186:	605a      	str	r2, [r3, #4]
     188:	69fb      	ldr	r3, [r7, #28]
     18a:	687a      	ldr	r2, [r7, #4]
     18c:	605a      	str	r2, [r3, #4]
     18e:	68fb      	ldr	r3, [r7, #12]
     190:	685b      	ldr	r3, [r3, #4]
     192:	60bb      	str	r3, [r7, #8]
     194:	4b13      	ldr	r3, [pc, #76]	; (1e4 <_Privileged_Data_Region_Size+0xe4>)
     196:	613b      	str	r3, [r7, #16]
     198:	e002      	b.n	1a0 <_Privileged_Data_Region_Size+0xa0>
     19a:	693b      	ldr	r3, [r7, #16]
     19c:	681b      	ldr	r3, [r3, #0]
     19e:	613b      	str	r3, [r7, #16]
     1a0:	693b      	ldr	r3, [r7, #16]
     1a2:	681b      	ldr	r3, [r3, #0]
     1a4:	685a      	ldr	r2, [r3, #4]
     1a6:	68bb      	ldr	r3, [r7, #8]
     1a8:	429a      	cmp	r2, r3
     1aa:	d3f6      	bcc.n	19a <_Privileged_Data_Region_Size+0x9a>
     1ac:	693b      	ldr	r3, [r7, #16]
     1ae:	681a      	ldr	r2, [r3, #0]
     1b0:	68fb      	ldr	r3, [r7, #12]
     1b2:	601a      	str	r2, [r3, #0]
     1b4:	693b      	ldr	r3, [r7, #16]
     1b6:	68fa      	ldr	r2, [r7, #12]
     1b8:	601a      	str	r2, [r3, #0]
     1ba:	4b0c      	ldr	r3, [pc, #48]	; (1ec <_Privileged_Data_Region_Size+0xec>)
     1bc:	681a      	ldr	r2, [r3, #0]
     1be:	69fb      	ldr	r3, [r7, #28]
     1c0:	685b      	ldr	r3, [r3, #4]
     1c2:	1ad3      	subs	r3, r2, r3
     1c4:	4a09      	ldr	r2, [pc, #36]	; (1ec <_Privileged_Data_Region_Size+0xec>)
     1c6:	6013      	str	r3, [r2, #0]
     1c8:	f001 fd3c 	bl	1c44 <xTaskResumeAll>
     1cc:	697b      	ldr	r3, [r7, #20]
     1ce:	2b00      	cmp	r3, #0
     1d0:	d101      	bne.n	1d6 <_Privileged_Data_Region_Size+0xd6>
     1d2:	f00b fab5 	bl	b740 <vApplicationMallocFailedHook>
     1d6:	697b      	ldr	r3, [r7, #20]
     1d8:	4618      	mov	r0, r3
     1da:	3720      	adds	r7, #32
     1dc:	46bd      	mov	sp, r7
     1de:	bd80      	pop	{r7, pc}
     1e0:	10004018 	.word	0x10004018
     1e4:	10004008 	.word	0x10004008
     1e8:	10004010 	.word	0x10004010
     1ec:	10004c54 	.word	0x10004c54

000001f0 <vPortFree>:
     1f0:	b580      	push	{r7, lr}
     1f2:	b086      	sub	sp, #24
     1f4:	af00      	add	r7, sp, #0
     1f6:	6078      	str	r0, [r7, #4]
     1f8:	687b      	ldr	r3, [r7, #4]
     1fa:	613b      	str	r3, [r7, #16]
     1fc:	687b      	ldr	r3, [r7, #4]
     1fe:	2b00      	cmp	r3, #0
     200:	d027      	beq.n	252 <vPortFree+0x62>
     202:	2308      	movs	r3, #8
     204:	425b      	negs	r3, r3
     206:	693a      	ldr	r2, [r7, #16]
     208:	4413      	add	r3, r2
     20a:	613b      	str	r3, [r7, #16]
     20c:	693b      	ldr	r3, [r7, #16]
     20e:	60fb      	str	r3, [r7, #12]
     210:	f001 fd0a 	bl	1c28 <vTaskSuspendAll>
     214:	68fb      	ldr	r3, [r7, #12]
     216:	685b      	ldr	r3, [r3, #4]
     218:	60bb      	str	r3, [r7, #8]
     21a:	4b10      	ldr	r3, [pc, #64]	; (25c <vPortFree+0x6c>)
     21c:	617b      	str	r3, [r7, #20]
     21e:	e002      	b.n	226 <vPortFree+0x36>
     220:	697b      	ldr	r3, [r7, #20]
     222:	681b      	ldr	r3, [r3, #0]
     224:	617b      	str	r3, [r7, #20]
     226:	697b      	ldr	r3, [r7, #20]
     228:	681b      	ldr	r3, [r3, #0]
     22a:	685a      	ldr	r2, [r3, #4]
     22c:	68bb      	ldr	r3, [r7, #8]
     22e:	429a      	cmp	r2, r3
     230:	d3f6      	bcc.n	220 <vPortFree+0x30>
     232:	697b      	ldr	r3, [r7, #20]
     234:	681a      	ldr	r2, [r3, #0]
     236:	68fb      	ldr	r3, [r7, #12]
     238:	601a      	str	r2, [r3, #0]
     23a:	697b      	ldr	r3, [r7, #20]
     23c:	68fa      	ldr	r2, [r7, #12]
     23e:	601a      	str	r2, [r3, #0]
     240:	68fb      	ldr	r3, [r7, #12]
     242:	685a      	ldr	r2, [r3, #4]
     244:	4b06      	ldr	r3, [pc, #24]	; (260 <vPortFree+0x70>)
     246:	681b      	ldr	r3, [r3, #0]
     248:	4413      	add	r3, r2
     24a:	4a05      	ldr	r2, [pc, #20]	; (260 <vPortFree+0x70>)
     24c:	6013      	str	r3, [r2, #0]
     24e:	f001 fcf9 	bl	1c44 <xTaskResumeAll>
     252:	bf00      	nop
     254:	3718      	adds	r7, #24
     256:	46bd      	mov	sp, r7
     258:	bd80      	pop	{r7, pc}
     25a:	bf00      	nop
     25c:	10004008 	.word	0x10004008
     260:	10004c54 	.word	0x10004c54

00000264 <vPortInitialiseBlocks>:
     264:	b480      	push	{r7}
     266:	af00      	add	r7, sp, #0
     268:	bf00      	nop
     26a:	46bd      	mov	sp, r7
     26c:	bc80      	pop	{r7}
     26e:	4770      	bx	lr

00000270 <xPortGetFreeHeapSize>:
     270:	b480      	push	{r7}
     272:	af00      	add	r7, sp, #0
     274:	4b02      	ldr	r3, [pc, #8]	; (280 <xPortGetFreeHeapSize+0x10>)
     276:	681b      	ldr	r3, [r3, #0]
     278:	4618      	mov	r0, r3
     27a:	46bd      	mov	sp, r7
     27c:	bc80      	pop	{r7}
     27e:	4770      	bx	lr
     280:	10004c54 	.word	0x10004c54

00000284 <pxPortInitialiseStack>:
     284:	b480      	push	{r7}
     286:	b085      	sub	sp, #20
     288:	af00      	add	r7, sp, #0
     28a:	60f8      	str	r0, [r7, #12]
     28c:	60b9      	str	r1, [r7, #8]
     28e:	607a      	str	r2, [r7, #4]
     290:	603b      	str	r3, [r7, #0]
     292:	68fb      	ldr	r3, [r7, #12]
     294:	3b04      	subs	r3, #4
     296:	60fb      	str	r3, [r7, #12]
     298:	68fb      	ldr	r3, [r7, #12]
     29a:	f04f 7280 	mov.w	r2, #16777216	; 0x1000000
     29e:	601a      	str	r2, [r3, #0]
     2a0:	68fb      	ldr	r3, [r7, #12]
     2a2:	3b04      	subs	r3, #4
     2a4:	60fb      	str	r3, [r7, #12]
     2a6:	68ba      	ldr	r2, [r7, #8]
     2a8:	68fb      	ldr	r3, [r7, #12]
     2aa:	601a      	str	r2, [r3, #0]
     2ac:	68fb      	ldr	r3, [r7, #12]
     2ae:	3b04      	subs	r3, #4
     2b0:	60fb      	str	r3, [r7, #12]
     2b2:	68fb      	ldr	r3, [r7, #12]
     2b4:	2200      	movs	r2, #0
     2b6:	601a      	str	r2, [r3, #0]
     2b8:	68fb      	ldr	r3, [r7, #12]
     2ba:	3b14      	subs	r3, #20
     2bc:	60fb      	str	r3, [r7, #12]
     2be:	687a      	ldr	r2, [r7, #4]
     2c0:	68fb      	ldr	r3, [r7, #12]
     2c2:	601a      	str	r2, [r3, #0]
     2c4:	68fb      	ldr	r3, [r7, #12]
     2c6:	3b24      	subs	r3, #36	; 0x24
     2c8:	60fb      	str	r3, [r7, #12]
     2ca:	683b      	ldr	r3, [r7, #0]
     2cc:	2b01      	cmp	r3, #1
     2ce:	d103      	bne.n	2d8 <pxPortInitialiseStack+0x54>
     2d0:	68fb      	ldr	r3, [r7, #12]
     2d2:	2202      	movs	r2, #2
     2d4:	601a      	str	r2, [r3, #0]
     2d6:	e002      	b.n	2de <pxPortInitialiseStack+0x5a>
     2d8:	68fb      	ldr	r3, [r7, #12]
     2da:	2203      	movs	r2, #3
     2dc:	601a      	str	r2, [r3, #0]
     2de:	68fb      	ldr	r3, [r7, #12]
     2e0:	4618      	mov	r0, r3
     2e2:	3714      	adds	r7, #20
     2e4:	46bd      	mov	sp, r7
     2e6:	bc80      	pop	{r7}
     2e8:	4770      	bx	lr
     2ea:	bf00      	nop

000002ec <xPortStartScheduler>:
     2ec:	b580      	push	{r7, lr}
     2ee:	af00      	add	r7, sp, #0
     2f0:	4a0b      	ldr	r2, [pc, #44]	; (320 <xPortStartScheduler+0x34>)
     2f2:	4b0b      	ldr	r3, [pc, #44]	; (320 <xPortStartScheduler+0x34>)
     2f4:	681b      	ldr	r3, [r3, #0]
     2f6:	f443 0378 	orr.w	r3, r3, #16252928	; 0xf80000
     2fa:	6013      	str	r3, [r2, #0]
     2fc:	4a08      	ldr	r2, [pc, #32]	; (320 <xPortStartScheduler+0x34>)
     2fe:	4b08      	ldr	r3, [pc, #32]	; (320 <xPortStartScheduler+0x34>)
     300:	681b      	ldr	r3, [r3, #0]
     302:	f043 4378 	orr.w	r3, r3, #4160749568	; 0xf8000000
     306:	6013      	str	r3, [r2, #0]
     308:	f000 f8f0 	bl	4ec <prvSetupMPU>
     30c:	f000 f8dc 	bl	4c8 <prvSetupTimerInterrupt>
     310:	4b04      	ldr	r3, [pc, #16]	; (324 <xPortStartScheduler+0x38>)
     312:	2200      	movs	r2, #0
     314:	601a      	str	r2, [r3, #0]
     316:	df00      	svc	0
     318:	2300      	movs	r3, #0
     31a:	4618      	mov	r0, r3
     31c:	bd80      	pop	{r7, pc}
     31e:	bf00      	nop
     320:	e000ed20 	.word	0xe000ed20
     324:	10004c58 	.word	0x10004c58

00000328 <vPortEndScheduler>:
     328:	b480      	push	{r7}
     32a:	af00      	add	r7, sp, #0
     32c:	4b06      	ldr	r3, [pc, #24]	; (348 <vPortEndScheduler+0x20>)
     32e:	681b      	ldr	r3, [r3, #0]
     330:	f5b3 7f7a 	cmp.w	r3, #1000	; 0x3e8
     334:	d004      	beq.n	340 <vPortEndScheduler+0x18>
     336:	f04f 0028 	mov.w	r0, #40	; 0x28
     33a:	f380 8811 	msr	BASEPRI, r0
     33e:	e7fe      	b.n	33e <vPortEndScheduler+0x16>
     340:	bf00      	nop
     342:	46bd      	mov	sp, r7
     344:	bc80      	pop	{r7}
     346:	4770      	bx	lr
     348:	10004c58 	.word	0x10004c58

0000034c <vPortStoreTaskMPUSettings>:
     34c:	b580      	push	{r7, lr}
     34e:	b086      	sub	sp, #24
     350:	af00      	add	r7, sp, #0
     352:	60f8      	str	r0, [r7, #12]
     354:	60b9      	str	r1, [r7, #8]
     356:	607a      	str	r2, [r7, #4]
     358:	807b      	strh	r3, [r7, #2]
     35a:	68bb      	ldr	r3, [r7, #8]
     35c:	2b00      	cmp	r3, #0
     35e:	d139      	bne.n	3d4 <vPortStoreTaskMPUSettings+0x88>
     360:	4b54      	ldr	r3, [pc, #336]	; (4b4 <vPortStoreTaskMPUSettings+0x168>)
     362:	f043 0215 	orr.w	r2, r3, #21
     366:	68fb      	ldr	r3, [r7, #12]
     368:	601a      	str	r2, [r3, #0]
     36a:	4a53      	ldr	r2, [pc, #332]	; (4b8 <vPortStoreTaskMPUSettings+0x16c>)
     36c:	4b51      	ldr	r3, [pc, #324]	; (4b4 <vPortStoreTaskMPUSettings+0x168>)
     36e:	1ad3      	subs	r3, r2, r3
     370:	4618      	mov	r0, r3
     372:	f000 f92b 	bl	5cc <prvGetMPURegionSizeSetting>
     376:	4602      	mov	r2, r0
     378:	4b50      	ldr	r3, [pc, #320]	; (4bc <vPortStoreTaskMPUSettings+0x170>)
     37a:	4313      	orrs	r3, r2
     37c:	68fa      	ldr	r2, [r7, #12]
     37e:	6053      	str	r3, [r2, #4]
     380:	4b4f      	ldr	r3, [pc, #316]	; (4c0 <vPortStoreTaskMPUSettings+0x174>)
     382:	f043 0217 	orr.w	r2, r3, #23
     386:	68fb      	ldr	r3, [r7, #12]
     388:	609a      	str	r2, [r3, #8]
     38a:	4a4e      	ldr	r2, [pc, #312]	; (4c4 <vPortStoreTaskMPUSettings+0x178>)
     38c:	4b4c      	ldr	r3, [pc, #304]	; (4c0 <vPortStoreTaskMPUSettings+0x174>)
     38e:	1ad3      	subs	r3, r2, r3
     390:	4618      	mov	r0, r3
     392:	f000 f91b 	bl	5cc <prvGetMPURegionSizeSetting>
     396:	4603      	mov	r3, r0
     398:	f043 7383 	orr.w	r3, r3, #17170432	; 0x1060000
     39c:	f043 1301 	orr.w	r3, r3, #65537	; 0x10001
     3a0:	68fa      	ldr	r2, [r7, #12]
     3a2:	60d3      	str	r3, [r2, #12]
     3a4:	2302      	movs	r3, #2
     3a6:	613b      	str	r3, [r7, #16]
     3a8:	e010      	b.n	3cc <vPortStoreTaskMPUSettings+0x80>
     3aa:	693b      	ldr	r3, [r7, #16]
     3ac:	3305      	adds	r3, #5
     3ae:	f043 0110 	orr.w	r1, r3, #16
     3b2:	68fb      	ldr	r3, [r7, #12]
     3b4:	693a      	ldr	r2, [r7, #16]
     3b6:	f843 1032 	str.w	r1, [r3, r2, lsl #3]
     3ba:	68fa      	ldr	r2, [r7, #12]
     3bc:	693b      	ldr	r3, [r7, #16]
     3be:	00db      	lsls	r3, r3, #3
     3c0:	4413      	add	r3, r2
     3c2:	2200      	movs	r2, #0
     3c4:	605a      	str	r2, [r3, #4]
     3c6:	693b      	ldr	r3, [r7, #16]
     3c8:	3301      	adds	r3, #1
     3ca:	613b      	str	r3, [r7, #16]
     3cc:	693b      	ldr	r3, [r7, #16]
     3ce:	2b03      	cmp	r3, #3
     3d0:	d9eb      	bls.n	3aa <vPortStoreTaskMPUSettings+0x5e>
     3d2:	e06b      	b.n	4ac <vPortStoreTaskMPUSettings+0x160>
     3d4:	887b      	ldrh	r3, [r7, #2]
     3d6:	2b00      	cmp	r3, #0
     3d8:	d00e      	beq.n	3f8 <vPortStoreTaskMPUSettings+0xac>
     3da:	687b      	ldr	r3, [r7, #4]
     3dc:	f043 0215 	orr.w	r2, r3, #21
     3e0:	68fb      	ldr	r3, [r7, #12]
     3e2:	601a      	str	r2, [r3, #0]
     3e4:	887b      	ldrh	r3, [r7, #2]
     3e6:	009b      	lsls	r3, r3, #2
     3e8:	4618      	mov	r0, r3
     3ea:	f000 f8ef 	bl	5cc <prvGetMPURegionSizeSetting>
     3ee:	4602      	mov	r2, r0
     3f0:	4b32      	ldr	r3, [pc, #200]	; (4bc <vPortStoreTaskMPUSettings+0x170>)
     3f2:	4313      	orrs	r3, r2
     3f4:	68fa      	ldr	r2, [r7, #12]
     3f6:	6053      	str	r3, [r2, #4]
     3f8:	2300      	movs	r3, #0
     3fa:	617b      	str	r3, [r7, #20]
     3fc:	2301      	movs	r3, #1
     3fe:	613b      	str	r3, [r7, #16]
     400:	e051      	b.n	4a6 <vPortStoreTaskMPUSettings+0x15a>
     402:	697a      	ldr	r2, [r7, #20]
     404:	4613      	mov	r3, r2
     406:	005b      	lsls	r3, r3, #1
     408:	4413      	add	r3, r2
     40a:	009b      	lsls	r3, r3, #2
     40c:	461a      	mov	r2, r3
     40e:	68bb      	ldr	r3, [r7, #8]
     410:	4413      	add	r3, r2
     412:	685b      	ldr	r3, [r3, #4]
     414:	2b00      	cmp	r3, #0
     416:	d032      	beq.n	47e <vPortStoreTaskMPUSettings+0x132>
     418:	697a      	ldr	r2, [r7, #20]
     41a:	4613      	mov	r3, r2
     41c:	005b      	lsls	r3, r3, #1
     41e:	4413      	add	r3, r2
     420:	009b      	lsls	r3, r3, #2
     422:	461a      	mov	r2, r3
     424:	68bb      	ldr	r3, [r7, #8]
     426:	4413      	add	r3, r2
     428:	681b      	ldr	r3, [r3, #0]
     42a:	461a      	mov	r2, r3
     42c:	693b      	ldr	r3, [r7, #16]
     42e:	f1c3 0305 	rsb	r3, r3, #5
     432:	4313      	orrs	r3, r2
     434:	f043 0110 	orr.w	r1, r3, #16
     438:	68fb      	ldr	r3, [r7, #12]
     43a:	693a      	ldr	r2, [r7, #16]
     43c:	f843 1032 	str.w	r1, [r3, r2, lsl #3]
     440:	697a      	ldr	r2, [r7, #20]
     442:	4613      	mov	r3, r2
     444:	005b      	lsls	r3, r3, #1
     446:	4413      	add	r3, r2
     448:	009b      	lsls	r3, r3, #2
     44a:	461a      	mov	r2, r3
     44c:	68bb      	ldr	r3, [r7, #8]
     44e:	4413      	add	r3, r2
     450:	685b      	ldr	r3, [r3, #4]
     452:	4618      	mov	r0, r3
     454:	f000 f8ba 	bl	5cc <prvGetMPURegionSizeSetting>
     458:	4601      	mov	r1, r0
     45a:	697a      	ldr	r2, [r7, #20]
     45c:	4613      	mov	r3, r2
     45e:	005b      	lsls	r3, r3, #1
     460:	4413      	add	r3, r2
     462:	009b      	lsls	r3, r3, #2
     464:	461a      	mov	r2, r3
     466:	68bb      	ldr	r3, [r7, #8]
     468:	4413      	add	r3, r2
     46a:	689b      	ldr	r3, [r3, #8]
     46c:	430b      	orrs	r3, r1
     46e:	f043 0201 	orr.w	r2, r3, #1
     472:	68f9      	ldr	r1, [r7, #12]
     474:	693b      	ldr	r3, [r7, #16]
     476:	00db      	lsls	r3, r3, #3
     478:	440b      	add	r3, r1
     47a:	605a      	str	r2, [r3, #4]
     47c:	e00d      	b.n	49a <vPortStoreTaskMPUSettings+0x14e>
     47e:	693b      	ldr	r3, [r7, #16]
     480:	3305      	adds	r3, #5
     482:	f043 0110 	orr.w	r1, r3, #16
     486:	68fb      	ldr	r3, [r7, #12]
     488:	693a      	ldr	r2, [r7, #16]
     48a:	f843 1032 	str.w	r1, [r3, r2, lsl #3]
     48e:	68fa      	ldr	r2, [r7, #12]
     490:	693b      	ldr	r3, [r7, #16]
     492:	00db      	lsls	r3, r3, #3
     494:	4413      	add	r3, r2
     496:	2200      	movs	r2, #0
     498:	605a      	str	r2, [r3, #4]
     49a:	697b      	ldr	r3, [r7, #20]
     49c:	3301      	adds	r3, #1
     49e:	617b      	str	r3, [r7, #20]
     4a0:	693b      	ldr	r3, [r7, #16]
     4a2:	3301      	adds	r3, #1
     4a4:	613b      	str	r3, [r7, #16]
     4a6:	693b      	ldr	r3, [r7, #16]
     4a8:	2b03      	cmp	r3, #3
     4aa:	d9aa      	bls.n	402 <vPortStoreTaskMPUSettings+0xb6>
     4ac:	bf00      	nop
     4ae:	3718      	adds	r7, #24
     4b0:	46bd      	mov	sp, r7
     4b2:	bd80      	pop	{r7, pc}
     4b4:	10000000 	.word	0x10000000
     4b8:	10008000 	.word	0x10008000
     4bc:	03070001 	.word	0x03070001
     4c0:	10000000 	.word	0x10000000
     4c4:	10000100 	.word	0x10000100

000004c8 <prvSetupTimerInterrupt>:
     4c8:	b480      	push	{r7}
     4ca:	af00      	add	r7, sp, #0
     4cc:	4b04      	ldr	r3, [pc, #16]	; (4e0 <prvSetupTimerInterrupt+0x18>)
     4ce:	4a05      	ldr	r2, [pc, #20]	; (4e4 <prvSetupTimerInterrupt+0x1c>)
     4d0:	601a      	str	r2, [r3, #0]
     4d2:	4b05      	ldr	r3, [pc, #20]	; (4e8 <prvSetupTimerInterrupt+0x20>)
     4d4:	2207      	movs	r2, #7
     4d6:	601a      	str	r2, [r3, #0]
     4d8:	bf00      	nop
     4da:	46bd      	mov	sp, r7
     4dc:	bc80      	pop	{r7}
     4de:	4770      	bx	lr
     4e0:	e000e014 	.word	0xe000e014
     4e4:	0001869f 	.word	0x0001869f
     4e8:	e000e010 	.word	0xe000e010

000004ec <prvSetupMPU>:
     4ec:	b598      	push	{r3, r4, r7, lr}
     4ee:	af00      	add	r7, sp, #0
     4f0:	4b29      	ldr	r3, [pc, #164]	; (598 <prvSetupMPU+0xac>)
     4f2:	681b      	ldr	r3, [r3, #0]
     4f4:	f5b3 6f00 	cmp.w	r3, #2048	; 0x800
     4f8:	d14b      	bne.n	592 <prvSetupMPU+0xa6>
     4fa:	4a28      	ldr	r2, [pc, #160]	; (59c <prvSetupMPU+0xb0>)
     4fc:	4b28      	ldr	r3, [pc, #160]	; (5a0 <prvSetupMPU+0xb4>)
     4fe:	f043 0310 	orr.w	r3, r3, #16
     502:	6013      	str	r3, [r2, #0]
     504:	4c27      	ldr	r4, [pc, #156]	; (5a4 <prvSetupMPU+0xb8>)
     506:	4a28      	ldr	r2, [pc, #160]	; (5a8 <prvSetupMPU+0xbc>)
     508:	4b25      	ldr	r3, [pc, #148]	; (5a0 <prvSetupMPU+0xb4>)
     50a:	1ad3      	subs	r3, r2, r3
     50c:	4618      	mov	r0, r3
     50e:	f000 f85d 	bl	5cc <prvGetMPURegionSizeSetting>
     512:	4602      	mov	r2, r0
     514:	4b25      	ldr	r3, [pc, #148]	; (5ac <prvSetupMPU+0xc0>)
     516:	4313      	orrs	r3, r2
     518:	6023      	str	r3, [r4, #0]
     51a:	4a20      	ldr	r2, [pc, #128]	; (59c <prvSetupMPU+0xb0>)
     51c:	4b20      	ldr	r3, [pc, #128]	; (5a0 <prvSetupMPU+0xb4>)
     51e:	f043 0316 	orr.w	r3, r3, #22
     522:	6013      	str	r3, [r2, #0]
     524:	4c1f      	ldr	r4, [pc, #124]	; (5a4 <prvSetupMPU+0xb8>)
     526:	4a22      	ldr	r2, [pc, #136]	; (5b0 <prvSetupMPU+0xc4>)
     528:	4b1d      	ldr	r3, [pc, #116]	; (5a0 <prvSetupMPU+0xb4>)
     52a:	1ad3      	subs	r3, r2, r3
     52c:	4618      	mov	r0, r3
     52e:	f000 f84d 	bl	5cc <prvGetMPURegionSizeSetting>
     532:	4602      	mov	r2, r0
     534:	4b1f      	ldr	r3, [pc, #124]	; (5b4 <prvSetupMPU+0xc8>)
     536:	4313      	orrs	r3, r2
     538:	6023      	str	r3, [r4, #0]
     53a:	4a18      	ldr	r2, [pc, #96]	; (59c <prvSetupMPU+0xb0>)
     53c:	4b1e      	ldr	r3, [pc, #120]	; (5b8 <prvSetupMPU+0xcc>)
     53e:	f043 0317 	orr.w	r3, r3, #23
     542:	6013      	str	r3, [r2, #0]
     544:	4c17      	ldr	r4, [pc, #92]	; (5a4 <prvSetupMPU+0xb8>)
     546:	4a1d      	ldr	r2, [pc, #116]	; (5bc <prvSetupMPU+0xd0>)
     548:	4b1b      	ldr	r3, [pc, #108]	; (5b8 <prvSetupMPU+0xcc>)
     54a:	1ad3      	subs	r3, r2, r3
     54c:	4618      	mov	r0, r3
     54e:	f000 f83d 	bl	5cc <prvGetMPURegionSizeSetting>
     552:	4603      	mov	r3, r0
     554:	f043 7383 	orr.w	r3, r3, #17170432	; 0x1060000
     558:	f043 1301 	orr.w	r3, r3, #65537	; 0x10001
     55c:	6023      	str	r3, [r4, #0]
     55e:	4b0f      	ldr	r3, [pc, #60]	; (59c <prvSetupMPU+0xb0>)
     560:	4a17      	ldr	r2, [pc, #92]	; (5c0 <prvSetupMPU+0xd4>)
     562:	601a      	str	r2, [r3, #0]
     564:	4c0f      	ldr	r4, [pc, #60]	; (5a4 <prvSetupMPU+0xb8>)
     566:	f06f 4060 	mvn.w	r0, #3758096384	; 0xe0000000
     56a:	f000 f82f 	bl	5cc <prvGetMPURegionSizeSetting>
     56e:	4603      	mov	r3, r0
     570:	f043 5398 	orr.w	r3, r3, #318767104	; 0x13000000
     574:	f043 0301 	orr.w	r3, r3, #1
     578:	6023      	str	r3, [r4, #0]
     57a:	4a12      	ldr	r2, [pc, #72]	; (5c4 <prvSetupMPU+0xd8>)
     57c:	4b11      	ldr	r3, [pc, #68]	; (5c4 <prvSetupMPU+0xd8>)
     57e:	681b      	ldr	r3, [r3, #0]
     580:	f443 3380 	orr.w	r3, r3, #65536	; 0x10000
     584:	6013      	str	r3, [r2, #0]
     586:	4a10      	ldr	r2, [pc, #64]	; (5c8 <prvSetupMPU+0xdc>)
     588:	4b0f      	ldr	r3, [pc, #60]	; (5c8 <prvSetupMPU+0xdc>)
     58a:	681b      	ldr	r3, [r3, #0]
     58c:	f043 0305 	orr.w	r3, r3, #5
     590:	6013      	str	r3, [r2, #0]
     592:	bf00      	nop
     594:	bd98      	pop	{r3, r4, r7, pc}
     596:	bf00      	nop
     598:	e000ed90 	.word	0xe000ed90
     59c:	e000ed9c 	.word	0xe000ed9c
     5a0:	00000000 	.word	0x00000000
     5a4:	e000eda0 	.word	0xe000eda0
     5a8:	00080000 	.word	0x00080000
     5ac:	06070001 	.word	0x06070001
     5b0:	00004000 	.word	0x00004000
     5b4:	05070001 	.word	0x05070001
     5b8:	10000000 	.word	0x10000000
     5bc:	10000100 	.word	0x10000100
     5c0:	40000011 	.word	0x40000011
     5c4:	e000ed24 	.word	0xe000ed24
     5c8:	e000ed94 	.word	0xe000ed94

000005cc <prvGetMPURegionSizeSetting>:
     5cc:	b480      	push	{r7}
     5ce:	b085      	sub	sp, #20
     5d0:	af00      	add	r7, sp, #0
     5d2:	6078      	str	r0, [r7, #4]
     5d4:	2304      	movs	r3, #4
     5d6:	60bb      	str	r3, [r7, #8]
     5d8:	2320      	movs	r3, #32
     5da:	60fb      	str	r3, [r7, #12]
     5dc:	e009      	b.n	5f2 <prvGetMPURegionSizeSetting+0x26>
     5de:	687a      	ldr	r2, [r7, #4]
     5e0:	68fb      	ldr	r3, [r7, #12]
     5e2:	429a      	cmp	r2, r3
     5e4:	d909      	bls.n	5fa <prvGetMPURegionSizeSetting+0x2e>
     5e6:	68bb      	ldr	r3, [r7, #8]
     5e8:	3301      	adds	r3, #1
     5ea:	60bb      	str	r3, [r7, #8]
     5ec:	68fb      	ldr	r3, [r7, #12]
     5ee:	005b      	lsls	r3, r3, #1
     5f0:	60fb      	str	r3, [r7, #12]
     5f2:	68bb      	ldr	r3, [r7, #8]
     5f4:	2b1e      	cmp	r3, #30
     5f6:	d9f2      	bls.n	5de <prvGetMPURegionSizeSetting+0x12>
     5f8:	e000      	b.n	5fc <prvGetMPURegionSizeSetting+0x30>
     5fa:	bf00      	nop
     5fc:	68bb      	ldr	r3, [r7, #8]
     5fe:	005b      	lsls	r3, r3, #1
     600:	4618      	mov	r0, r3
     602:	3714      	adds	r7, #20
     604:	46bd      	mov	sp, r7
     606:	bc80      	pop	{r7}
     608:	4770      	bx	lr
     60a:	bf00      	nop

0000060c <PendSV_Handler>:
     60c:	f3ef 8009 	mrs	r0, PSP
     610:	4b12      	ldr	r3, [pc, #72]	; (65c <pxCurrentTCBConst>)
     612:	681a      	ldr	r2, [r3, #0]
     614:	f3ef 8114 	mrs	r1, CONTROL
     618:	e920 0ff2 	stmdb	r0!, {r1, r4, r5, r6, r7, r8, r9, sl, fp}
     61c:	6010      	str	r0, [r2, #0]
     61e:	e92d 4008 	stmdb	sp!, {r3, lr}
     622:	f04f 0028 	mov.w	r0, #40	; 0x28
     626:	f380 8811 	msr	BASEPRI, r0
     62a:	f002 f9f7 	bl	2a1c <vTaskSwitchContext>
     62e:	f04f 0000 	mov.w	r0, #0
     632:	f380 8811 	msr	BASEPRI, r0
     636:	e8bd 4008 	ldmia.w	sp!, {r3, lr}
     63a:	6819      	ldr	r1, [r3, #0]
     63c:	6808      	ldr	r0, [r1, #0]
     63e:	f101 0104 	add.w	r1, r1, #4
     642:	4a41      	ldr	r2, [pc, #260]	; (748 <prvSVCHandler+0x68>)
     644:	e8b1 0ff0 	ldmia.w	r1!, {r4, r5, r6, r7, r8, r9, sl, fp}
     648:	e8a2 0ff0 	stmia.w	r2!, {r4, r5, r6, r7, r8, r9, sl, fp}
     64c:	e8b0 0ff8 	ldmia.w	r0!, {r3, r4, r5, r6, r7, r8, r9, sl, fp}
     650:	f383 8814 	msr	CONTROL, r3
     654:	f380 8809 	msr	PSP, r0
     658:	4770      	bx	lr
     65a:	bf00      	nop

0000065c <pxCurrentTCBConst>:
     65c:	10000050 	.word	0x10000050
     660:	bf00      	nop
     662:	bf00      	nop

00000664 <SysTick_Handler>:
     664:	b508      	push	{r3, lr}
     666:	f04f 0028 	mov.w	r0, #40	; 0x28
     66a:	f380 8811 	msr	BASEPRI, r0
     66e:	f001 ffa7 	bl	25c0 <xTaskIncrementTick>
     672:	b118      	cbz	r0, 67c <SysTick_Handler+0x18>
     674:	4b04      	ldr	r3, [pc, #16]	; (688 <SysTick_Handler+0x24>)
     676:	f04f 5280 	mov.w	r2, #268435456	; 0x10000000
     67a:	601a      	str	r2, [r3, #0]
     67c:	f04f 0000 	mov.w	r0, #0
     680:	f380 8811 	msr	BASEPRI, r0
     684:	bd08      	pop	{r3, pc}
     686:	bf00      	nop
     688:	e000ed04 	.word	0xe000ed04

0000068c <SVC_Handler>:
     68c:	f01e 0f04 	tst.w	lr, #4
     690:	bf0c      	ite	eq
     692:	f3ef 8008 	mrseq	r0, MSP
     696:	f3ef 8009 	mrsne	r0, PSP
     69a:	e021      	b.n	6e0 <prvSVCHandler>
     69c:	bf00      	nop
     69e:	bf00      	nop

000006a0 <prvRestoreContextOfFirstTask>:
     6a0:	482a      	ldr	r0, [pc, #168]	; (74c <prvSVCHandler+0x6c>)
     6a2:	6800      	ldr	r0, [r0, #0]
     6a4:	6800      	ldr	r0, [r0, #0]
     6a6:	f380 8808 	msr	MSP, r0
     6aa:	4b0b      	ldr	r3, [pc, #44]	; (6d8 <pxCurrentTCBConst2>)
     6ac:	6819      	ldr	r1, [r3, #0]
     6ae:	6808      	ldr	r0, [r1, #0]
     6b0:	f101 0104 	add.w	r1, r1, #4
     6b4:	4a24      	ldr	r2, [pc, #144]	; (748 <prvSVCHandler+0x68>)
     6b6:	e8b1 0ff0 	ldmia.w	r1!, {r4, r5, r6, r7, r8, r9, sl, fp}
     6ba:	e8a2 0ff0 	stmia.w	r2!, {r4, r5, r6, r7, r8, r9, sl, fp}
     6be:	e8b0 0ff8 	ldmia.w	r0!, {r3, r4, r5, r6, r7, r8, r9, sl, fp}
     6c2:	f383 8814 	msr	CONTROL, r3
     6c6:	f380 8809 	msr	PSP, r0
     6ca:	f04f 0000 	mov.w	r0, #0
     6ce:	f380 8811 	msr	BASEPRI, r0
     6d2:	f06f 0e02 	mvn.w	lr, #2
     6d6:	4770      	bx	lr

000006d8 <pxCurrentTCBConst2>:
     6d8:	10000050 	.word	0x10000050
     6dc:	bf00      	nop
     6de:	bf00      	nop

000006e0 <prvSVCHandler>:
     6e0:	b580      	push	{r7, lr}
     6e2:	b084      	sub	sp, #16
     6e4:	af00      	add	r7, sp, #0
     6e6:	6078      	str	r0, [r7, #4]
     6e8:	687b      	ldr	r3, [r7, #4]
     6ea:	3318      	adds	r3, #24
     6ec:	681b      	ldr	r3, [r3, #0]
     6ee:	3b02      	subs	r3, #2
     6f0:	781b      	ldrb	r3, [r3, #0]
     6f2:	73fb      	strb	r3, [r7, #15]
     6f4:	7bfb      	ldrb	r3, [r7, #15]
     6f6:	2b01      	cmp	r3, #1
     6f8:	d00d      	beq.n	716 <prvSVCHandler+0x36>
     6fa:	2b02      	cmp	r3, #2
     6fc:	d014      	beq.n	728 <prvSVCHandler+0x48>
     6fe:	2b00      	cmp	r3, #0
     700:	d000      	beq.n	704 <prvSVCHandler+0x24>
     702:	e018      	b.n	736 <prvSVCHandler+0x56>
     704:	4a0e      	ldr	r2, [pc, #56]	; (740 <prvSVCHandler+0x60>)
     706:	4b0e      	ldr	r3, [pc, #56]	; (740 <prvSVCHandler+0x60>)
     708:	681b      	ldr	r3, [r3, #0]
     70a:	f043 4378 	orr.w	r3, r3, #4160749568	; 0xf8000000
     70e:	6013      	str	r3, [r2, #0]
     710:	f7ff ffc6 	bl	6a0 <prvRestoreContextOfFirstTask>
     714:	e00f      	b.n	736 <prvSVCHandler+0x56>
     716:	4b0b      	ldr	r3, [pc, #44]	; (744 <prvSVCHandler+0x64>)
     718:	f04f 5280 	mov.w	r2, #268435456	; 0x10000000
     71c:	601a      	str	r2, [r3, #0]
     71e:	f3bf 8f4f 	dsb	sy
     722:	f3bf 8f6f 	isb	sy
     726:	e006      	b.n	736 <prvSVCHandler+0x56>
     728:	f3ef 8114 	mrs	r1, CONTROL
     72c:	f021 0101 	bic.w	r1, r1, #1
     730:	f381 8814 	msr	CONTROL, r1
     734:	bf00      	nop
     736:	bf00      	nop
     738:	3710      	adds	r7, #16
     73a:	46bd      	mov	sp, r7
     73c:	bd80      	pop	{r7, pc}
     73e:	bf00      	nop
     740:	e000ed1c 	.word	0xe000ed1c
     744:	e000ed04 	.word	0xe000ed04
     748:	e000ed9c 	.word	0xe000ed9c
     74c:	e000ed08 	.word	0xe000ed08

00000750 <xQueueGenericSend>:
     750:	b580      	push	{r7, lr}
     752:	b08a      	sub	sp, #40	; 0x28
     754:	af00      	add	r7, sp, #0
     756:	60f8      	str	r0, [r7, #12]
     758:	60b9      	str	r1, [r7, #8]
     75a:	607a      	str	r2, [r7, #4]
     75c:	603b      	str	r3, [r7, #0]
     75e:	2300      	movs	r3, #0
     760:	627b      	str	r3, [r7, #36]	; 0x24
     762:	68fb      	ldr	r3, [r7, #12]
     764:	623b      	str	r3, [r7, #32]
     766:	6a3b      	ldr	r3, [r7, #32]
     768:	2b00      	cmp	r3, #0
     76a:	d104      	bne.n	776 <xQueueGenericSend+0x26>
     76c:	f04f 0028 	mov.w	r0, #40	; 0x28
     770:	f380 8811 	msr	BASEPRI, r0
     774:	e7fe      	b.n	774 <xQueueGenericSend+0x24>
     776:	68bb      	ldr	r3, [r7, #8]
     778:	2b00      	cmp	r3, #0
     77a:	d103      	bne.n	784 <xQueueGenericSend+0x34>
     77c:	6a3b      	ldr	r3, [r7, #32]
     77e:	6c1b      	ldr	r3, [r3, #64]	; 0x40
     780:	2b00      	cmp	r3, #0
     782:	d101      	bne.n	788 <xQueueGenericSend+0x38>
     784:	2301      	movs	r3, #1
     786:	e000      	b.n	78a <xQueueGenericSend+0x3a>
     788:	2300      	movs	r3, #0
     78a:	2b00      	cmp	r3, #0
     78c:	d104      	bne.n	798 <xQueueGenericSend+0x48>
     78e:	f04f 0028 	mov.w	r0, #40	; 0x28
     792:	f380 8811 	msr	BASEPRI, r0
     796:	e7fe      	b.n	796 <xQueueGenericSend+0x46>
     798:	683b      	ldr	r3, [r7, #0]
     79a:	2b02      	cmp	r3, #2
     79c:	d103      	bne.n	7a6 <xQueueGenericSend+0x56>
     79e:	6a3b      	ldr	r3, [r7, #32]
     7a0:	6bdb      	ldr	r3, [r3, #60]	; 0x3c
     7a2:	2b01      	cmp	r3, #1
     7a4:	d101      	bne.n	7aa <xQueueGenericSend+0x5a>
     7a6:	2301      	movs	r3, #1
     7a8:	e000      	b.n	7ac <xQueueGenericSend+0x5c>
     7aa:	2300      	movs	r3, #0
     7ac:	2b00      	cmp	r3, #0
     7ae:	d104      	bne.n	7ba <xQueueGenericSend+0x6a>
     7b0:	f04f 0028 	mov.w	r0, #40	; 0x28
     7b4:	f380 8811 	msr	BASEPRI, r0
     7b8:	e7fe      	b.n	7b8 <xQueueGenericSend+0x68>
     7ba:	f002 fa6b 	bl	2c94 <xTaskGetSchedulerState>
     7be:	4603      	mov	r3, r0
     7c0:	2b00      	cmp	r3, #0
     7c2:	d102      	bne.n	7ca <xQueueGenericSend+0x7a>
     7c4:	687b      	ldr	r3, [r7, #4]
     7c6:	2b00      	cmp	r3, #0
     7c8:	d101      	bne.n	7ce <xQueueGenericSend+0x7e>
     7ca:	2301      	movs	r3, #1
     7cc:	e000      	b.n	7d0 <xQueueGenericSend+0x80>
     7ce:	2300      	movs	r3, #0
     7d0:	2b00      	cmp	r3, #0
     7d2:	d104      	bne.n	7de <xQueueGenericSend+0x8e>
     7d4:	f04f 0028 	mov.w	r0, #40	; 0x28
     7d8:	f380 8811 	msr	BASEPRI, r0
     7dc:	e7fe      	b.n	7dc <xQueueGenericSend+0x8c>
     7de:	f007 faeb 	bl	7db8 <vPortEnterCritical>
     7e2:	6a3b      	ldr	r3, [r7, #32]
     7e4:	6b9a      	ldr	r2, [r3, #56]	; 0x38
     7e6:	6a3b      	ldr	r3, [r7, #32]
     7e8:	6bdb      	ldr	r3, [r3, #60]	; 0x3c
     7ea:	429a      	cmp	r2, r3
     7ec:	d302      	bcc.n	7f4 <xQueueGenericSend+0xa4>
     7ee:	683b      	ldr	r3, [r7, #0]
     7f0:	2b02      	cmp	r3, #2
     7f2:	d121      	bne.n	838 <xQueueGenericSend+0xe8>
     7f4:	683a      	ldr	r2, [r7, #0]
     7f6:	68b9      	ldr	r1, [r7, #8]
     7f8:	6a38      	ldr	r0, [r7, #32]
     7fa:	f000 fe27 	bl	144c <prvCopyDataToQueue>
     7fe:	61f8      	str	r0, [r7, #28]
     800:	6a3b      	ldr	r3, [r7, #32]
     802:	6a5b      	ldr	r3, [r3, #36]	; 0x24
     804:	2b00      	cmp	r3, #0
     806:	d00c      	beq.n	822 <xQueueGenericSend+0xd2>
     808:	6a3b      	ldr	r3, [r7, #32]
     80a:	3324      	adds	r3, #36	; 0x24
     80c:	4618      	mov	r0, r3
     80e:	f002 f84b 	bl	28a8 <xTaskRemoveFromEventList>
     812:	4603      	mov	r3, r0
     814:	2b01      	cmp	r3, #1
     816:	d10b      	bne.n	830 <xQueueGenericSend+0xe0>
     818:	4b36      	ldr	r3, [pc, #216]	; (8f4 <xQueueGenericSend+0x1a4>)
     81a:	f04f 5280 	mov.w	r2, #268435456	; 0x10000000
     81e:	601a      	str	r2, [r3, #0]
     820:	e006      	b.n	830 <xQueueGenericSend+0xe0>
     822:	69fb      	ldr	r3, [r7, #28]
     824:	2b00      	cmp	r3, #0
     826:	d003      	beq.n	830 <xQueueGenericSend+0xe0>
     828:	4b32      	ldr	r3, [pc, #200]	; (8f4 <xQueueGenericSend+0x1a4>)
     82a:	f04f 5280 	mov.w	r2, #268435456	; 0x10000000
     82e:	601a      	str	r2, [r3, #0]
     830:	f007 fae0 	bl	7df4 <vPortExitCritical>
     834:	2301      	movs	r3, #1
     836:	e058      	b.n	8ea <xQueueGenericSend+0x19a>
     838:	687b      	ldr	r3, [r7, #4]
     83a:	2b00      	cmp	r3, #0
     83c:	d103      	bne.n	846 <xQueueGenericSend+0xf6>
     83e:	f007 fad9 	bl	7df4 <vPortExitCritical>
     842:	2300      	movs	r3, #0
     844:	e051      	b.n	8ea <xQueueGenericSend+0x19a>
     846:	6a7b      	ldr	r3, [r7, #36]	; 0x24
     848:	2b00      	cmp	r3, #0
     84a:	d106      	bne.n	85a <xQueueGenericSend+0x10a>
     84c:	f107 0314 	add.w	r3, r7, #20
     850:	4618      	mov	r0, r3
     852:	f002 f9a1 	bl	2b98 <vTaskSetTimeOutState>
     856:	2301      	movs	r3, #1
     858:	627b      	str	r3, [r7, #36]	; 0x24
     85a:	f007 facb 	bl	7df4 <vPortExitCritical>
     85e:	f001 f9e3 	bl	1c28 <vTaskSuspendAll>
     862:	f007 faa9 	bl	7db8 <vPortEnterCritical>
     866:	6a3b      	ldr	r3, [r7, #32]
     868:	6c5b      	ldr	r3, [r3, #68]	; 0x44
     86a:	f1b3 3fff 	cmp.w	r3, #4294967295
     86e:	d102      	bne.n	876 <xQueueGenericSend+0x126>
     870:	6a3b      	ldr	r3, [r7, #32]
     872:	2200      	movs	r2, #0
     874:	645a      	str	r2, [r3, #68]	; 0x44
     876:	6a3b      	ldr	r3, [r7, #32]
     878:	6c9b      	ldr	r3, [r3, #72]	; 0x48
     87a:	f1b3 3fff 	cmp.w	r3, #4294967295
     87e:	d102      	bne.n	886 <xQueueGenericSend+0x136>
     880:	6a3b      	ldr	r3, [r7, #32]
     882:	2200      	movs	r2, #0
     884:	649a      	str	r2, [r3, #72]	; 0x48
     886:	f007 fab5 	bl	7df4 <vPortExitCritical>
     88a:	1d3a      	adds	r2, r7, #4
     88c:	f107 0314 	add.w	r3, r7, #20
     890:	4611      	mov	r1, r2
     892:	4618      	mov	r0, r3
     894:	f002 f99e 	bl	2bd4 <xTaskCheckForTimeOut>
     898:	4603      	mov	r3, r0
     89a:	2b00      	cmp	r3, #0
     89c:	d11f      	bne.n	8de <xQueueGenericSend+0x18e>
     89e:	6a38      	ldr	r0, [r7, #32]
     8a0:	f000 fdbc 	bl	141c <prvIsQueueFull>
     8a4:	4603      	mov	r3, r0
     8a6:	2b00      	cmp	r3, #0
     8a8:	d013      	beq.n	8d2 <xQueueGenericSend+0x182>
     8aa:	6a3b      	ldr	r3, [r7, #32]
     8ac:	3310      	adds	r3, #16
     8ae:	687a      	ldr	r2, [r7, #4]
     8b0:	4611      	mov	r1, r2
     8b2:	4618      	mov	r0, r3
     8b4:	f001 ff3e 	bl	2734 <vTaskPlaceOnEventList>
     8b8:	6a38      	ldr	r0, [r7, #32]
     8ba:	f000 fd4d 	bl	1358 <prvUnlockQueue>
     8be:	f001 f9c1 	bl	1c44 <xTaskResumeAll>
     8c2:	4603      	mov	r3, r0
     8c4:	2b00      	cmp	r3, #0
     8c6:	d18a      	bne.n	7de <xQueueGenericSend+0x8e>
     8c8:	4b0a      	ldr	r3, [pc, #40]	; (8f4 <xQueueGenericSend+0x1a4>)
     8ca:	f04f 5280 	mov.w	r2, #268435456	; 0x10000000
     8ce:	601a      	str	r2, [r3, #0]
     8d0:	e785      	b.n	7de <xQueueGenericSend+0x8e>
     8d2:	6a38      	ldr	r0, [r7, #32]
     8d4:	f000 fd40 	bl	1358 <prvUnlockQueue>
     8d8:	f001 f9b4 	bl	1c44 <xTaskResumeAll>
     8dc:	e77f      	b.n	7de <xQueueGenericSend+0x8e>
     8de:	6a38      	ldr	r0, [r7, #32]
     8e0:	f000 fd3a 	bl	1358 <prvUnlockQueue>
     8e4:	f001 f9ae 	bl	1c44 <xTaskResumeAll>
     8e8:	2300      	movs	r3, #0
     8ea:	4618      	mov	r0, r3
     8ec:	3728      	adds	r7, #40	; 0x28
     8ee:	46bd      	mov	sp, r7
     8f0:	bd80      	pop	{r7, pc}
     8f2:	bf00      	nop
     8f4:	e000ed04 	.word	0xe000ed04

000008f8 <xQueuePeekFromISR>:
     8f8:	b580      	push	{r7, lr}
     8fa:	b086      	sub	sp, #24
     8fc:	af00      	add	r7, sp, #0
     8fe:	6078      	str	r0, [r7, #4]
     900:	6039      	str	r1, [r7, #0]
     902:	687b      	ldr	r3, [r7, #4]
     904:	613b      	str	r3, [r7, #16]
     906:	693b      	ldr	r3, [r7, #16]
     908:	2b00      	cmp	r3, #0
     90a:	d104      	bne.n	916 <xQueuePeekFromISR+0x1e>
     90c:	f04f 0028 	mov.w	r0, #40	; 0x28
     910:	f380 8811 	msr	BASEPRI, r0
     914:	e7fe      	b.n	914 <xQueuePeekFromISR+0x1c>
     916:	683b      	ldr	r3, [r7, #0]
     918:	2b00      	cmp	r3, #0
     91a:	d103      	bne.n	924 <xQueuePeekFromISR+0x2c>
     91c:	693b      	ldr	r3, [r7, #16]
     91e:	6c1b      	ldr	r3, [r3, #64]	; 0x40
     920:	2b00      	cmp	r3, #0
     922:	d101      	bne.n	928 <xQueuePeekFromISR+0x30>
     924:	2301      	movs	r3, #1
     926:	e000      	b.n	92a <xQueuePeekFromISR+0x32>
     928:	2300      	movs	r3, #0
     92a:	2b00      	cmp	r3, #0
     92c:	d104      	bne.n	938 <xQueuePeekFromISR+0x40>
     92e:	f04f 0028 	mov.w	r0, #40	; 0x28
     932:	f380 8811 	msr	BASEPRI, r0
     936:	e7fe      	b.n	936 <xQueuePeekFromISR+0x3e>
     938:	693b      	ldr	r3, [r7, #16]
     93a:	6c1b      	ldr	r3, [r3, #64]	; 0x40
     93c:	2b00      	cmp	r3, #0
     93e:	d104      	bne.n	94a <xQueuePeekFromISR+0x52>
     940:	f04f 0028 	mov.w	r0, #40	; 0x28
     944:	f380 8811 	msr	BASEPRI, r0
     948:	e7fe      	b.n	948 <xQueuePeekFromISR+0x50>
     94a:	2300      	movs	r3, #0
     94c:	60fb      	str	r3, [r7, #12]
     94e:	f04f 0028 	mov.w	r0, #40	; 0x28
     952:	f380 8811 	msr	BASEPRI, r0
     956:	693b      	ldr	r3, [r7, #16]
     958:	6b9b      	ldr	r3, [r3, #56]	; 0x38
     95a:	2b00      	cmp	r3, #0
     95c:	d00c      	beq.n	978 <xQueuePeekFromISR+0x80>
     95e:	693b      	ldr	r3, [r7, #16]
     960:	68db      	ldr	r3, [r3, #12]
     962:	60bb      	str	r3, [r7, #8]
     964:	6839      	ldr	r1, [r7, #0]
     966:	6938      	ldr	r0, [r7, #16]
     968:	f000 fddc 	bl	1524 <prvCopyDataFromQueue>
     96c:	693b      	ldr	r3, [r7, #16]
     96e:	68ba      	ldr	r2, [r7, #8]
     970:	60da      	str	r2, [r3, #12]
     972:	2301      	movs	r3, #1
     974:	617b      	str	r3, [r7, #20]
     976:	e001      	b.n	97c <xQueuePeekFromISR+0x84>
     978:	2300      	movs	r3, #0
     97a:	617b      	str	r3, [r7, #20]
     97c:	f04f 0000 	mov.w	r0, #0
     980:	f380 8811 	msr	BASEPRI, r0
     984:	697b      	ldr	r3, [r7, #20]
     986:	4618      	mov	r0, r3
     988:	3718      	adds	r7, #24
     98a:	46bd      	mov	sp, r7
     98c:	bd80      	pop	{r7, pc}
     98e:	bf00      	nop

00000990 <xQueueGenericReceive>:
     990:	b580      	push	{r7, lr}
     992:	b08a      	sub	sp, #40	; 0x28
     994:	af00      	add	r7, sp, #0
     996:	60f8      	str	r0, [r7, #12]
     998:	60b9      	str	r1, [r7, #8]
     99a:	607a      	str	r2, [r7, #4]
     99c:	603b      	str	r3, [r7, #0]
     99e:	2300      	movs	r3, #0
     9a0:	627b      	str	r3, [r7, #36]	; 0x24
     9a2:	68fb      	ldr	r3, [r7, #12]
     9a4:	623b      	str	r3, [r7, #32]
     9a6:	6a3b      	ldr	r3, [r7, #32]
     9a8:	2b00      	cmp	r3, #0
     9aa:	d104      	bne.n	9b6 <xQueueGenericReceive+0x26>
     9ac:	f04f 0028 	mov.w	r0, #40	; 0x28
     9b0:	f380 8811 	msr	BASEPRI, r0
     9b4:	e7fe      	b.n	9b4 <xQueueGenericReceive+0x24>
     9b6:	68bb      	ldr	r3, [r7, #8]
     9b8:	2b00      	cmp	r3, #0
     9ba:	d103      	bne.n	9c4 <xQueueGenericReceive+0x34>
     9bc:	6a3b      	ldr	r3, [r7, #32]
     9be:	6c1b      	ldr	r3, [r3, #64]	; 0x40
     9c0:	2b00      	cmp	r3, #0
     9c2:	d101      	bne.n	9c8 <xQueueGenericReceive+0x38>
     9c4:	2301      	movs	r3, #1
     9c6:	e000      	b.n	9ca <xQueueGenericReceive+0x3a>
     9c8:	2300      	movs	r3, #0
     9ca:	2b00      	cmp	r3, #0
     9cc:	d104      	bne.n	9d8 <xQueueGenericReceive+0x48>
     9ce:	f04f 0028 	mov.w	r0, #40	; 0x28
     9d2:	f380 8811 	msr	BASEPRI, r0
     9d6:	e7fe      	b.n	9d6 <xQueueGenericReceive+0x46>
     9d8:	f002 f95c 	bl	2c94 <xTaskGetSchedulerState>
     9dc:	4603      	mov	r3, r0
     9de:	2b00      	cmp	r3, #0
     9e0:	d102      	bne.n	9e8 <xQueueGenericReceive+0x58>
     9e2:	687b      	ldr	r3, [r7, #4]
     9e4:	2b00      	cmp	r3, #0
     9e6:	d101      	bne.n	9ec <xQueueGenericReceive+0x5c>
     9e8:	2301      	movs	r3, #1
     9ea:	e000      	b.n	9ee <xQueueGenericReceive+0x5e>
     9ec:	2300      	movs	r3, #0
     9ee:	2b00      	cmp	r3, #0
     9f0:	d104      	bne.n	9fc <xQueueGenericReceive+0x6c>
     9f2:	f04f 0028 	mov.w	r0, #40	; 0x28
     9f6:	f380 8811 	msr	BASEPRI, r0
     9fa:	e7fe      	b.n	9fa <xQueueGenericReceive+0x6a>
     9fc:	f007 f9dc 	bl	7db8 <vPortEnterCritical>
     a00:	6a3b      	ldr	r3, [r7, #32]
     a02:	6b9b      	ldr	r3, [r3, #56]	; 0x38
     a04:	2b00      	cmp	r3, #0
     a06:	d03f      	beq.n	a88 <xQueueGenericReceive+0xf8>
     a08:	6a3b      	ldr	r3, [r7, #32]
     a0a:	68db      	ldr	r3, [r3, #12]
     a0c:	61fb      	str	r3, [r7, #28]
     a0e:	68b9      	ldr	r1, [r7, #8]
     a10:	6a38      	ldr	r0, [r7, #32]
     a12:	f000 fd87 	bl	1524 <prvCopyDataFromQueue>
     a16:	683b      	ldr	r3, [r7, #0]
     a18:	2b00      	cmp	r3, #0
     a1a:	d11e      	bne.n	a5a <xQueueGenericReceive+0xca>
     a1c:	6a3b      	ldr	r3, [r7, #32]
     a1e:	6b9b      	ldr	r3, [r3, #56]	; 0x38
     a20:	1e5a      	subs	r2, r3, #1
     a22:	6a3b      	ldr	r3, [r7, #32]
     a24:	639a      	str	r2, [r3, #56]	; 0x38
     a26:	6a3b      	ldr	r3, [r7, #32]
     a28:	681b      	ldr	r3, [r3, #0]
     a2a:	2b00      	cmp	r3, #0
     a2c:	d104      	bne.n	a38 <xQueueGenericReceive+0xa8>
     a2e:	f002 fb0f 	bl	3050 <pvTaskIncrementMutexHeldCount>
     a32:	4602      	mov	r2, r0
     a34:	6a3b      	ldr	r3, [r7, #32]
     a36:	605a      	str	r2, [r3, #4]
     a38:	6a3b      	ldr	r3, [r7, #32]
     a3a:	691b      	ldr	r3, [r3, #16]
     a3c:	2b00      	cmp	r3, #0
     a3e:	d01f      	beq.n	a80 <xQueueGenericReceive+0xf0>
     a40:	6a3b      	ldr	r3, [r7, #32]
     a42:	3310      	adds	r3, #16
     a44:	4618      	mov	r0, r3
     a46:	f001 ff2f 	bl	28a8 <xTaskRemoveFromEventList>
     a4a:	4603      	mov	r3, r0
     a4c:	2b01      	cmp	r3, #1
     a4e:	d117      	bne.n	a80 <xQueueGenericReceive+0xf0>
     a50:	4b43      	ldr	r3, [pc, #268]	; (b60 <xQueueGenericReceive+0x1d0>)
     a52:	f04f 5280 	mov.w	r2, #268435456	; 0x10000000
     a56:	601a      	str	r2, [r3, #0]
     a58:	e012      	b.n	a80 <xQueueGenericReceive+0xf0>
     a5a:	6a3b      	ldr	r3, [r7, #32]
     a5c:	69fa      	ldr	r2, [r7, #28]
     a5e:	60da      	str	r2, [r3, #12]
     a60:	6a3b      	ldr	r3, [r7, #32]
     a62:	6a5b      	ldr	r3, [r3, #36]	; 0x24
     a64:	2b00      	cmp	r3, #0
     a66:	d00b      	beq.n	a80 <xQueueGenericReceive+0xf0>
     a68:	6a3b      	ldr	r3, [r7, #32]
     a6a:	3324      	adds	r3, #36	; 0x24
     a6c:	4618      	mov	r0, r3
     a6e:	f001 ff1b 	bl	28a8 <xTaskRemoveFromEventList>
     a72:	4603      	mov	r3, r0
     a74:	2b00      	cmp	r3, #0
     a76:	d003      	beq.n	a80 <xQueueGenericReceive+0xf0>
     a78:	4b39      	ldr	r3, [pc, #228]	; (b60 <xQueueGenericReceive+0x1d0>)
     a7a:	f04f 5280 	mov.w	r2, #268435456	; 0x10000000
     a7e:	601a      	str	r2, [r3, #0]
     a80:	f007 f9b8 	bl	7df4 <vPortExitCritical>
     a84:	2301      	movs	r3, #1
     a86:	e066      	b.n	b56 <xQueueGenericReceive+0x1c6>
     a88:	687b      	ldr	r3, [r7, #4]
     a8a:	2b00      	cmp	r3, #0
     a8c:	d103      	bne.n	a96 <xQueueGenericReceive+0x106>
     a8e:	f007 f9b1 	bl	7df4 <vPortExitCritical>
     a92:	2300      	movs	r3, #0
     a94:	e05f      	b.n	b56 <xQueueGenericReceive+0x1c6>
     a96:	6a7b      	ldr	r3, [r7, #36]	; 0x24
     a98:	2b00      	cmp	r3, #0
     a9a:	d106      	bne.n	aaa <xQueueGenericReceive+0x11a>
     a9c:	f107 0314 	add.w	r3, r7, #20
     aa0:	4618      	mov	r0, r3
     aa2:	f002 f879 	bl	2b98 <vTaskSetTimeOutState>
     aa6:	2301      	movs	r3, #1
     aa8:	627b      	str	r3, [r7, #36]	; 0x24
     aaa:	f007 f9a3 	bl	7df4 <vPortExitCritical>
     aae:	f001 f8bb 	bl	1c28 <vTaskSuspendAll>
     ab2:	f007 f981 	bl	7db8 <vPortEnterCritical>
     ab6:	6a3b      	ldr	r3, [r7, #32]
     ab8:	6c5b      	ldr	r3, [r3, #68]	; 0x44
     aba:	f1b3 3fff 	cmp.w	r3, #4294967295
     abe:	d102      	bne.n	ac6 <xQueueGenericReceive+0x136>
     ac0:	6a3b      	ldr	r3, [r7, #32]
     ac2:	2200      	movs	r2, #0
     ac4:	645a      	str	r2, [r3, #68]	; 0x44
     ac6:	6a3b      	ldr	r3, [r7, #32]
     ac8:	6c9b      	ldr	r3, [r3, #72]	; 0x48
     aca:	f1b3 3fff 	cmp.w	r3, #4294967295
     ace:	d102      	bne.n	ad6 <xQueueGenericReceive+0x146>
     ad0:	6a3b      	ldr	r3, [r7, #32]
     ad2:	2200      	movs	r2, #0
     ad4:	649a      	str	r2, [r3, #72]	; 0x48
     ad6:	f007 f98d 	bl	7df4 <vPortExitCritical>
     ada:	1d3a      	adds	r2, r7, #4
     adc:	f107 0314 	add.w	r3, r7, #20
     ae0:	4611      	mov	r1, r2
     ae2:	4618      	mov	r0, r3
     ae4:	f002 f876 	bl	2bd4 <xTaskCheckForTimeOut>
     ae8:	4603      	mov	r3, r0
     aea:	2b00      	cmp	r3, #0
     aec:	d12d      	bne.n	b4a <xQueueGenericReceive+0x1ba>
     aee:	6a38      	ldr	r0, [r7, #32]
     af0:	f000 fc7e 	bl	13f0 <prvIsQueueEmpty>
     af4:	4603      	mov	r3, r0
     af6:	2b00      	cmp	r3, #0
     af8:	d021      	beq.n	b3e <xQueueGenericReceive+0x1ae>
     afa:	6a3b      	ldr	r3, [r7, #32]
     afc:	681b      	ldr	r3, [r3, #0]
     afe:	2b00      	cmp	r3, #0
     b00:	d108      	bne.n	b14 <xQueueGenericReceive+0x184>
     b02:	f007 f959 	bl	7db8 <vPortEnterCritical>
     b06:	6a3b      	ldr	r3, [r7, #32]
     b08:	685b      	ldr	r3, [r3, #4]
     b0a:	4618      	mov	r0, r3
     b0c:	f002 f8e0 	bl	2cd0 <vTaskPriorityInherit>
     b10:	f007 f970 	bl	7df4 <vPortExitCritical>
     b14:	6a3b      	ldr	r3, [r7, #32]
     b16:	3324      	adds	r3, #36	; 0x24
     b18:	687a      	ldr	r2, [r7, #4]
     b1a:	4611      	mov	r1, r2
     b1c:	4618      	mov	r0, r3
     b1e:	f001 fe09 	bl	2734 <vTaskPlaceOnEventList>
     b22:	6a38      	ldr	r0, [r7, #32]
     b24:	f000 fc18 	bl	1358 <prvUnlockQueue>
     b28:	f001 f88c 	bl	1c44 <xTaskResumeAll>
     b2c:	4603      	mov	r3, r0
     b2e:	2b00      	cmp	r3, #0
     b30:	f47f af64 	bne.w	9fc <xQueueGenericReceive+0x6c>
     b34:	4b0a      	ldr	r3, [pc, #40]	; (b60 <xQueueGenericReceive+0x1d0>)
     b36:	f04f 5280 	mov.w	r2, #268435456	; 0x10000000
     b3a:	601a      	str	r2, [r3, #0]
     b3c:	e75e      	b.n	9fc <xQueueGenericReceive+0x6c>
     b3e:	6a38      	ldr	r0, [r7, #32]
     b40:	f000 fc0a 	bl	1358 <prvUnlockQueue>
     b44:	f001 f87e 	bl	1c44 <xTaskResumeAll>
     b48:	e758      	b.n	9fc <xQueueGenericReceive+0x6c>
     b4a:	6a38      	ldr	r0, [r7, #32]
     b4c:	f000 fc04 	bl	1358 <prvUnlockQueue>
     b50:	f001 f878 	bl	1c44 <xTaskResumeAll>
     b54:	2300      	movs	r3, #0
     b56:	4618      	mov	r0, r3
     b58:	3728      	adds	r7, #40	; 0x28
     b5a:	46bd      	mov	sp, r7
     b5c:	bd80      	pop	{r7, pc}
     b5e:	bf00      	nop
     b60:	e000ed04 	.word	0xe000ed04

00000b64 <uxQueueMessagesWaiting>:
     b64:	b580      	push	{r7, lr}
     b66:	b084      	sub	sp, #16
     b68:	af00      	add	r7, sp, #0
     b6a:	6078      	str	r0, [r7, #4]
     b6c:	687b      	ldr	r3, [r7, #4]
     b6e:	2b00      	cmp	r3, #0
     b70:	d104      	bne.n	b7c <uxQueueMessagesWaiting+0x18>
     b72:	f04f 0028 	mov.w	r0, #40	; 0x28
     b76:	f380 8811 	msr	BASEPRI, r0
     b7a:	e7fe      	b.n	b7a <uxQueueMessagesWaiting+0x16>
     b7c:	f007 f91c 	bl	7db8 <vPortEnterCritical>
     b80:	687b      	ldr	r3, [r7, #4]
     b82:	6b9b      	ldr	r3, [r3, #56]	; 0x38
     b84:	60fb      	str	r3, [r7, #12]
     b86:	f007 f935 	bl	7df4 <vPortExitCritical>
     b8a:	68fb      	ldr	r3, [r7, #12]
     b8c:	4618      	mov	r0, r3
     b8e:	3710      	adds	r7, #16
     b90:	46bd      	mov	sp, r7
     b92:	bd80      	pop	{r7, pc}

00000b94 <uxQueueSpacesAvailable>:
     b94:	b580      	push	{r7, lr}
     b96:	b084      	sub	sp, #16
     b98:	af00      	add	r7, sp, #0
     b9a:	6078      	str	r0, [r7, #4]
     b9c:	687b      	ldr	r3, [r7, #4]
     b9e:	60fb      	str	r3, [r7, #12]
     ba0:	68fb      	ldr	r3, [r7, #12]
     ba2:	2b00      	cmp	r3, #0
     ba4:	d104      	bne.n	bb0 <uxQueueSpacesAvailable+0x1c>
     ba6:	f04f 0028 	mov.w	r0, #40	; 0x28
     baa:	f380 8811 	msr	BASEPRI, r0
     bae:	e7fe      	b.n	bae <uxQueueSpacesAvailable+0x1a>
     bb0:	f007 f902 	bl	7db8 <vPortEnterCritical>
     bb4:	68fb      	ldr	r3, [r7, #12]
     bb6:	6bda      	ldr	r2, [r3, #60]	; 0x3c
     bb8:	68fb      	ldr	r3, [r7, #12]
     bba:	6b9b      	ldr	r3, [r3, #56]	; 0x38
     bbc:	1ad3      	subs	r3, r2, r3
     bbe:	60bb      	str	r3, [r7, #8]
     bc0:	f007 f918 	bl	7df4 <vPortExitCritical>
     bc4:	68bb      	ldr	r3, [r7, #8]
     bc6:	4618      	mov	r0, r3
     bc8:	3710      	adds	r7, #16
     bca:	46bd      	mov	sp, r7
     bcc:	bd80      	pop	{r7, pc}
     bce:	bf00      	nop

00000bd0 <vQueueDelete>:
     bd0:	b580      	push	{r7, lr}
     bd2:	b084      	sub	sp, #16
     bd4:	af00      	add	r7, sp, #0
     bd6:	6078      	str	r0, [r7, #4]
     bd8:	687b      	ldr	r3, [r7, #4]
     bda:	60fb      	str	r3, [r7, #12]
     bdc:	68fb      	ldr	r3, [r7, #12]
     bde:	2b00      	cmp	r3, #0
     be0:	d104      	bne.n	bec <vQueueDelete+0x1c>
     be2:	f04f 0028 	mov.w	r0, #40	; 0x28
     be6:	f380 8811 	msr	BASEPRI, r0
     bea:	e7fe      	b.n	bea <vQueueDelete+0x1a>
     bec:	68f8      	ldr	r0, [r7, #12]
     bee:	f000 fa8f 	bl	1110 <vQueueUnregisterQueue>
     bf2:	68f8      	ldr	r0, [r7, #12]
     bf4:	f7ff fafc 	bl	1f0 <vPortFree>
     bf8:	bf00      	nop
     bfa:	3710      	adds	r7, #16
     bfc:	46bd      	mov	sp, r7
     bfe:	bd80      	pop	{r7, pc}

00000c00 <xQueueGenericSendFromISR>:
     c00:	b580      	push	{r7, lr}
     c02:	b088      	sub	sp, #32
     c04:	af00      	add	r7, sp, #0
     c06:	60f8      	str	r0, [r7, #12]
     c08:	60b9      	str	r1, [r7, #8]
     c0a:	607a      	str	r2, [r7, #4]
     c0c:	603b      	str	r3, [r7, #0]
     c0e:	68fb      	ldr	r3, [r7, #12]
     c10:	61bb      	str	r3, [r7, #24]
     c12:	69bb      	ldr	r3, [r7, #24]
     c14:	2b00      	cmp	r3, #0
     c16:	d104      	bne.n	c22 <xQueueGenericSendFromISR+0x22>
     c18:	f04f 0028 	mov.w	r0, #40	; 0x28
     c1c:	f380 8811 	msr	BASEPRI, r0
     c20:	e7fe      	b.n	c20 <xQueueGenericSendFromISR+0x20>
     c22:	68bb      	ldr	r3, [r7, #8]
     c24:	2b00      	cmp	r3, #0
     c26:	d103      	bne.n	c30 <xQueueGenericSendFromISR+0x30>
     c28:	69bb      	ldr	r3, [r7, #24]
     c2a:	6c1b      	ldr	r3, [r3, #64]	; 0x40
     c2c:	2b00      	cmp	r3, #0
     c2e:	d101      	bne.n	c34 <xQueueGenericSendFromISR+0x34>
     c30:	2301      	movs	r3, #1
     c32:	e000      	b.n	c36 <xQueueGenericSendFromISR+0x36>
     c34:	2300      	movs	r3, #0
     c36:	2b00      	cmp	r3, #0
     c38:	d104      	bne.n	c44 <xQueueGenericSendFromISR+0x44>
     c3a:	f04f 0028 	mov.w	r0, #40	; 0x28
     c3e:	f380 8811 	msr	BASEPRI, r0
     c42:	e7fe      	b.n	c42 <xQueueGenericSendFromISR+0x42>
     c44:	683b      	ldr	r3, [r7, #0]
     c46:	2b02      	cmp	r3, #2
     c48:	d103      	bne.n	c52 <xQueueGenericSendFromISR+0x52>
     c4a:	69bb      	ldr	r3, [r7, #24]
     c4c:	6bdb      	ldr	r3, [r3, #60]	; 0x3c
     c4e:	2b01      	cmp	r3, #1
     c50:	d101      	bne.n	c56 <xQueueGenericSendFromISR+0x56>
     c52:	2301      	movs	r3, #1
     c54:	e000      	b.n	c58 <xQueueGenericSendFromISR+0x58>
     c56:	2300      	movs	r3, #0
     c58:	2b00      	cmp	r3, #0
     c5a:	d104      	bne.n	c66 <xQueueGenericSendFromISR+0x66>
     c5c:	f04f 0028 	mov.w	r0, #40	; 0x28
     c60:	f380 8811 	msr	BASEPRI, r0
     c64:	e7fe      	b.n	c64 <xQueueGenericSendFromISR+0x64>
     c66:	2300      	movs	r3, #0
     c68:	617b      	str	r3, [r7, #20]
     c6a:	f04f 0028 	mov.w	r0, #40	; 0x28
     c6e:	f380 8811 	msr	BASEPRI, r0
     c72:	69bb      	ldr	r3, [r7, #24]
     c74:	6b9a      	ldr	r2, [r3, #56]	; 0x38
     c76:	69bb      	ldr	r3, [r7, #24]
     c78:	6bdb      	ldr	r3, [r3, #60]	; 0x3c
     c7a:	429a      	cmp	r2, r3
     c7c:	d302      	bcc.n	c84 <xQueueGenericSendFromISR+0x84>
     c7e:	683b      	ldr	r3, [r7, #0]
     c80:	2b02      	cmp	r3, #2
     c82:	d124      	bne.n	cce <xQueueGenericSendFromISR+0xce>
     c84:	683a      	ldr	r2, [r7, #0]
     c86:	68b9      	ldr	r1, [r7, #8]
     c88:	69b8      	ldr	r0, [r7, #24]
     c8a:	f000 fbdf 	bl	144c <prvCopyDataToQueue>
     c8e:	69bb      	ldr	r3, [r7, #24]
     c90:	6c9b      	ldr	r3, [r3, #72]	; 0x48
     c92:	f1b3 3fff 	cmp.w	r3, #4294967295
     c96:	d112      	bne.n	cbe <xQueueGenericSendFromISR+0xbe>
     c98:	69bb      	ldr	r3, [r7, #24]
     c9a:	6a5b      	ldr	r3, [r3, #36]	; 0x24
     c9c:	2b00      	cmp	r3, #0
     c9e:	d013      	beq.n	cc8 <xQueueGenericSendFromISR+0xc8>
     ca0:	69bb      	ldr	r3, [r7, #24]
     ca2:	3324      	adds	r3, #36	; 0x24
     ca4:	4618      	mov	r0, r3
     ca6:	f001 fdff 	bl	28a8 <xTaskRemoveFromEventList>
     caa:	4603      	mov	r3, r0
     cac:	2b00      	cmp	r3, #0
     cae:	d00b      	beq.n	cc8 <xQueueGenericSendFromISR+0xc8>
     cb0:	687b      	ldr	r3, [r7, #4]
     cb2:	2b00      	cmp	r3, #0
     cb4:	d008      	beq.n	cc8 <xQueueGenericSendFromISR+0xc8>
     cb6:	687b      	ldr	r3, [r7, #4]
     cb8:	2201      	movs	r2, #1
     cba:	601a      	str	r2, [r3, #0]
     cbc:	e004      	b.n	cc8 <xQueueGenericSendFromISR+0xc8>
     cbe:	69bb      	ldr	r3, [r7, #24]
     cc0:	6c9b      	ldr	r3, [r3, #72]	; 0x48
     cc2:	1c5a      	adds	r2, r3, #1
     cc4:	69bb      	ldr	r3, [r7, #24]
     cc6:	649a      	str	r2, [r3, #72]	; 0x48
     cc8:	2301      	movs	r3, #1
     cca:	61fb      	str	r3, [r7, #28]
     ccc:	e001      	b.n	cd2 <xQueueGenericSendFromISR+0xd2>
     cce:	2300      	movs	r3, #0
     cd0:	61fb      	str	r3, [r7, #28]
     cd2:	f04f 0000 	mov.w	r0, #0
     cd6:	f380 8811 	msr	BASEPRI, r0
     cda:	69fb      	ldr	r3, [r7, #28]
     cdc:	4618      	mov	r0, r3
     cde:	3720      	adds	r7, #32
     ce0:	46bd      	mov	sp, r7
     ce2:	bd80      	pop	{r7, pc}

00000ce4 <xQueueGiveFromISR>:
     ce4:	b580      	push	{r7, lr}
     ce6:	b086      	sub	sp, #24
     ce8:	af00      	add	r7, sp, #0
     cea:	6078      	str	r0, [r7, #4]
     cec:	6039      	str	r1, [r7, #0]
     cee:	687b      	ldr	r3, [r7, #4]
     cf0:	613b      	str	r3, [r7, #16]
     cf2:	693b      	ldr	r3, [r7, #16]
     cf4:	2b00      	cmp	r3, #0
     cf6:	d104      	bne.n	d02 <xQueueGiveFromISR+0x1e>
     cf8:	f04f 0028 	mov.w	r0, #40	; 0x28
     cfc:	f380 8811 	msr	BASEPRI, r0
     d00:	e7fe      	b.n	d00 <xQueueGiveFromISR+0x1c>
     d02:	693b      	ldr	r3, [r7, #16]
     d04:	6c1b      	ldr	r3, [r3, #64]	; 0x40
     d06:	2b00      	cmp	r3, #0
     d08:	d004      	beq.n	d14 <xQueueGiveFromISR+0x30>
     d0a:	f04f 0028 	mov.w	r0, #40	; 0x28
     d0e:	f380 8811 	msr	BASEPRI, r0
     d12:	e7fe      	b.n	d12 <xQueueGiveFromISR+0x2e>
     d14:	2300      	movs	r3, #0
     d16:	60fb      	str	r3, [r7, #12]
     d18:	f04f 0028 	mov.w	r0, #40	; 0x28
     d1c:	f380 8811 	msr	BASEPRI, r0
     d20:	693b      	ldr	r3, [r7, #16]
     d22:	6b9a      	ldr	r2, [r3, #56]	; 0x38
     d24:	693b      	ldr	r3, [r7, #16]
     d26:	6bdb      	ldr	r3, [r3, #60]	; 0x3c
     d28:	429a      	cmp	r2, r3
     d2a:	d224      	bcs.n	d76 <xQueueGiveFromISR+0x92>
     d2c:	693b      	ldr	r3, [r7, #16]
     d2e:	6b9b      	ldr	r3, [r3, #56]	; 0x38
     d30:	1c5a      	adds	r2, r3, #1
     d32:	693b      	ldr	r3, [r7, #16]
     d34:	639a      	str	r2, [r3, #56]	; 0x38
     d36:	693b      	ldr	r3, [r7, #16]
     d38:	6c9b      	ldr	r3, [r3, #72]	; 0x48
     d3a:	f1b3 3fff 	cmp.w	r3, #4294967295
     d3e:	d112      	bne.n	d66 <xQueueGiveFromISR+0x82>
     d40:	693b      	ldr	r3, [r7, #16]
     d42:	6a5b      	ldr	r3, [r3, #36]	; 0x24
     d44:	2b00      	cmp	r3, #0
     d46:	d013      	beq.n	d70 <xQueueGiveFromISR+0x8c>
     d48:	693b      	ldr	r3, [r7, #16]
     d4a:	3324      	adds	r3, #36	; 0x24
     d4c:	4618      	mov	r0, r3
     d4e:	f001 fdab 	bl	28a8 <xTaskRemoveFromEventList>
     d52:	4603      	mov	r3, r0
     d54:	2b00      	cmp	r3, #0
     d56:	d00b      	beq.n	d70 <xQueueGiveFromISR+0x8c>
     d58:	683b      	ldr	r3, [r7, #0]
     d5a:	2b00      	cmp	r3, #0
     d5c:	d008      	beq.n	d70 <xQueueGiveFromISR+0x8c>
     d5e:	683b      	ldr	r3, [r7, #0]
     d60:	2201      	movs	r2, #1
     d62:	601a      	str	r2, [r3, #0]
     d64:	e004      	b.n	d70 <xQueueGiveFromISR+0x8c>
     d66:	693b      	ldr	r3, [r7, #16]
     d68:	6c9b      	ldr	r3, [r3, #72]	; 0x48
     d6a:	1c5a      	adds	r2, r3, #1
     d6c:	693b      	ldr	r3, [r7, #16]
     d6e:	649a      	str	r2, [r3, #72]	; 0x48
     d70:	2301      	movs	r3, #1
     d72:	617b      	str	r3, [r7, #20]
     d74:	e001      	b.n	d7a <xQueueGiveFromISR+0x96>
     d76:	2300      	movs	r3, #0
     d78:	617b      	str	r3, [r7, #20]
     d7a:	f04f 0000 	mov.w	r0, #0
     d7e:	f380 8811 	msr	BASEPRI, r0
     d82:	697b      	ldr	r3, [r7, #20]
     d84:	4618      	mov	r0, r3
     d86:	3718      	adds	r7, #24
     d88:	46bd      	mov	sp, r7
     d8a:	bd80      	pop	{r7, pc}

00000d8c <xQueueReceiveFromISR>:
     d8c:	b580      	push	{r7, lr}
     d8e:	b088      	sub	sp, #32
     d90:	af00      	add	r7, sp, #0
     d92:	60f8      	str	r0, [r7, #12]
     d94:	60b9      	str	r1, [r7, #8]
     d96:	607a      	str	r2, [r7, #4]
     d98:	68fb      	ldr	r3, [r7, #12]
     d9a:	61bb      	str	r3, [r7, #24]
     d9c:	69bb      	ldr	r3, [r7, #24]
     d9e:	2b00      	cmp	r3, #0
     da0:	d104      	bne.n	dac <xQueueReceiveFromISR+0x20>
     da2:	f04f 0028 	mov.w	r0, #40	; 0x28
     da6:	f380 8811 	msr	BASEPRI, r0
     daa:	e7fe      	b.n	daa <xQueueReceiveFromISR+0x1e>
     dac:	68bb      	ldr	r3, [r7, #8]
     dae:	2b00      	cmp	r3, #0
     db0:	d103      	bne.n	dba <xQueueReceiveFromISR+0x2e>
     db2:	69bb      	ldr	r3, [r7, #24]
     db4:	6c1b      	ldr	r3, [r3, #64]	; 0x40
     db6:	2b00      	cmp	r3, #0
     db8:	d101      	bne.n	dbe <xQueueReceiveFromISR+0x32>
     dba:	2301      	movs	r3, #1
     dbc:	e000      	b.n	dc0 <xQueueReceiveFromISR+0x34>
     dbe:	2300      	movs	r3, #0
     dc0:	2b00      	cmp	r3, #0
     dc2:	d104      	bne.n	dce <xQueueReceiveFromISR+0x42>
     dc4:	f04f 0028 	mov.w	r0, #40	; 0x28
     dc8:	f380 8811 	msr	BASEPRI, r0
     dcc:	e7fe      	b.n	dcc <xQueueReceiveFromISR+0x40>
     dce:	2300      	movs	r3, #0
     dd0:	617b      	str	r3, [r7, #20]
     dd2:	f04f 0028 	mov.w	r0, #40	; 0x28
     dd6:	f380 8811 	msr	BASEPRI, r0
     dda:	69bb      	ldr	r3, [r7, #24]
     ddc:	6b9b      	ldr	r3, [r3, #56]	; 0x38
     dde:	2b00      	cmp	r3, #0
     de0:	d028      	beq.n	e34 <xQueueReceiveFromISR+0xa8>
     de2:	68b9      	ldr	r1, [r7, #8]
     de4:	69b8      	ldr	r0, [r7, #24]
     de6:	f000 fb9d 	bl	1524 <prvCopyDataFromQueue>
     dea:	69bb      	ldr	r3, [r7, #24]
     dec:	6b9b      	ldr	r3, [r3, #56]	; 0x38
     dee:	1e5a      	subs	r2, r3, #1
     df0:	69bb      	ldr	r3, [r7, #24]
     df2:	639a      	str	r2, [r3, #56]	; 0x38
     df4:	69bb      	ldr	r3, [r7, #24]
     df6:	6c5b      	ldr	r3, [r3, #68]	; 0x44
     df8:	f1b3 3fff 	cmp.w	r3, #4294967295
     dfc:	d112      	bne.n	e24 <xQueueReceiveFromISR+0x98>
     dfe:	69bb      	ldr	r3, [r7, #24]
     e00:	691b      	ldr	r3, [r3, #16]
     e02:	2b00      	cmp	r3, #0
     e04:	d013      	beq.n	e2e <xQueueReceiveFromISR+0xa2>
     e06:	69bb      	ldr	r3, [r7, #24]
     e08:	3310      	adds	r3, #16
     e0a:	4618      	mov	r0, r3
     e0c:	f001 fd4c 	bl	28a8 <xTaskRemoveFromEventList>
     e10:	4603      	mov	r3, r0
     e12:	2b00      	cmp	r3, #0
     e14:	d00b      	beq.n	e2e <xQueueReceiveFromISR+0xa2>
     e16:	687b      	ldr	r3, [r7, #4]
     e18:	2b00      	cmp	r3, #0
     e1a:	d008      	beq.n	e2e <xQueueReceiveFromISR+0xa2>
     e1c:	687b      	ldr	r3, [r7, #4]
     e1e:	2201      	movs	r2, #1
     e20:	601a      	str	r2, [r3, #0]
     e22:	e004      	b.n	e2e <xQueueReceiveFromISR+0xa2>
     e24:	69bb      	ldr	r3, [r7, #24]
     e26:	6c5b      	ldr	r3, [r3, #68]	; 0x44
     e28:	1c5a      	adds	r2, r3, #1
     e2a:	69bb      	ldr	r3, [r7, #24]
     e2c:	645a      	str	r2, [r3, #68]	; 0x44
     e2e:	2301      	movs	r3, #1
     e30:	61fb      	str	r3, [r7, #28]
     e32:	e001      	b.n	e38 <xQueueReceiveFromISR+0xac>
     e34:	2300      	movs	r3, #0
     e36:	61fb      	str	r3, [r7, #28]
     e38:	f04f 0000 	mov.w	r0, #0
     e3c:	f380 8811 	msr	BASEPRI, r0
     e40:	69fb      	ldr	r3, [r7, #28]
     e42:	4618      	mov	r0, r3
     e44:	3720      	adds	r7, #32
     e46:	46bd      	mov	sp, r7
     e48:	bd80      	pop	{r7, pc}
     e4a:	bf00      	nop

00000e4c <xQueueIsQueueEmptyFromISR>:
     e4c:	b480      	push	{r7}
     e4e:	b085      	sub	sp, #20
     e50:	af00      	add	r7, sp, #0
     e52:	6078      	str	r0, [r7, #4]
     e54:	687b      	ldr	r3, [r7, #4]
     e56:	2b00      	cmp	r3, #0
     e58:	d104      	bne.n	e64 <xQueueIsQueueEmptyFromISR+0x18>
     e5a:	f04f 0028 	mov.w	r0, #40	; 0x28
     e5e:	f380 8811 	msr	BASEPRI, r0
     e62:	e7fe      	b.n	e62 <xQueueIsQueueEmptyFromISR+0x16>
     e64:	687b      	ldr	r3, [r7, #4]
     e66:	6b9b      	ldr	r3, [r3, #56]	; 0x38
     e68:	2b00      	cmp	r3, #0
     e6a:	d102      	bne.n	e72 <xQueueIsQueueEmptyFromISR+0x26>
     e6c:	2301      	movs	r3, #1
     e6e:	60fb      	str	r3, [r7, #12]
     e70:	e001      	b.n	e76 <xQueueIsQueueEmptyFromISR+0x2a>
     e72:	2300      	movs	r3, #0
     e74:	60fb      	str	r3, [r7, #12]
     e76:	68fb      	ldr	r3, [r7, #12]
     e78:	4618      	mov	r0, r3
     e7a:	3714      	adds	r7, #20
     e7c:	46bd      	mov	sp, r7
     e7e:	bc80      	pop	{r7}
     e80:	4770      	bx	lr
     e82:	bf00      	nop

00000e84 <xQueueIsQueueFullFromISR>:
     e84:	b480      	push	{r7}
     e86:	b085      	sub	sp, #20
     e88:	af00      	add	r7, sp, #0
     e8a:	6078      	str	r0, [r7, #4]
     e8c:	687b      	ldr	r3, [r7, #4]
     e8e:	2b00      	cmp	r3, #0
     e90:	d104      	bne.n	e9c <xQueueIsQueueFullFromISR+0x18>
     e92:	f04f 0028 	mov.w	r0, #40	; 0x28
     e96:	f380 8811 	msr	BASEPRI, r0
     e9a:	e7fe      	b.n	e9a <xQueueIsQueueFullFromISR+0x16>
     e9c:	687b      	ldr	r3, [r7, #4]
     e9e:	6b9a      	ldr	r2, [r3, #56]	; 0x38
     ea0:	687b      	ldr	r3, [r7, #4]
     ea2:	6bdb      	ldr	r3, [r3, #60]	; 0x3c
     ea4:	429a      	cmp	r2, r3
     ea6:	d102      	bne.n	eae <xQueueIsQueueFullFromISR+0x2a>
     ea8:	2301      	movs	r3, #1
     eaa:	60fb      	str	r3, [r7, #12]
     eac:	e001      	b.n	eb2 <xQueueIsQueueFullFromISR+0x2e>
     eae:	2300      	movs	r3, #0
     eb0:	60fb      	str	r3, [r7, #12]
     eb2:	68fb      	ldr	r3, [r7, #12]
     eb4:	4618      	mov	r0, r3
     eb6:	3714      	adds	r7, #20
     eb8:	46bd      	mov	sp, r7
     eba:	bc80      	pop	{r7}
     ebc:	4770      	bx	lr
     ebe:	bf00      	nop

00000ec0 <uxQueueMessagesWaitingFromISR>:
     ec0:	b480      	push	{r7}
     ec2:	b085      	sub	sp, #20
     ec4:	af00      	add	r7, sp, #0
     ec6:	6078      	str	r0, [r7, #4]
     ec8:	687b      	ldr	r3, [r7, #4]
     eca:	2b00      	cmp	r3, #0
     ecc:	d104      	bne.n	ed8 <uxQueueMessagesWaitingFromISR+0x18>
     ece:	f04f 0028 	mov.w	r0, #40	; 0x28
     ed2:	f380 8811 	msr	BASEPRI, r0
     ed6:	e7fe      	b.n	ed6 <uxQueueMessagesWaitingFromISR+0x16>
     ed8:	687b      	ldr	r3, [r7, #4]
     eda:	6b9b      	ldr	r3, [r3, #56]	; 0x38
     edc:	60fb      	str	r3, [r7, #12]
     ede:	68fb      	ldr	r3, [r7, #12]
     ee0:	4618      	mov	r0, r3
     ee2:	3714      	adds	r7, #20
     ee4:	46bd      	mov	sp, r7
     ee6:	bc80      	pop	{r7}
     ee8:	4770      	bx	lr
     eea:	bf00      	nop

00000eec <xQueueCreateMutex>:
     eec:	b580      	push	{r7, lr}
     eee:	b084      	sub	sp, #16
     ef0:	af00      	add	r7, sp, #0
     ef2:	4603      	mov	r3, r0
     ef4:	71fb      	strb	r3, [r7, #7]
     ef6:	2054      	movs	r0, #84	; 0x54
     ef8:	f7ff f8e8 	bl	cc <pvPortMalloc>
     efc:	60f8      	str	r0, [r7, #12]
     efe:	68fb      	ldr	r3, [r7, #12]
     f00:	2b00      	cmp	r3, #0
     f02:	d030      	beq.n	f66 <xQueueCreateMutex+0x7a>
     f04:	68fb      	ldr	r3, [r7, #12]
     f06:	2200      	movs	r2, #0
     f08:	605a      	str	r2, [r3, #4]
     f0a:	68fb      	ldr	r3, [r7, #12]
     f0c:	2200      	movs	r2, #0
     f0e:	601a      	str	r2, [r3, #0]
     f10:	68fb      	ldr	r3, [r7, #12]
     f12:	2200      	movs	r2, #0
     f14:	609a      	str	r2, [r3, #8]
     f16:	68fb      	ldr	r3, [r7, #12]
     f18:	2200      	movs	r2, #0
     f1a:	60da      	str	r2, [r3, #12]
     f1c:	68fb      	ldr	r3, [r7, #12]
     f1e:	2200      	movs	r2, #0
     f20:	639a      	str	r2, [r3, #56]	; 0x38
     f22:	68fb      	ldr	r3, [r7, #12]
     f24:	2201      	movs	r2, #1
     f26:	63da      	str	r2, [r3, #60]	; 0x3c
     f28:	68fb      	ldr	r3, [r7, #12]
     f2a:	2200      	movs	r2, #0
     f2c:	641a      	str	r2, [r3, #64]	; 0x40
     f2e:	68fb      	ldr	r3, [r7, #12]
     f30:	f04f 32ff 	mov.w	r2, #4294967295
     f34:	645a      	str	r2, [r3, #68]	; 0x44
     f36:	68fb      	ldr	r3, [r7, #12]
     f38:	f04f 32ff 	mov.w	r2, #4294967295
     f3c:	649a      	str	r2, [r3, #72]	; 0x48
     f3e:	68fb      	ldr	r3, [r7, #12]
     f40:	79fa      	ldrb	r2, [r7, #7]
     f42:	f883 2050 	strb.w	r2, [r3, #80]	; 0x50
     f46:	68fb      	ldr	r3, [r7, #12]
     f48:	3310      	adds	r3, #16
     f4a:	4618      	mov	r0, r3
     f4c:	f007 f94e 	bl	81ec <vListInitialise>
     f50:	68fb      	ldr	r3, [r7, #12]
     f52:	3324      	adds	r3, #36	; 0x24
     f54:	4618      	mov	r0, r3
     f56:	f007 f949 	bl	81ec <vListInitialise>
     f5a:	2300      	movs	r3, #0
     f5c:	2200      	movs	r2, #0
     f5e:	2100      	movs	r1, #0
     f60:	68f8      	ldr	r0, [r7, #12]
     f62:	f7ff fbf5 	bl	750 <xQueueGenericSend>
     f66:	68fb      	ldr	r3, [r7, #12]
     f68:	4618      	mov	r0, r3
     f6a:	3710      	adds	r7, #16
     f6c:	46bd      	mov	sp, r7
     f6e:	bd80      	pop	{r7, pc}

00000f70 <xQueueCreateCountingSemaphore>:
     f70:	b580      	push	{r7, lr}
     f72:	b084      	sub	sp, #16
     f74:	af00      	add	r7, sp, #0
     f76:	6078      	str	r0, [r7, #4]
     f78:	6039      	str	r1, [r7, #0]
     f7a:	687b      	ldr	r3, [r7, #4]
     f7c:	2b00      	cmp	r3, #0
     f7e:	d104      	bne.n	f8a <xQueueCreateCountingSemaphore+0x1a>
     f80:	f04f 0028 	mov.w	r0, #40	; 0x28
     f84:	f380 8811 	msr	BASEPRI, r0
     f88:	e7fe      	b.n	f88 <xQueueCreateCountingSemaphore+0x18>
     f8a:	683a      	ldr	r2, [r7, #0]
     f8c:	687b      	ldr	r3, [r7, #4]
     f8e:	429a      	cmp	r2, r3
     f90:	d904      	bls.n	f9c <xQueueCreateCountingSemaphore+0x2c>
     f92:	f04f 0028 	mov.w	r0, #40	; 0x28
     f96:	f380 8811 	msr	BASEPRI, r0
     f9a:	e7fe      	b.n	f9a <xQueueCreateCountingSemaphore+0x2a>
     f9c:	2202      	movs	r2, #2
     f9e:	2100      	movs	r1, #0
     fa0:	6878      	ldr	r0, [r7, #4]
     fa2:	f000 f8d7 	bl	1154 <xQueueGenericCreate>
     fa6:	60f8      	str	r0, [r7, #12]
     fa8:	68fb      	ldr	r3, [r7, #12]
     faa:	2b00      	cmp	r3, #0
     fac:	d002      	beq.n	fb4 <xQueueCreateCountingSemaphore+0x44>
     fae:	68fb      	ldr	r3, [r7, #12]
     fb0:	683a      	ldr	r2, [r7, #0]
     fb2:	639a      	str	r2, [r3, #56]	; 0x38
     fb4:	68fb      	ldr	r3, [r7, #12]
     fb6:	2b00      	cmp	r3, #0
     fb8:	d104      	bne.n	fc4 <xQueueCreateCountingSemaphore+0x54>
     fba:	f04f 0028 	mov.w	r0, #40	; 0x28
     fbe:	f380 8811 	msr	BASEPRI, r0
     fc2:	e7fe      	b.n	fc2 <xQueueCreateCountingSemaphore+0x52>
     fc4:	68fb      	ldr	r3, [r7, #12]
     fc6:	4618      	mov	r0, r3
     fc8:	3710      	adds	r7, #16
     fca:	46bd      	mov	sp, r7
     fcc:	bd80      	pop	{r7, pc}
     fce:	bf00      	nop

00000fd0 <xQueueGetMutexHolder>:
     fd0:	b580      	push	{r7, lr}
     fd2:	b084      	sub	sp, #16
     fd4:	af00      	add	r7, sp, #0
     fd6:	6078      	str	r0, [r7, #4]
     fd8:	f006 feee 	bl	7db8 <vPortEnterCritical>
     fdc:	687b      	ldr	r3, [r7, #4]
     fde:	681b      	ldr	r3, [r3, #0]
     fe0:	2b00      	cmp	r3, #0
     fe2:	d103      	bne.n	fec <xQueueGetMutexHolder+0x1c>
     fe4:	687b      	ldr	r3, [r7, #4]
     fe6:	685b      	ldr	r3, [r3, #4]
     fe8:	60fb      	str	r3, [r7, #12]
     fea:	e001      	b.n	ff0 <xQueueGetMutexHolder+0x20>
     fec:	2300      	movs	r3, #0
     fee:	60fb      	str	r3, [r7, #12]
     ff0:	f006 ff00 	bl	7df4 <vPortExitCritical>
     ff4:	68fb      	ldr	r3, [r7, #12]
     ff6:	4618      	mov	r0, r3
     ff8:	3710      	adds	r7, #16
     ffa:	46bd      	mov	sp, r7
     ffc:	bd80      	pop	{r7, pc}
     ffe:	bf00      	nop

00001000 <xQueueTakeMutexRecursive>:
    1000:	b590      	push	{r4, r7, lr}
    1002:	b085      	sub	sp, #20
    1004:	af00      	add	r7, sp, #0
    1006:	6078      	str	r0, [r7, #4]
    1008:	6039      	str	r1, [r7, #0]
    100a:	687b      	ldr	r3, [r7, #4]
    100c:	60bb      	str	r3, [r7, #8]
    100e:	68bb      	ldr	r3, [r7, #8]
    1010:	2b00      	cmp	r3, #0
    1012:	d104      	bne.n	101e <xQueueTakeMutexRecursive+0x1e>
    1014:	f04f 0028 	mov.w	r0, #40	; 0x28
    1018:	f380 8811 	msr	BASEPRI, r0
    101c:	e7fe      	b.n	101c <xQueueTakeMutexRecursive+0x1c>
    101e:	68bb      	ldr	r3, [r7, #8]
    1020:	685c      	ldr	r4, [r3, #4]
    1022:	f001 fdab 	bl	2b7c <xTaskGetCurrentTaskHandle>
    1026:	4603      	mov	r3, r0
    1028:	429c      	cmp	r4, r3
    102a:	d107      	bne.n	103c <xQueueTakeMutexRecursive+0x3c>
    102c:	68bb      	ldr	r3, [r7, #8]
    102e:	68db      	ldr	r3, [r3, #12]
    1030:	1c5a      	adds	r2, r3, #1
    1032:	68bb      	ldr	r3, [r7, #8]
    1034:	60da      	str	r2, [r3, #12]
    1036:	2301      	movs	r3, #1
    1038:	60fb      	str	r3, [r7, #12]
    103a:	e00e      	b.n	105a <xQueueTakeMutexRecursive+0x5a>
    103c:	2300      	movs	r3, #0
    103e:	683a      	ldr	r2, [r7, #0]
    1040:	2100      	movs	r1, #0
    1042:	68b8      	ldr	r0, [r7, #8]
    1044:	f7ff fca4 	bl	990 <xQueueGenericReceive>
    1048:	60f8      	str	r0, [r7, #12]
    104a:	68fb      	ldr	r3, [r7, #12]
    104c:	2b01      	cmp	r3, #1
    104e:	d104      	bne.n	105a <xQueueTakeMutexRecursive+0x5a>
    1050:	68bb      	ldr	r3, [r7, #8]
    1052:	68db      	ldr	r3, [r3, #12]
    1054:	1c5a      	adds	r2, r3, #1
    1056:	68bb      	ldr	r3, [r7, #8]
    1058:	60da      	str	r2, [r3, #12]
    105a:	68fb      	ldr	r3, [r7, #12]
    105c:	4618      	mov	r0, r3
    105e:	3714      	adds	r7, #20
    1060:	46bd      	mov	sp, r7
    1062:	bd90      	pop	{r4, r7, pc}

00001064 <xQueueGiveMutexRecursive>:
    1064:	b590      	push	{r4, r7, lr}
    1066:	b085      	sub	sp, #20
    1068:	af00      	add	r7, sp, #0
    106a:	6078      	str	r0, [r7, #4]
    106c:	687b      	ldr	r3, [r7, #4]
    106e:	60bb      	str	r3, [r7, #8]
    1070:	68bb      	ldr	r3, [r7, #8]
    1072:	2b00      	cmp	r3, #0
    1074:	d104      	bne.n	1080 <xQueueGiveMutexRecursive+0x1c>
    1076:	f04f 0028 	mov.w	r0, #40	; 0x28
    107a:	f380 8811 	msr	BASEPRI, r0
    107e:	e7fe      	b.n	107e <xQueueGiveMutexRecursive+0x1a>
    1080:	68bb      	ldr	r3, [r7, #8]
    1082:	685c      	ldr	r4, [r3, #4]
    1084:	f001 fd7a 	bl	2b7c <xTaskGetCurrentTaskHandle>
    1088:	4603      	mov	r3, r0
    108a:	429c      	cmp	r4, r3
    108c:	d111      	bne.n	10b2 <xQueueGiveMutexRecursive+0x4e>
    108e:	68bb      	ldr	r3, [r7, #8]
    1090:	68db      	ldr	r3, [r3, #12]
    1092:	1e5a      	subs	r2, r3, #1
    1094:	68bb      	ldr	r3, [r7, #8]
    1096:	60da      	str	r2, [r3, #12]
    1098:	68bb      	ldr	r3, [r7, #8]
    109a:	68db      	ldr	r3, [r3, #12]
    109c:	2b00      	cmp	r3, #0
    109e:	d105      	bne.n	10ac <xQueueGiveMutexRecursive+0x48>
    10a0:	2300      	movs	r3, #0
    10a2:	2200      	movs	r2, #0
    10a4:	2100      	movs	r1, #0
    10a6:	68b8      	ldr	r0, [r7, #8]
    10a8:	f7ff fb52 	bl	750 <xQueueGenericSend>
    10ac:	2301      	movs	r3, #1
    10ae:	60fb      	str	r3, [r7, #12]
    10b0:	e001      	b.n	10b6 <xQueueGiveMutexRecursive+0x52>
    10b2:	2300      	movs	r3, #0
    10b4:	60fb      	str	r3, [r7, #12]
    10b6:	68fb      	ldr	r3, [r7, #12]
    10b8:	4618      	mov	r0, r3
    10ba:	3714      	adds	r7, #20
    10bc:	46bd      	mov	sp, r7
    10be:	bd90      	pop	{r4, r7, pc}

000010c0 <vQueueAddToRegistry>:
    10c0:	b480      	push	{r7}
    10c2:	b085      	sub	sp, #20
    10c4:	af00      	add	r7, sp, #0
    10c6:	6078      	str	r0, [r7, #4]
    10c8:	6039      	str	r1, [r7, #0]
    10ca:	2300      	movs	r3, #0
    10cc:	60fb      	str	r3, [r7, #12]
    10ce:	e014      	b.n	10fa <vQueueAddToRegistry+0x3a>
    10d0:	4a0e      	ldr	r2, [pc, #56]	; (110c <vQueueAddToRegistry+0x4c>)
    10d2:	68fb      	ldr	r3, [r7, #12]
    10d4:	f852 3033 	ldr.w	r3, [r2, r3, lsl #3]
    10d8:	2b00      	cmp	r3, #0
    10da:	d10b      	bne.n	10f4 <vQueueAddToRegistry+0x34>
    10dc:	490b      	ldr	r1, [pc, #44]	; (110c <vQueueAddToRegistry+0x4c>)
    10de:	68fb      	ldr	r3, [r7, #12]
    10e0:	683a      	ldr	r2, [r7, #0]
    10e2:	f841 2033 	str.w	r2, [r1, r3, lsl #3]
    10e6:	4a09      	ldr	r2, [pc, #36]	; (110c <vQueueAddToRegistry+0x4c>)
    10e8:	68fb      	ldr	r3, [r7, #12]
    10ea:	00db      	lsls	r3, r3, #3
    10ec:	4413      	add	r3, r2
    10ee:	687a      	ldr	r2, [r7, #4]
    10f0:	605a      	str	r2, [r3, #4]
    10f2:	e005      	b.n	1100 <vQueueAddToRegistry+0x40>
    10f4:	68fb      	ldr	r3, [r7, #12]
    10f6:	3301      	adds	r3, #1
    10f8:	60fb      	str	r3, [r7, #12]
    10fa:	68fb      	ldr	r3, [r7, #12]
    10fc:	2b09      	cmp	r3, #9
    10fe:	d9e7      	bls.n	10d0 <vQueueAddToRegistry+0x10>
    1100:	bf00      	nop
    1102:	3714      	adds	r7, #20
    1104:	46bd      	mov	sp, r7
    1106:	bc80      	pop	{r7}
    1108:	4770      	bx	lr
    110a:	bf00      	nop
    110c:	10000000 	.word	0x10000000

00001110 <vQueueUnregisterQueue>:
    1110:	b480      	push	{r7}
    1112:	b085      	sub	sp, #20
    1114:	af00      	add	r7, sp, #0
    1116:	6078      	str	r0, [r7, #4]
    1118:	2300      	movs	r3, #0
    111a:	60fb      	str	r3, [r7, #12]
    111c:	e010      	b.n	1140 <vQueueUnregisterQueue+0x30>
    111e:	4a0c      	ldr	r2, [pc, #48]	; (1150 <vQueueUnregisterQueue+0x40>)
    1120:	68fb      	ldr	r3, [r7, #12]
    1122:	00db      	lsls	r3, r3, #3
    1124:	4413      	add	r3, r2
    1126:	685a      	ldr	r2, [r3, #4]
    1128:	687b      	ldr	r3, [r7, #4]
    112a:	429a      	cmp	r2, r3
    112c:	d105      	bne.n	113a <vQueueUnregisterQueue+0x2a>
    112e:	4a08      	ldr	r2, [pc, #32]	; (1150 <vQueueUnregisterQueue+0x40>)
    1130:	68fb      	ldr	r3, [r7, #12]
    1132:	2100      	movs	r1, #0
    1134:	f842 1033 	str.w	r1, [r2, r3, lsl #3]
    1138:	e005      	b.n	1146 <vQueueUnregisterQueue+0x36>
    113a:	68fb      	ldr	r3, [r7, #12]
    113c:	3301      	adds	r3, #1
    113e:	60fb      	str	r3, [r7, #12]
    1140:	68fb      	ldr	r3, [r7, #12]
    1142:	2b09      	cmp	r3, #9
    1144:	d9eb      	bls.n	111e <vQueueUnregisterQueue+0xe>
    1146:	bf00      	nop
    1148:	3714      	adds	r7, #20
    114a:	46bd      	mov	sp, r7
    114c:	bc80      	pop	{r7}
    114e:	4770      	bx	lr
    1150:	10000000 	.word	0x10000000

00001154 <xQueueGenericCreate>:
    1154:	b580      	push	{r7, lr}
    1156:	b088      	sub	sp, #32
    1158:	af00      	add	r7, sp, #0
    115a:	60f8      	str	r0, [r7, #12]
    115c:	60b9      	str	r1, [r7, #8]
    115e:	4613      	mov	r3, r2
    1160:	71fb      	strb	r3, [r7, #7]
    1162:	2300      	movs	r3, #0
    1164:	61bb      	str	r3, [r7, #24]
    1166:	68fb      	ldr	r3, [r7, #12]
    1168:	2b00      	cmp	r3, #0
    116a:	d104      	bne.n	1176 <xQueueGenericCreate+0x22>
    116c:	f04f 0028 	mov.w	r0, #40	; 0x28
    1170:	f380 8811 	msr	BASEPRI, r0
    1174:	e7fe      	b.n	1174 <xQueueGenericCreate+0x20>
    1176:	68bb      	ldr	r3, [r7, #8]
    1178:	2b00      	cmp	r3, #0
    117a:	d102      	bne.n	1182 <xQueueGenericCreate+0x2e>
    117c:	2300      	movs	r3, #0
    117e:	61fb      	str	r3, [r7, #28]
    1180:	e005      	b.n	118e <xQueueGenericCreate+0x3a>
    1182:	68fb      	ldr	r3, [r7, #12]
    1184:	68ba      	ldr	r2, [r7, #8]
    1186:	fb02 f303 	mul.w	r3, r2, r3
    118a:	3301      	adds	r3, #1
    118c:	61fb      	str	r3, [r7, #28]
    118e:	69fb      	ldr	r3, [r7, #28]
    1190:	3354      	adds	r3, #84	; 0x54
    1192:	4618      	mov	r0, r3
    1194:	f7fe ff9a 	bl	cc <pvPortMalloc>
    1198:	6178      	str	r0, [r7, #20]
    119a:	697b      	ldr	r3, [r7, #20]
    119c:	2b00      	cmp	r3, #0
    119e:	d01b      	beq.n	11d8 <xQueueGenericCreate+0x84>
    11a0:	68bb      	ldr	r3, [r7, #8]
    11a2:	2b00      	cmp	r3, #0
    11a4:	d103      	bne.n	11ae <xQueueGenericCreate+0x5a>
    11a6:	697b      	ldr	r3, [r7, #20]
    11a8:	697a      	ldr	r2, [r7, #20]
    11aa:	601a      	str	r2, [r3, #0]
    11ac:	e004      	b.n	11b8 <xQueueGenericCreate+0x64>
    11ae:	697b      	ldr	r3, [r7, #20]
    11b0:	f103 0254 	add.w	r2, r3, #84	; 0x54
    11b4:	697b      	ldr	r3, [r7, #20]
    11b6:	601a      	str	r2, [r3, #0]
    11b8:	697b      	ldr	r3, [r7, #20]
    11ba:	68fa      	ldr	r2, [r7, #12]
    11bc:	63da      	str	r2, [r3, #60]	; 0x3c
    11be:	697b      	ldr	r3, [r7, #20]
    11c0:	68ba      	ldr	r2, [r7, #8]
    11c2:	641a      	str	r2, [r3, #64]	; 0x40
    11c4:	2101      	movs	r1, #1
    11c6:	6978      	ldr	r0, [r7, #20]
    11c8:	f000 f842 	bl	1250 <xQueueGenericReset>
    11cc:	697b      	ldr	r3, [r7, #20]
    11ce:	79fa      	ldrb	r2, [r7, #7]
    11d0:	f883 2050 	strb.w	r2, [r3, #80]	; 0x50
    11d4:	697b      	ldr	r3, [r7, #20]
    11d6:	61bb      	str	r3, [r7, #24]
    11d8:	69bb      	ldr	r3, [r7, #24]
    11da:	2b00      	cmp	r3, #0
    11dc:	d104      	bne.n	11e8 <xQueueGenericCreate+0x94>
    11de:	f04f 0028 	mov.w	r0, #40	; 0x28
    11e2:	f380 8811 	msr	BASEPRI, r0
    11e6:	e7fe      	b.n	11e6 <xQueueGenericCreate+0x92>
    11e8:	69bb      	ldr	r3, [r7, #24]
    11ea:	4618      	mov	r0, r3
    11ec:	3720      	adds	r7, #32
    11ee:	46bd      	mov	sp, r7
    11f0:	bd80      	pop	{r7, pc}
    11f2:	bf00      	nop

000011f4 <vQueueWaitForMessageRestricted>:
    11f4:	b580      	push	{r7, lr}
    11f6:	b086      	sub	sp, #24
    11f8:	af00      	add	r7, sp, #0
    11fa:	60f8      	str	r0, [r7, #12]
    11fc:	60b9      	str	r1, [r7, #8]
    11fe:	607a      	str	r2, [r7, #4]
    1200:	68fb      	ldr	r3, [r7, #12]
    1202:	617b      	str	r3, [r7, #20]
    1204:	f006 fdd8 	bl	7db8 <vPortEnterCritical>
    1208:	697b      	ldr	r3, [r7, #20]
    120a:	6c5b      	ldr	r3, [r3, #68]	; 0x44
    120c:	f1b3 3fff 	cmp.w	r3, #4294967295
    1210:	d102      	bne.n	1218 <vQueueWaitForMessageRestricted+0x24>
    1212:	697b      	ldr	r3, [r7, #20]
    1214:	2200      	movs	r2, #0
    1216:	645a      	str	r2, [r3, #68]	; 0x44
    1218:	697b      	ldr	r3, [r7, #20]
    121a:	6c9b      	ldr	r3, [r3, #72]	; 0x48
    121c:	f1b3 3fff 	cmp.w	r3, #4294967295
    1220:	d102      	bne.n	1228 <vQueueWaitForMessageRestricted+0x34>
    1222:	697b      	ldr	r3, [r7, #20]
    1224:	2200      	movs	r2, #0
    1226:	649a      	str	r2, [r3, #72]	; 0x48
    1228:	f006 fde4 	bl	7df4 <vPortExitCritical>
    122c:	697b      	ldr	r3, [r7, #20]
    122e:	6b9b      	ldr	r3, [r3, #56]	; 0x38
    1230:	2b00      	cmp	r3, #0
    1232:	d106      	bne.n	1242 <vQueueWaitForMessageRestricted+0x4e>
    1234:	697b      	ldr	r3, [r7, #20]
    1236:	3324      	adds	r3, #36	; 0x24
    1238:	687a      	ldr	r2, [r7, #4]
    123a:	68b9      	ldr	r1, [r7, #8]
    123c:	4618      	mov	r0, r3
    123e:	f001 fafb 	bl	2838 <vTaskPlaceOnEventListRestricted>
    1242:	6978      	ldr	r0, [r7, #20]
    1244:	f000 f888 	bl	1358 <prvUnlockQueue>
    1248:	bf00      	nop
    124a:	3718      	adds	r7, #24
    124c:	46bd      	mov	sp, r7
    124e:	bd80      	pop	{r7, pc}

00001250 <xQueueGenericReset>:
    1250:	b580      	push	{r7, lr}
    1252:	b084      	sub	sp, #16
    1254:	af00      	add	r7, sp, #0
    1256:	6078      	str	r0, [r7, #4]
    1258:	6039      	str	r1, [r7, #0]
    125a:	687b      	ldr	r3, [r7, #4]
    125c:	60fb      	str	r3, [r7, #12]
    125e:	68fb      	ldr	r3, [r7, #12]
    1260:	2b00      	cmp	r3, #0
    1262:	d104      	bne.n	126e <xQueueGenericReset+0x1e>
    1264:	f04f 0028 	mov.w	r0, #40	; 0x28
    1268:	f380 8811 	msr	BASEPRI, r0
    126c:	e7fe      	b.n	126c <xQueueGenericReset+0x1c>
    126e:	f006 fda3 	bl	7db8 <vPortEnterCritical>
    1272:	68fb      	ldr	r3, [r7, #12]
    1274:	681a      	ldr	r2, [r3, #0]
    1276:	68fb      	ldr	r3, [r7, #12]
    1278:	6bdb      	ldr	r3, [r3, #60]	; 0x3c
    127a:	68f9      	ldr	r1, [r7, #12]
    127c:	6c09      	ldr	r1, [r1, #64]	; 0x40
    127e:	fb01 f303 	mul.w	r3, r1, r3
    1282:	441a      	add	r2, r3
    1284:	68fb      	ldr	r3, [r7, #12]
    1286:	605a      	str	r2, [r3, #4]
    1288:	68fb      	ldr	r3, [r7, #12]
    128a:	2200      	movs	r2, #0
    128c:	639a      	str	r2, [r3, #56]	; 0x38
    128e:	68fb      	ldr	r3, [r7, #12]
    1290:	681a      	ldr	r2, [r3, #0]
    1292:	68fb      	ldr	r3, [r7, #12]
    1294:	609a      	str	r2, [r3, #8]
    1296:	68fb      	ldr	r3, [r7, #12]
    1298:	681a      	ldr	r2, [r3, #0]
    129a:	68fb      	ldr	r3, [r7, #12]
    129c:	6bdb      	ldr	r3, [r3, #60]	; 0x3c
    129e:	3b01      	subs	r3, #1
    12a0:	68f9      	ldr	r1, [r7, #12]
    12a2:	6c09      	ldr	r1, [r1, #64]	; 0x40
    12a4:	fb01 f303 	mul.w	r3, r1, r3
    12a8:	441a      	add	r2, r3
    12aa:	68fb      	ldr	r3, [r7, #12]
    12ac:	60da      	str	r2, [r3, #12]
    12ae:	68fb      	ldr	r3, [r7, #12]
    12b0:	f04f 32ff 	mov.w	r2, #4294967295
    12b4:	645a      	str	r2, [r3, #68]	; 0x44
    12b6:	68fb      	ldr	r3, [r7, #12]
    12b8:	f04f 32ff 	mov.w	r2, #4294967295
    12bc:	649a      	str	r2, [r3, #72]	; 0x48
    12be:	683b      	ldr	r3, [r7, #0]
    12c0:	2b00      	cmp	r3, #0
    12c2:	d110      	bne.n	12e6 <xQueueGenericReset+0x96>
    12c4:	68fb      	ldr	r3, [r7, #12]
    12c6:	691b      	ldr	r3, [r3, #16]
    12c8:	2b00      	cmp	r3, #0
    12ca:	d016      	beq.n	12fa <xQueueGenericReset+0xaa>
    12cc:	68fb      	ldr	r3, [r7, #12]
    12ce:	3310      	adds	r3, #16
    12d0:	4618      	mov	r0, r3
    12d2:	f001 fae9 	bl	28a8 <xTaskRemoveFromEventList>
    12d6:	4603      	mov	r3, r0
    12d8:	2b01      	cmp	r3, #1
    12da:	d10e      	bne.n	12fa <xQueueGenericReset+0xaa>
    12dc:	4b0a      	ldr	r3, [pc, #40]	; (1308 <xQueueGenericReset+0xb8>)
    12de:	f04f 5280 	mov.w	r2, #268435456	; 0x10000000
    12e2:	601a      	str	r2, [r3, #0]
    12e4:	e009      	b.n	12fa <xQueueGenericReset+0xaa>
    12e6:	68fb      	ldr	r3, [r7, #12]
    12e8:	3310      	adds	r3, #16
    12ea:	4618      	mov	r0, r3
    12ec:	f006 ff7e 	bl	81ec <vListInitialise>
    12f0:	68fb      	ldr	r3, [r7, #12]
    12f2:	3324      	adds	r3, #36	; 0x24
    12f4:	4618      	mov	r0, r3
    12f6:	f006 ff79 	bl	81ec <vListInitialise>
    12fa:	f006 fd7b 	bl	7df4 <vPortExitCritical>
    12fe:	2301      	movs	r3, #1
    1300:	4618      	mov	r0, r3
    1302:	3710      	adds	r7, #16
    1304:	46bd      	mov	sp, r7
    1306:	bd80      	pop	{r7, pc}
    1308:	e000ed04 	.word	0xe000ed04

0000130c <vQueueSetQueueNumber>:
    130c:	b480      	push	{r7}
    130e:	b083      	sub	sp, #12
    1310:	af00      	add	r7, sp, #0
    1312:	6078      	str	r0, [r7, #4]
    1314:	6039      	str	r1, [r7, #0]
    1316:	687b      	ldr	r3, [r7, #4]
    1318:	683a      	ldr	r2, [r7, #0]
    131a:	64da      	str	r2, [r3, #76]	; 0x4c
    131c:	bf00      	nop
    131e:	370c      	adds	r7, #12
    1320:	46bd      	mov	sp, r7
    1322:	bc80      	pop	{r7}
    1324:	4770      	bx	lr
    1326:	bf00      	nop

00001328 <uxQueueGetQueueNumber>:
    1328:	b480      	push	{r7}
    132a:	b083      	sub	sp, #12
    132c:	af00      	add	r7, sp, #0
    132e:	6078      	str	r0, [r7, #4]
    1330:	687b      	ldr	r3, [r7, #4]
    1332:	6cdb      	ldr	r3, [r3, #76]	; 0x4c
    1334:	4618      	mov	r0, r3
    1336:	370c      	adds	r7, #12
    1338:	46bd      	mov	sp, r7
    133a:	bc80      	pop	{r7}
    133c:	4770      	bx	lr
    133e:	bf00      	nop

00001340 <ucQueueGetQueueType>:
    1340:	b480      	push	{r7}
    1342:	b083      	sub	sp, #12
    1344:	af00      	add	r7, sp, #0
    1346:	6078      	str	r0, [r7, #4]
    1348:	687b      	ldr	r3, [r7, #4]
    134a:	f893 3050 	ldrb.w	r3, [r3, #80]	; 0x50
    134e:	4618      	mov	r0, r3
    1350:	370c      	adds	r7, #12
    1352:	46bd      	mov	sp, r7
    1354:	bc80      	pop	{r7}
    1356:	4770      	bx	lr

00001358 <prvUnlockQueue>:
    1358:	b580      	push	{r7, lr}
    135a:	b082      	sub	sp, #8
    135c:	af00      	add	r7, sp, #0
    135e:	6078      	str	r0, [r7, #4]
    1360:	f006 fd2a 	bl	7db8 <vPortEnterCritical>
    1364:	e012      	b.n	138c <prvUnlockQueue+0x34>
    1366:	687b      	ldr	r3, [r7, #4]
    1368:	6a5b      	ldr	r3, [r3, #36]	; 0x24
    136a:	2b00      	cmp	r3, #0
    136c:	d013      	beq.n	1396 <prvUnlockQueue+0x3e>
    136e:	687b      	ldr	r3, [r7, #4]
    1370:	3324      	adds	r3, #36	; 0x24
    1372:	4618      	mov	r0, r3
    1374:	f001 fa98 	bl	28a8 <xTaskRemoveFromEventList>
    1378:	4603      	mov	r3, r0
    137a:	2b00      	cmp	r3, #0
    137c:	d001      	beq.n	1382 <prvUnlockQueue+0x2a>
    137e:	f001 fc7d 	bl	2c7c <vTaskMissedYield>
    1382:	687b      	ldr	r3, [r7, #4]
    1384:	6c9b      	ldr	r3, [r3, #72]	; 0x48
    1386:	1e5a      	subs	r2, r3, #1
    1388:	687b      	ldr	r3, [r7, #4]
    138a:	649a      	str	r2, [r3, #72]	; 0x48
    138c:	687b      	ldr	r3, [r7, #4]
    138e:	6c9b      	ldr	r3, [r3, #72]	; 0x48
    1390:	2b00      	cmp	r3, #0
    1392:	dce8      	bgt.n	1366 <prvUnlockQueue+0xe>
    1394:	e000      	b.n	1398 <prvUnlockQueue+0x40>
    1396:	bf00      	nop
    1398:	687b      	ldr	r3, [r7, #4]
    139a:	f04f 32ff 	mov.w	r2, #4294967295
    139e:	649a      	str	r2, [r3, #72]	; 0x48
    13a0:	f006 fd28 	bl	7df4 <vPortExitCritical>
    13a4:	f006 fd08 	bl	7db8 <vPortEnterCritical>
    13a8:	e012      	b.n	13d0 <prvUnlockQueue+0x78>
    13aa:	687b      	ldr	r3, [r7, #4]
    13ac:	691b      	ldr	r3, [r3, #16]
    13ae:	2b00      	cmp	r3, #0
    13b0:	d013      	beq.n	13da <prvUnlockQueue+0x82>
    13b2:	687b      	ldr	r3, [r7, #4]
    13b4:	3310      	adds	r3, #16
    13b6:	4618      	mov	r0, r3
    13b8:	f001 fa76 	bl	28a8 <xTaskRemoveFromEventList>
    13bc:	4603      	mov	r3, r0
    13be:	2b00      	cmp	r3, #0
    13c0:	d001      	beq.n	13c6 <prvUnlockQueue+0x6e>
    13c2:	f001 fc5b 	bl	2c7c <vTaskMissedYield>
    13c6:	687b      	ldr	r3, [r7, #4]
    13c8:	6c5b      	ldr	r3, [r3, #68]	; 0x44
    13ca:	1e5a      	subs	r2, r3, #1
    13cc:	687b      	ldr	r3, [r7, #4]
    13ce:	645a      	str	r2, [r3, #68]	; 0x44
    13d0:	687b      	ldr	r3, [r7, #4]
    13d2:	6c5b      	ldr	r3, [r3, #68]	; 0x44
    13d4:	2b00      	cmp	r3, #0
    13d6:	dce8      	bgt.n	13aa <prvUnlockQueue+0x52>
    13d8:	e000      	b.n	13dc <prvUnlockQueue+0x84>
    13da:	bf00      	nop
    13dc:	687b      	ldr	r3, [r7, #4]
    13de:	f04f 32ff 	mov.w	r2, #4294967295
    13e2:	645a      	str	r2, [r3, #68]	; 0x44
    13e4:	f006 fd06 	bl	7df4 <vPortExitCritical>
    13e8:	bf00      	nop
    13ea:	3708      	adds	r7, #8
    13ec:	46bd      	mov	sp, r7
    13ee:	bd80      	pop	{r7, pc}

000013f0 <prvIsQueueEmpty>:
    13f0:	b580      	push	{r7, lr}
    13f2:	b084      	sub	sp, #16
    13f4:	af00      	add	r7, sp, #0
    13f6:	6078      	str	r0, [r7, #4]
    13f8:	f006 fcde 	bl	7db8 <vPortEnterCritical>
    13fc:	687b      	ldr	r3, [r7, #4]
    13fe:	6b9b      	ldr	r3, [r3, #56]	; 0x38
    1400:	2b00      	cmp	r3, #0
    1402:	d102      	bne.n	140a <prvIsQueueEmpty+0x1a>
    1404:	2301      	movs	r3, #1
    1406:	60fb      	str	r3, [r7, #12]
    1408:	e001      	b.n	140e <prvIsQueueEmpty+0x1e>
    140a:	2300      	movs	r3, #0
    140c:	60fb      	str	r3, [r7, #12]
    140e:	f006 fcf1 	bl	7df4 <vPortExitCritical>
    1412:	68fb      	ldr	r3, [r7, #12]
    1414:	4618      	mov	r0, r3
    1416:	3710      	adds	r7, #16
    1418:	46bd      	mov	sp, r7
    141a:	bd80      	pop	{r7, pc}

0000141c <prvIsQueueFull>:
    141c:	b580      	push	{r7, lr}
    141e:	b084      	sub	sp, #16
    1420:	af00      	add	r7, sp, #0
    1422:	6078      	str	r0, [r7, #4]
    1424:	f006 fcc8 	bl	7db8 <vPortEnterCritical>
    1428:	687b      	ldr	r3, [r7, #4]
    142a:	6b9a      	ldr	r2, [r3, #56]	; 0x38
    142c:	687b      	ldr	r3, [r7, #4]
    142e:	6bdb      	ldr	r3, [r3, #60]	; 0x3c
    1430:	429a      	cmp	r2, r3
    1432:	d102      	bne.n	143a <prvIsQueueFull+0x1e>
    1434:	2301      	movs	r3, #1
    1436:	60fb      	str	r3, [r7, #12]
    1438:	e001      	b.n	143e <prvIsQueueFull+0x22>
    143a:	2300      	movs	r3, #0
    143c:	60fb      	str	r3, [r7, #12]
    143e:	f006 fcd9 	bl	7df4 <vPortExitCritical>
    1442:	68fb      	ldr	r3, [r7, #12]
    1444:	4618      	mov	r0, r3
    1446:	3710      	adds	r7, #16
    1448:	46bd      	mov	sp, r7
    144a:	bd80      	pop	{r7, pc}

0000144c <prvCopyDataToQueue>:
    144c:	b580      	push	{r7, lr}
    144e:	b086      	sub	sp, #24
    1450:	af00      	add	r7, sp, #0
    1452:	60f8      	str	r0, [r7, #12]
    1454:	60b9      	str	r1, [r7, #8]
    1456:	607a      	str	r2, [r7, #4]
    1458:	2300      	movs	r3, #0
    145a:	617b      	str	r3, [r7, #20]
    145c:	68fb      	ldr	r3, [r7, #12]
    145e:	6c1b      	ldr	r3, [r3, #64]	; 0x40
    1460:	2b00      	cmp	r3, #0
    1462:	d10d      	bne.n	1480 <prvCopyDataToQueue+0x34>
    1464:	68fb      	ldr	r3, [r7, #12]
    1466:	681b      	ldr	r3, [r3, #0]
    1468:	2b00      	cmp	r3, #0
    146a:	d150      	bne.n	150e <prvCopyDataToQueue+0xc2>
    146c:	68fb      	ldr	r3, [r7, #12]
    146e:	685b      	ldr	r3, [r3, #4]
    1470:	4618      	mov	r0, r3
    1472:	f001 fc8b 	bl	2d8c <xTaskPriorityDisinherit>
    1476:	6178      	str	r0, [r7, #20]
    1478:	68fb      	ldr	r3, [r7, #12]
    147a:	2200      	movs	r2, #0
    147c:	605a      	str	r2, [r3, #4]
    147e:	e046      	b.n	150e <prvCopyDataToQueue+0xc2>
    1480:	687b      	ldr	r3, [r7, #4]
    1482:	2b00      	cmp	r3, #0
    1484:	d119      	bne.n	14ba <prvCopyDataToQueue+0x6e>
    1486:	68fb      	ldr	r3, [r7, #12]
    1488:	6898      	ldr	r0, [r3, #8]
    148a:	68fb      	ldr	r3, [r7, #12]
    148c:	6c1b      	ldr	r3, [r3, #64]	; 0x40
    148e:	461a      	mov	r2, r3
    1490:	68b9      	ldr	r1, [r7, #8]
    1492:	f00c fc3f 	bl	dd14 <memcpy>
    1496:	68fb      	ldr	r3, [r7, #12]
    1498:	689a      	ldr	r2, [r3, #8]
    149a:	68fb      	ldr	r3, [r7, #12]
    149c:	6c1b      	ldr	r3, [r3, #64]	; 0x40
    149e:	441a      	add	r2, r3
    14a0:	68fb      	ldr	r3, [r7, #12]
    14a2:	609a      	str	r2, [r3, #8]
    14a4:	68fb      	ldr	r3, [r7, #12]
    14a6:	689a      	ldr	r2, [r3, #8]
    14a8:	68fb      	ldr	r3, [r7, #12]
    14aa:	685b      	ldr	r3, [r3, #4]
    14ac:	429a      	cmp	r2, r3
    14ae:	d32e      	bcc.n	150e <prvCopyDataToQueue+0xc2>
    14b0:	68fb      	ldr	r3, [r7, #12]
    14b2:	681a      	ldr	r2, [r3, #0]
    14b4:	68fb      	ldr	r3, [r7, #12]
    14b6:	609a      	str	r2, [r3, #8]
    14b8:	e029      	b.n	150e <prvCopyDataToQueue+0xc2>
    14ba:	68fb      	ldr	r3, [r7, #12]
    14bc:	68d8      	ldr	r0, [r3, #12]
    14be:	68fb      	ldr	r3, [r7, #12]
    14c0:	6c1b      	ldr	r3, [r3, #64]	; 0x40
    14c2:	461a      	mov	r2, r3
    14c4:	68b9      	ldr	r1, [r7, #8]
    14c6:	f00c fc25 	bl	dd14 <memcpy>
    14ca:	68fb      	ldr	r3, [r7, #12]
    14cc:	68da      	ldr	r2, [r3, #12]
    14ce:	68fb      	ldr	r3, [r7, #12]
    14d0:	6c1b      	ldr	r3, [r3, #64]	; 0x40
    14d2:	425b      	negs	r3, r3
    14d4:	441a      	add	r2, r3
    14d6:	68fb      	ldr	r3, [r7, #12]
    14d8:	60da      	str	r2, [r3, #12]
    14da:	68fb      	ldr	r3, [r7, #12]
    14dc:	68da      	ldr	r2, [r3, #12]
    14de:	68fb      	ldr	r3, [r7, #12]
    14e0:	681b      	ldr	r3, [r3, #0]
    14e2:	429a      	cmp	r2, r3
    14e4:	d207      	bcs.n	14f6 <prvCopyDataToQueue+0xaa>
    14e6:	68fb      	ldr	r3, [r7, #12]
    14e8:	685a      	ldr	r2, [r3, #4]
    14ea:	68fb      	ldr	r3, [r7, #12]
    14ec:	6c1b      	ldr	r3, [r3, #64]	; 0x40
    14ee:	425b      	negs	r3, r3
    14f0:	441a      	add	r2, r3
    14f2:	68fb      	ldr	r3, [r7, #12]
    14f4:	60da      	str	r2, [r3, #12]
    14f6:	687b      	ldr	r3, [r7, #4]
    14f8:	2b02      	cmp	r3, #2
    14fa:	d108      	bne.n	150e <prvCopyDataToQueue+0xc2>
    14fc:	68fb      	ldr	r3, [r7, #12]
    14fe:	6b9b      	ldr	r3, [r3, #56]	; 0x38
    1500:	2b00      	cmp	r3, #0
    1502:	d004      	beq.n	150e <prvCopyDataToQueue+0xc2>
    1504:	68fb      	ldr	r3, [r7, #12]
    1506:	6b9b      	ldr	r3, [r3, #56]	; 0x38
    1508:	1e5a      	subs	r2, r3, #1
    150a:	68fb      	ldr	r3, [r7, #12]
    150c:	639a      	str	r2, [r3, #56]	; 0x38
    150e:	68fb      	ldr	r3, [r7, #12]
    1510:	6b9b      	ldr	r3, [r3, #56]	; 0x38
    1512:	1c5a      	adds	r2, r3, #1
    1514:	68fb      	ldr	r3, [r7, #12]
    1516:	639a      	str	r2, [r3, #56]	; 0x38
    1518:	697b      	ldr	r3, [r7, #20]
    151a:	4618      	mov	r0, r3
    151c:	3718      	adds	r7, #24
    151e:	46bd      	mov	sp, r7
    1520:	bd80      	pop	{r7, pc}
    1522:	bf00      	nop

00001524 <prvCopyDataFromQueue>:
    1524:	b580      	push	{r7, lr}
    1526:	b082      	sub	sp, #8
    1528:	af00      	add	r7, sp, #0
    152a:	6078      	str	r0, [r7, #4]
    152c:	6039      	str	r1, [r7, #0]
    152e:	687b      	ldr	r3, [r7, #4]
    1530:	6c1b      	ldr	r3, [r3, #64]	; 0x40
    1532:	2b00      	cmp	r3, #0
    1534:	d018      	beq.n	1568 <prvCopyDataFromQueue+0x44>
    1536:	687b      	ldr	r3, [r7, #4]
    1538:	68da      	ldr	r2, [r3, #12]
    153a:	687b      	ldr	r3, [r7, #4]
    153c:	6c1b      	ldr	r3, [r3, #64]	; 0x40
    153e:	441a      	add	r2, r3
    1540:	687b      	ldr	r3, [r7, #4]
    1542:	60da      	str	r2, [r3, #12]
    1544:	687b      	ldr	r3, [r7, #4]
    1546:	68da      	ldr	r2, [r3, #12]
    1548:	687b      	ldr	r3, [r7, #4]
    154a:	685b      	ldr	r3, [r3, #4]
    154c:	429a      	cmp	r2, r3
    154e:	d303      	bcc.n	1558 <prvCopyDataFromQueue+0x34>
    1550:	687b      	ldr	r3, [r7, #4]
    1552:	681a      	ldr	r2, [r3, #0]
    1554:	687b      	ldr	r3, [r7, #4]
    1556:	60da      	str	r2, [r3, #12]
    1558:	687b      	ldr	r3, [r7, #4]
    155a:	68d9      	ldr	r1, [r3, #12]
    155c:	687b      	ldr	r3, [r7, #4]
    155e:	6c1b      	ldr	r3, [r3, #64]	; 0x40
    1560:	461a      	mov	r2, r3
    1562:	6838      	ldr	r0, [r7, #0]
    1564:	f00c fbd6 	bl	dd14 <memcpy>
    1568:	bf00      	nop
    156a:	3708      	adds	r7, #8
    156c:	46bd      	mov	sp, r7
    156e:	bd80      	pop	{r7, pc}

00001570 <vTaskAllocateMPURegions>:
    1570:	b580      	push	{r7, lr}
    1572:	b084      	sub	sp, #16
    1574:	af00      	add	r7, sp, #0
    1576:	6078      	str	r0, [r7, #4]
    1578:	6039      	str	r1, [r7, #0]
    157a:	687b      	ldr	r3, [r7, #4]
    157c:	2b00      	cmp	r3, #0
    157e:	d102      	bne.n	1586 <vTaskAllocateMPURegions+0x16>
    1580:	4b07      	ldr	r3, [pc, #28]	; (15a0 <vTaskAllocateMPURegions+0x30>)
    1582:	681b      	ldr	r3, [r3, #0]
    1584:	e000      	b.n	1588 <vTaskAllocateMPURegions+0x18>
    1586:	687b      	ldr	r3, [r7, #4]
    1588:	60fb      	str	r3, [r7, #12]
    158a:	68fb      	ldr	r3, [r7, #12]
    158c:	1d18      	adds	r0, r3, #4
    158e:	2300      	movs	r3, #0
    1590:	2200      	movs	r2, #0
    1592:	6839      	ldr	r1, [r7, #0]
    1594:	f7fe feda 	bl	34c <vPortStoreTaskMPUSettings>
    1598:	bf00      	nop
    159a:	3710      	adds	r7, #16
    159c:	46bd      	mov	sp, r7
    159e:	bd80      	pop	{r7, pc}
    15a0:	10000050 	.word	0x10000050

000015a4 <vTaskDelete>:
    15a4:	b580      	push	{r7, lr}
    15a6:	b084      	sub	sp, #16
    15a8:	af00      	add	r7, sp, #0
    15aa:	6078      	str	r0, [r7, #4]
    15ac:	f006 fc04 	bl	7db8 <vPortEnterCritical>
    15b0:	687b      	ldr	r3, [r7, #4]
    15b2:	2b00      	cmp	r3, #0
    15b4:	d102      	bne.n	15bc <vTaskDelete+0x18>
    15b6:	4b23      	ldr	r3, [pc, #140]	; (1644 <vTaskDelete+0xa0>)
    15b8:	681b      	ldr	r3, [r3, #0]
    15ba:	e000      	b.n	15be <vTaskDelete+0x1a>
    15bc:	687b      	ldr	r3, [r7, #4]
    15be:	60fb      	str	r3, [r7, #12]
    15c0:	68fb      	ldr	r3, [r7, #12]
    15c2:	3328      	adds	r3, #40	; 0x28
    15c4:	4618      	mov	r0, r3
    15c6:	f006 fe99 	bl	82fc <uxListRemove>
    15ca:	68fb      	ldr	r3, [r7, #12]
    15cc:	6cdb      	ldr	r3, [r3, #76]	; 0x4c
    15ce:	2b00      	cmp	r3, #0
    15d0:	d004      	beq.n	15dc <vTaskDelete+0x38>
    15d2:	68fb      	ldr	r3, [r7, #12]
    15d4:	333c      	adds	r3, #60	; 0x3c
    15d6:	4618      	mov	r0, r3
    15d8:	f006 fe90 	bl	82fc <uxListRemove>
    15dc:	68fb      	ldr	r3, [r7, #12]
    15de:	3328      	adds	r3, #40	; 0x28
    15e0:	4619      	mov	r1, r3
    15e2:	4819      	ldr	r0, [pc, #100]	; (1648 <vTaskDelete+0xa4>)
    15e4:	f006 fe2e 	bl	8244 <vListInsertEnd>
    15e8:	4b18      	ldr	r3, [pc, #96]	; (164c <vTaskDelete+0xa8>)
    15ea:	681b      	ldr	r3, [r3, #0]
    15ec:	3301      	adds	r3, #1
    15ee:	4a17      	ldr	r2, [pc, #92]	; (164c <vTaskDelete+0xa8>)
    15f0:	6013      	str	r3, [r2, #0]
    15f2:	4b17      	ldr	r3, [pc, #92]	; (1650 <vTaskDelete+0xac>)
    15f4:	681b      	ldr	r3, [r3, #0]
    15f6:	3301      	adds	r3, #1
    15f8:	4a15      	ldr	r2, [pc, #84]	; (1650 <vTaskDelete+0xac>)
    15fa:	6013      	str	r3, [r2, #0]
    15fc:	f006 fbfa 	bl	7df4 <vPortExitCritical>
    1600:	4b14      	ldr	r3, [pc, #80]	; (1654 <vTaskDelete+0xb0>)
    1602:	681b      	ldr	r3, [r3, #0]
    1604:	2b00      	cmp	r3, #0
    1606:	d018      	beq.n	163a <vTaskDelete+0x96>
    1608:	4b0e      	ldr	r3, [pc, #56]	; (1644 <vTaskDelete+0xa0>)
    160a:	681b      	ldr	r3, [r3, #0]
    160c:	68fa      	ldr	r2, [r7, #12]
    160e:	429a      	cmp	r2, r3
    1610:	d10d      	bne.n	162e <vTaskDelete+0x8a>
    1612:	4b11      	ldr	r3, [pc, #68]	; (1658 <vTaskDelete+0xb4>)
    1614:	681b      	ldr	r3, [r3, #0]
    1616:	2b00      	cmp	r3, #0
    1618:	d004      	beq.n	1624 <vTaskDelete+0x80>
    161a:	f04f 0028 	mov.w	r0, #40	; 0x28
    161e:	f380 8811 	msr	BASEPRI, r0
    1622:	e7fe      	b.n	1622 <vTaskDelete+0x7e>
    1624:	4b0d      	ldr	r3, [pc, #52]	; (165c <vTaskDelete+0xb8>)
    1626:	f04f 5280 	mov.w	r2, #268435456	; 0x10000000
    162a:	601a      	str	r2, [r3, #0]
    162c:	e005      	b.n	163a <vTaskDelete+0x96>
    162e:	f006 fbc3 	bl	7db8 <vPortEnterCritical>
    1632:	f006 fe95 	bl	8360 <prvResetNextTaskUnblockTime>
    1636:	f006 fbdd 	bl	7df4 <vPortExitCritical>
    163a:	bf00      	nop
    163c:	3710      	adds	r7, #16
    163e:	46bd      	mov	sp, r7
    1640:	bd80      	pop	{r7, pc}
    1642:	bf00      	nop
    1644:	10000050 	.word	0x10000050
    1648:	100000fc 	.word	0x100000fc
    164c:	10000110 	.word	0x10000110
    1650:	10000144 	.word	0x10000144
    1654:	10000134 	.word	0x10000134
    1658:	1000014c 	.word	0x1000014c
    165c:	e000ed04 	.word	0xe000ed04

00001660 <vTaskDelay>:
    1660:	b580      	push	{r7, lr}
    1662:	b084      	sub	sp, #16
    1664:	af00      	add	r7, sp, #0
    1666:	6078      	str	r0, [r7, #4]
    1668:	2300      	movs	r3, #0
    166a:	60fb      	str	r3, [r7, #12]
    166c:	687b      	ldr	r3, [r7, #4]
    166e:	2b00      	cmp	r3, #0
    1670:	d01b      	beq.n	16aa <vTaskDelay+0x4a>
    1672:	4b13      	ldr	r3, [pc, #76]	; (16c0 <vTaskDelay+0x60>)
    1674:	681b      	ldr	r3, [r3, #0]
    1676:	2b00      	cmp	r3, #0
    1678:	d004      	beq.n	1684 <vTaskDelay+0x24>
    167a:	f04f 0028 	mov.w	r0, #40	; 0x28
    167e:	f380 8811 	msr	BASEPRI, r0
    1682:	e7fe      	b.n	1682 <vTaskDelay+0x22>
    1684:	f000 fad0 	bl	1c28 <vTaskSuspendAll>
    1688:	4b0e      	ldr	r3, [pc, #56]	; (16c4 <vTaskDelay+0x64>)
    168a:	681a      	ldr	r2, [r3, #0]
    168c:	687b      	ldr	r3, [r7, #4]
    168e:	4413      	add	r3, r2
    1690:	60bb      	str	r3, [r7, #8]
    1692:	4b0d      	ldr	r3, [pc, #52]	; (16c8 <vTaskDelay+0x68>)
    1694:	681b      	ldr	r3, [r3, #0]
    1696:	3328      	adds	r3, #40	; 0x28
    1698:	4618      	mov	r0, r3
    169a:	f006 fe2f 	bl	82fc <uxListRemove>
    169e:	68b8      	ldr	r0, [r7, #8]
    16a0:	f001 fe0e 	bl	32c0 <prvAddCurrentTaskToDelayedList>
    16a4:	f000 face 	bl	1c44 <xTaskResumeAll>
    16a8:	60f8      	str	r0, [r7, #12]
    16aa:	68fb      	ldr	r3, [r7, #12]
    16ac:	2b00      	cmp	r3, #0
    16ae:	d103      	bne.n	16b8 <vTaskDelay+0x58>
    16b0:	4b06      	ldr	r3, [pc, #24]	; (16cc <vTaskDelay+0x6c>)
    16b2:	f04f 5280 	mov.w	r2, #268435456	; 0x10000000
    16b6:	601a      	str	r2, [r3, #0]
    16b8:	bf00      	nop
    16ba:	3710      	adds	r7, #16
    16bc:	46bd      	mov	sp, r7
    16be:	bd80      	pop	{r7, pc}
    16c0:	1000014c 	.word	0x1000014c
    16c4:	1000012c 	.word	0x1000012c
    16c8:	10000050 	.word	0x10000050
    16cc:	e000ed04 	.word	0xe000ed04

000016d0 <vTaskDelayUntil>:
    16d0:	b580      	push	{r7, lr}
    16d2:	b086      	sub	sp, #24
    16d4:	af00      	add	r7, sp, #0
    16d6:	6078      	str	r0, [r7, #4]
    16d8:	6039      	str	r1, [r7, #0]
    16da:	2300      	movs	r3, #0
    16dc:	617b      	str	r3, [r7, #20]
    16de:	687b      	ldr	r3, [r7, #4]
    16e0:	2b00      	cmp	r3, #0
    16e2:	d104      	bne.n	16ee <vTaskDelayUntil+0x1e>
    16e4:	f04f 0028 	mov.w	r0, #40	; 0x28
    16e8:	f380 8811 	msr	BASEPRI, r0
    16ec:	e7fe      	b.n	16ec <vTaskDelayUntil+0x1c>
    16ee:	683b      	ldr	r3, [r7, #0]
    16f0:	2b00      	cmp	r3, #0
    16f2:	d104      	bne.n	16fe <vTaskDelayUntil+0x2e>
    16f4:	f04f 0028 	mov.w	r0, #40	; 0x28
    16f8:	f380 8811 	msr	BASEPRI, r0
    16fc:	e7fe      	b.n	16fc <vTaskDelayUntil+0x2c>
    16fe:	4b26      	ldr	r3, [pc, #152]	; (1798 <vTaskDelayUntil+0xc8>)
    1700:	681b      	ldr	r3, [r3, #0]
    1702:	2b00      	cmp	r3, #0
    1704:	d004      	beq.n	1710 <vTaskDelayUntil+0x40>
    1706:	f04f 0028 	mov.w	r0, #40	; 0x28
    170a:	f380 8811 	msr	BASEPRI, r0
    170e:	e7fe      	b.n	170e <vTaskDelayUntil+0x3e>
    1710:	f000 fa8a 	bl	1c28 <vTaskSuspendAll>
    1714:	4b21      	ldr	r3, [pc, #132]	; (179c <vTaskDelayUntil+0xcc>)
    1716:	681b      	ldr	r3, [r3, #0]
    1718:	613b      	str	r3, [r7, #16]
    171a:	687b      	ldr	r3, [r7, #4]
    171c:	681a      	ldr	r2, [r3, #0]
    171e:	683b      	ldr	r3, [r7, #0]
    1720:	4413      	add	r3, r2
    1722:	60fb      	str	r3, [r7, #12]
    1724:	687b      	ldr	r3, [r7, #4]
    1726:	681a      	ldr	r2, [r3, #0]
    1728:	693b      	ldr	r3, [r7, #16]
    172a:	429a      	cmp	r2, r3
    172c:	d90b      	bls.n	1746 <vTaskDelayUntil+0x76>
    172e:	687b      	ldr	r3, [r7, #4]
    1730:	681a      	ldr	r2, [r3, #0]
    1732:	68fb      	ldr	r3, [r7, #12]
    1734:	429a      	cmp	r2, r3
    1736:	d911      	bls.n	175c <vTaskDelayUntil+0x8c>
    1738:	68fa      	ldr	r2, [r7, #12]
    173a:	693b      	ldr	r3, [r7, #16]
    173c:	429a      	cmp	r2, r3
    173e:	d90d      	bls.n	175c <vTaskDelayUntil+0x8c>
    1740:	2301      	movs	r3, #1
    1742:	617b      	str	r3, [r7, #20]
    1744:	e00a      	b.n	175c <vTaskDelayUntil+0x8c>
    1746:	687b      	ldr	r3, [r7, #4]
    1748:	681a      	ldr	r2, [r3, #0]
    174a:	68fb      	ldr	r3, [r7, #12]
    174c:	429a      	cmp	r2, r3
    174e:	d803      	bhi.n	1758 <vTaskDelayUntil+0x88>
    1750:	68fa      	ldr	r2, [r7, #12]
    1752:	693b      	ldr	r3, [r7, #16]
    1754:	429a      	cmp	r2, r3
    1756:	d901      	bls.n	175c <vTaskDelayUntil+0x8c>
    1758:	2301      	movs	r3, #1
    175a:	617b      	str	r3, [r7, #20]
    175c:	687b      	ldr	r3, [r7, #4]
    175e:	68fa      	ldr	r2, [r7, #12]
    1760:	601a      	str	r2, [r3, #0]
    1762:	697b      	ldr	r3, [r7, #20]
    1764:	2b00      	cmp	r3, #0
    1766:	d008      	beq.n	177a <vTaskDelayUntil+0xaa>
    1768:	4b0d      	ldr	r3, [pc, #52]	; (17a0 <vTaskDelayUntil+0xd0>)
    176a:	681b      	ldr	r3, [r3, #0]
    176c:	3328      	adds	r3, #40	; 0x28
    176e:	4618      	mov	r0, r3
    1770:	f006 fdc4 	bl	82fc <uxListRemove>
    1774:	68f8      	ldr	r0, [r7, #12]
    1776:	f001 fda3 	bl	32c0 <prvAddCurrentTaskToDelayedList>
    177a:	f000 fa63 	bl	1c44 <xTaskResumeAll>
    177e:	60b8      	str	r0, [r7, #8]
    1780:	68bb      	ldr	r3, [r7, #8]
    1782:	2b00      	cmp	r3, #0
    1784:	d103      	bne.n	178e <vTaskDelayUntil+0xbe>
    1786:	4b07      	ldr	r3, [pc, #28]	; (17a4 <vTaskDelayUntil+0xd4>)
    1788:	f04f 5280 	mov.w	r2, #268435456	; 0x10000000
    178c:	601a      	str	r2, [r3, #0]
    178e:	bf00      	nop
    1790:	3718      	adds	r7, #24
    1792:	46bd      	mov	sp, r7
    1794:	bd80      	pop	{r7, pc}
    1796:	bf00      	nop
    1798:	1000014c 	.word	0x1000014c
    179c:	1000012c 	.word	0x1000012c
    17a0:	10000050 	.word	0x10000050
    17a4:	e000ed04 	.word	0xe000ed04

000017a8 <uxTaskPriorityGet>:
    17a8:	b580      	push	{r7, lr}
    17aa:	b084      	sub	sp, #16
    17ac:	af00      	add	r7, sp, #0
    17ae:	6078      	str	r0, [r7, #4]
    17b0:	f006 fb02 	bl	7db8 <vPortEnterCritical>
    17b4:	687b      	ldr	r3, [r7, #4]
    17b6:	2b00      	cmp	r3, #0
    17b8:	d102      	bne.n	17c0 <uxTaskPriorityGet+0x18>
    17ba:	4b07      	ldr	r3, [pc, #28]	; (17d8 <uxTaskPriorityGet+0x30>)
    17bc:	681b      	ldr	r3, [r3, #0]
    17be:	e000      	b.n	17c2 <uxTaskPriorityGet+0x1a>
    17c0:	687b      	ldr	r3, [r7, #4]
    17c2:	60fb      	str	r3, [r7, #12]
    17c4:	68fb      	ldr	r3, [r7, #12]
    17c6:	6d1b      	ldr	r3, [r3, #80]	; 0x50
    17c8:	60bb      	str	r3, [r7, #8]
    17ca:	f006 fb13 	bl	7df4 <vPortExitCritical>
    17ce:	68bb      	ldr	r3, [r7, #8]
    17d0:	4618      	mov	r0, r3
    17d2:	3710      	adds	r7, #16
    17d4:	46bd      	mov	sp, r7
    17d6:	bd80      	pop	{r7, pc}
    17d8:	10000050 	.word	0x10000050

000017dc <uxTaskPriorityGetFromISR>:
    17dc:	b480      	push	{r7}
    17de:	b087      	sub	sp, #28
    17e0:	af00      	add	r7, sp, #0
    17e2:	6078      	str	r0, [r7, #4]
    17e4:	2300      	movs	r3, #0
    17e6:	617b      	str	r3, [r7, #20]
    17e8:	f04f 0028 	mov.w	r0, #40	; 0x28
    17ec:	f380 8811 	msr	BASEPRI, r0
    17f0:	687b      	ldr	r3, [r7, #4]
    17f2:	2b00      	cmp	r3, #0
    17f4:	d102      	bne.n	17fc <uxTaskPriorityGetFromISR+0x20>
    17f6:	4b09      	ldr	r3, [pc, #36]	; (181c <uxTaskPriorityGetFromISR+0x40>)
    17f8:	681b      	ldr	r3, [r3, #0]
    17fa:	e000      	b.n	17fe <uxTaskPriorityGetFromISR+0x22>
    17fc:	687b      	ldr	r3, [r7, #4]
    17fe:	613b      	str	r3, [r7, #16]
    1800:	693b      	ldr	r3, [r7, #16]
    1802:	6d1b      	ldr	r3, [r3, #80]	; 0x50
    1804:	60fb      	str	r3, [r7, #12]
    1806:	f04f 0000 	mov.w	r0, #0
    180a:	f380 8811 	msr	BASEPRI, r0
    180e:	68fb      	ldr	r3, [r7, #12]
    1810:	4618      	mov	r0, r3
    1812:	371c      	adds	r7, #28
    1814:	46bd      	mov	sp, r7
    1816:	bc80      	pop	{r7}
    1818:	4770      	bx	lr
    181a:	bf00      	nop
    181c:	10000050 	.word	0x10000050

00001820 <vTaskPrioritySet>:
    1820:	b580      	push	{r7, lr}
    1822:	b086      	sub	sp, #24
    1824:	af00      	add	r7, sp, #0
    1826:	6078      	str	r0, [r7, #4]
    1828:	6039      	str	r1, [r7, #0]
    182a:	2300      	movs	r3, #0
    182c:	617b      	str	r3, [r7, #20]
    182e:	683b      	ldr	r3, [r7, #0]
    1830:	2b04      	cmp	r3, #4
    1832:	d904      	bls.n	183e <vTaskPrioritySet+0x1e>
    1834:	f04f 0028 	mov.w	r0, #40	; 0x28
    1838:	f380 8811 	msr	BASEPRI, r0
    183c:	e7fe      	b.n	183c <vTaskPrioritySet+0x1c>
    183e:	683b      	ldr	r3, [r7, #0]
    1840:	2b04      	cmp	r3, #4
    1842:	d901      	bls.n	1848 <vTaskPrioritySet+0x28>
    1844:	2304      	movs	r3, #4
    1846:	603b      	str	r3, [r7, #0]
    1848:	f006 fab6 	bl	7db8 <vPortEnterCritical>
    184c:	687b      	ldr	r3, [r7, #4]
    184e:	2b00      	cmp	r3, #0
    1850:	d102      	bne.n	1858 <vTaskPrioritySet+0x38>
    1852:	4b3b      	ldr	r3, [pc, #236]	; (1940 <vTaskPrioritySet+0x120>)
    1854:	681b      	ldr	r3, [r3, #0]
    1856:	e000      	b.n	185a <vTaskPrioritySet+0x3a>
    1858:	687b      	ldr	r3, [r7, #4]
    185a:	613b      	str	r3, [r7, #16]
    185c:	693b      	ldr	r3, [r7, #16]
    185e:	6edb      	ldr	r3, [r3, #108]	; 0x6c
    1860:	60fb      	str	r3, [r7, #12]
    1862:	68fa      	ldr	r2, [r7, #12]
    1864:	683b      	ldr	r3, [r7, #0]
    1866:	429a      	cmp	r2, r3
    1868:	d064      	beq.n	1934 <vTaskPrioritySet+0x114>
    186a:	683a      	ldr	r2, [r7, #0]
    186c:	68fb      	ldr	r3, [r7, #12]
    186e:	429a      	cmp	r2, r3
    1870:	d90d      	bls.n	188e <vTaskPrioritySet+0x6e>
    1872:	4b33      	ldr	r3, [pc, #204]	; (1940 <vTaskPrioritySet+0x120>)
    1874:	681b      	ldr	r3, [r3, #0]
    1876:	693a      	ldr	r2, [r7, #16]
    1878:	429a      	cmp	r2, r3
    187a:	d00f      	beq.n	189c <vTaskPrioritySet+0x7c>
    187c:	4b30      	ldr	r3, [pc, #192]	; (1940 <vTaskPrioritySet+0x120>)
    187e:	681b      	ldr	r3, [r3, #0]
    1880:	6d1a      	ldr	r2, [r3, #80]	; 0x50
    1882:	683b      	ldr	r3, [r7, #0]
    1884:	429a      	cmp	r2, r3
    1886:	d809      	bhi.n	189c <vTaskPrioritySet+0x7c>
    1888:	2301      	movs	r3, #1
    188a:	617b      	str	r3, [r7, #20]
    188c:	e006      	b.n	189c <vTaskPrioritySet+0x7c>
    188e:	4b2c      	ldr	r3, [pc, #176]	; (1940 <vTaskPrioritySet+0x120>)
    1890:	681b      	ldr	r3, [r3, #0]
    1892:	693a      	ldr	r2, [r7, #16]
    1894:	429a      	cmp	r2, r3
    1896:	d101      	bne.n	189c <vTaskPrioritySet+0x7c>
    1898:	2301      	movs	r3, #1
    189a:	617b      	str	r3, [r7, #20]
    189c:	693b      	ldr	r3, [r7, #16]
    189e:	6d1b      	ldr	r3, [r3, #80]	; 0x50
    18a0:	60bb      	str	r3, [r7, #8]
    18a2:	693b      	ldr	r3, [r7, #16]
    18a4:	6eda      	ldr	r2, [r3, #108]	; 0x6c
    18a6:	693b      	ldr	r3, [r7, #16]
    18a8:	6d1b      	ldr	r3, [r3, #80]	; 0x50
    18aa:	429a      	cmp	r2, r3
    18ac:	d102      	bne.n	18b4 <vTaskPrioritySet+0x94>
    18ae:	693b      	ldr	r3, [r7, #16]
    18b0:	683a      	ldr	r2, [r7, #0]
    18b2:	651a      	str	r2, [r3, #80]	; 0x50
    18b4:	693b      	ldr	r3, [r7, #16]
    18b6:	683a      	ldr	r2, [r7, #0]
    18b8:	66da      	str	r2, [r3, #108]	; 0x6c
    18ba:	693b      	ldr	r3, [r7, #16]
    18bc:	6bdb      	ldr	r3, [r3, #60]	; 0x3c
    18be:	2b00      	cmp	r3, #0
    18c0:	db04      	blt.n	18cc <vTaskPrioritySet+0xac>
    18c2:	683b      	ldr	r3, [r7, #0]
    18c4:	f1c3 0205 	rsb	r2, r3, #5
    18c8:	693b      	ldr	r3, [r7, #16]
    18ca:	63da      	str	r2, [r3, #60]	; 0x3c
    18cc:	693b      	ldr	r3, [r7, #16]
    18ce:	6b99      	ldr	r1, [r3, #56]	; 0x38
    18d0:	68ba      	ldr	r2, [r7, #8]
    18d2:	4613      	mov	r3, r2
    18d4:	009b      	lsls	r3, r3, #2
    18d6:	4413      	add	r3, r2
    18d8:	009b      	lsls	r3, r3, #2
    18da:	4a1a      	ldr	r2, [pc, #104]	; (1944 <vTaskPrioritySet+0x124>)
    18dc:	4413      	add	r3, r2
    18de:	4299      	cmp	r1, r3
    18e0:	d101      	bne.n	18e6 <vTaskPrioritySet+0xc6>
    18e2:	2301      	movs	r3, #1
    18e4:	e000      	b.n	18e8 <vTaskPrioritySet+0xc8>
    18e6:	2300      	movs	r3, #0
    18e8:	2b00      	cmp	r3, #0
    18ea:	d01c      	beq.n	1926 <vTaskPrioritySet+0x106>
    18ec:	693b      	ldr	r3, [r7, #16]
    18ee:	3328      	adds	r3, #40	; 0x28
    18f0:	4618      	mov	r0, r3
    18f2:	f006 fd03 	bl	82fc <uxListRemove>
    18f6:	693b      	ldr	r3, [r7, #16]
    18f8:	6d1a      	ldr	r2, [r3, #80]	; 0x50
    18fa:	4b13      	ldr	r3, [pc, #76]	; (1948 <vTaskPrioritySet+0x128>)
    18fc:	681b      	ldr	r3, [r3, #0]
    18fe:	429a      	cmp	r2, r3
    1900:	d903      	bls.n	190a <vTaskPrioritySet+0xea>
    1902:	693b      	ldr	r3, [r7, #16]
    1904:	6d1b      	ldr	r3, [r3, #80]	; 0x50
    1906:	4a10      	ldr	r2, [pc, #64]	; (1948 <vTaskPrioritySet+0x128>)
    1908:	6013      	str	r3, [r2, #0]
    190a:	693b      	ldr	r3, [r7, #16]
    190c:	6d1a      	ldr	r2, [r3, #80]	; 0x50
    190e:	4613      	mov	r3, r2
    1910:	009b      	lsls	r3, r3, #2
    1912:	4413      	add	r3, r2
    1914:	009b      	lsls	r3, r3, #2
    1916:	4a0b      	ldr	r2, [pc, #44]	; (1944 <vTaskPrioritySet+0x124>)
    1918:	441a      	add	r2, r3
    191a:	693b      	ldr	r3, [r7, #16]
    191c:	3328      	adds	r3, #40	; 0x28
    191e:	4619      	mov	r1, r3
    1920:	4610      	mov	r0, r2
    1922:	f006 fc8f 	bl	8244 <vListInsertEnd>
    1926:	697b      	ldr	r3, [r7, #20]
    1928:	2b01      	cmp	r3, #1
    192a:	d103      	bne.n	1934 <vTaskPrioritySet+0x114>
    192c:	4b07      	ldr	r3, [pc, #28]	; (194c <vTaskPrioritySet+0x12c>)
    192e:	f04f 5280 	mov.w	r2, #268435456	; 0x10000000
    1932:	601a      	str	r2, [r3, #0]
    1934:	f006 fa5e 	bl	7df4 <vPortExitCritical>
    1938:	bf00      	nop
    193a:	3718      	adds	r7, #24
    193c:	46bd      	mov	sp, r7
    193e:	bd80      	pop	{r7, pc}
    1940:	10000050 	.word	0x10000050
    1944:	10000054 	.word	0x10000054
    1948:	10000130 	.word	0x10000130
    194c:	e000ed04 	.word	0xe000ed04

00001950 <vTaskSuspend>:
    1950:	b580      	push	{r7, lr}
    1952:	b084      	sub	sp, #16
    1954:	af00      	add	r7, sp, #0
    1956:	6078      	str	r0, [r7, #4]
    1958:	f006 fa2e 	bl	7db8 <vPortEnterCritical>
    195c:	687b      	ldr	r3, [r7, #4]
    195e:	2b00      	cmp	r3, #0
    1960:	d102      	bne.n	1968 <vTaskSuspend+0x18>
    1962:	4b26      	ldr	r3, [pc, #152]	; (19fc <vTaskSuspend+0xac>)
    1964:	681b      	ldr	r3, [r3, #0]
    1966:	e000      	b.n	196a <vTaskSuspend+0x1a>
    1968:	687b      	ldr	r3, [r7, #4]
    196a:	60fb      	str	r3, [r7, #12]
    196c:	68fb      	ldr	r3, [r7, #12]
    196e:	3328      	adds	r3, #40	; 0x28
    1970:	4618      	mov	r0, r3
    1972:	f006 fcc3 	bl	82fc <uxListRemove>
    1976:	68fb      	ldr	r3, [r7, #12]
    1978:	6cdb      	ldr	r3, [r3, #76]	; 0x4c
    197a:	2b00      	cmp	r3, #0
    197c:	d004      	beq.n	1988 <vTaskSuspend+0x38>
    197e:	68fb      	ldr	r3, [r7, #12]
    1980:	333c      	adds	r3, #60	; 0x3c
    1982:	4618      	mov	r0, r3
    1984:	f006 fcba 	bl	82fc <uxListRemove>
    1988:	68fb      	ldr	r3, [r7, #12]
    198a:	3328      	adds	r3, #40	; 0x28
    198c:	4619      	mov	r1, r3
    198e:	481c      	ldr	r0, [pc, #112]	; (1a00 <vTaskSuspend+0xb0>)
    1990:	f006 fc58 	bl	8244 <vListInsertEnd>
    1994:	f006 fa2e 	bl	7df4 <vPortExitCritical>
    1998:	4b18      	ldr	r3, [pc, #96]	; (19fc <vTaskSuspend+0xac>)
    199a:	681b      	ldr	r3, [r3, #0]
    199c:	68fa      	ldr	r2, [r7, #12]
    199e:	429a      	cmp	r2, r3
    19a0:	d11e      	bne.n	19e0 <vTaskSuspend+0x90>
    19a2:	4b18      	ldr	r3, [pc, #96]	; (1a04 <vTaskSuspend+0xb4>)
    19a4:	681b      	ldr	r3, [r3, #0]
    19a6:	2b00      	cmp	r3, #0
    19a8:	d00d      	beq.n	19c6 <vTaskSuspend+0x76>
    19aa:	4b17      	ldr	r3, [pc, #92]	; (1a08 <vTaskSuspend+0xb8>)
    19ac:	681b      	ldr	r3, [r3, #0]
    19ae:	2b00      	cmp	r3, #0
    19b0:	d004      	beq.n	19bc <vTaskSuspend+0x6c>
    19b2:	f04f 0028 	mov.w	r0, #40	; 0x28
    19b6:	f380 8811 	msr	BASEPRI, r0
    19ba:	e7fe      	b.n	19ba <vTaskSuspend+0x6a>
    19bc:	4b13      	ldr	r3, [pc, #76]	; (1a0c <vTaskSuspend+0xbc>)
    19be:	f04f 5280 	mov.w	r2, #268435456	; 0x10000000
    19c2:	601a      	str	r2, [r3, #0]
    19c4:	e016      	b.n	19f4 <vTaskSuspend+0xa4>
    19c6:	4b0e      	ldr	r3, [pc, #56]	; (1a00 <vTaskSuspend+0xb0>)
    19c8:	681a      	ldr	r2, [r3, #0]
    19ca:	4b11      	ldr	r3, [pc, #68]	; (1a10 <vTaskSuspend+0xc0>)
    19cc:	681b      	ldr	r3, [r3, #0]
    19ce:	429a      	cmp	r2, r3
    19d0:	d103      	bne.n	19da <vTaskSuspend+0x8a>
    19d2:	4b0a      	ldr	r3, [pc, #40]	; (19fc <vTaskSuspend+0xac>)
    19d4:	2200      	movs	r2, #0
    19d6:	601a      	str	r2, [r3, #0]
    19d8:	e00c      	b.n	19f4 <vTaskSuspend+0xa4>
    19da:	f001 f81f 	bl	2a1c <vTaskSwitchContext>
    19de:	e009      	b.n	19f4 <vTaskSuspend+0xa4>
    19e0:	4b08      	ldr	r3, [pc, #32]	; (1a04 <vTaskSuspend+0xb4>)
    19e2:	681b      	ldr	r3, [r3, #0]
    19e4:	2b00      	cmp	r3, #0
    19e6:	d005      	beq.n	19f4 <vTaskSuspend+0xa4>
    19e8:	f006 f9e6 	bl	7db8 <vPortEnterCritical>
    19ec:	f006 fcb8 	bl	8360 <prvResetNextTaskUnblockTime>
    19f0:	f006 fa00 	bl	7df4 <vPortExitCritical>
    19f4:	bf00      	nop
    19f6:	3710      	adds	r7, #16
    19f8:	46bd      	mov	sp, r7
    19fa:	bd80      	pop	{r7, pc}
    19fc:	10000050 	.word	0x10000050
    1a00:	10000114 	.word	0x10000114
    1a04:	10000134 	.word	0x10000134
    1a08:	1000014c 	.word	0x1000014c
    1a0c:	e000ed04 	.word	0xe000ed04
    1a10:	10000128 	.word	0x10000128

00001a14 <vTaskResume>:
    1a14:	b580      	push	{r7, lr}
    1a16:	b084      	sub	sp, #16
    1a18:	af00      	add	r7, sp, #0
    1a1a:	6078      	str	r0, [r7, #4]
    1a1c:	687b      	ldr	r3, [r7, #4]
    1a1e:	60fb      	str	r3, [r7, #12]
    1a20:	687b      	ldr	r3, [r7, #4]
    1a22:	2b00      	cmp	r3, #0
    1a24:	d104      	bne.n	1a30 <vTaskResume+0x1c>
    1a26:	f04f 0028 	mov.w	r0, #40	; 0x28
    1a2a:	f380 8811 	msr	BASEPRI, r0
    1a2e:	e7fe      	b.n	1a2e <vTaskResume+0x1a>
    1a30:	68fb      	ldr	r3, [r7, #12]
    1a32:	2b00      	cmp	r3, #0
    1a34:	d036      	beq.n	1aa4 <vTaskResume+0x90>
    1a36:	4b1d      	ldr	r3, [pc, #116]	; (1aac <vTaskResume+0x98>)
    1a38:	681b      	ldr	r3, [r3, #0]
    1a3a:	68fa      	ldr	r2, [r7, #12]
    1a3c:	429a      	cmp	r2, r3
    1a3e:	d031      	beq.n	1aa4 <vTaskResume+0x90>
    1a40:	f006 f9ba 	bl	7db8 <vPortEnterCritical>
    1a44:	68f8      	ldr	r0, [r7, #12]
    1a46:	f001 fb77 	bl	3138 <prvTaskIsTaskSuspended>
    1a4a:	4603      	mov	r3, r0
    1a4c:	2b01      	cmp	r3, #1
    1a4e:	d127      	bne.n	1aa0 <vTaskResume+0x8c>
    1a50:	68fb      	ldr	r3, [r7, #12]
    1a52:	3328      	adds	r3, #40	; 0x28
    1a54:	4618      	mov	r0, r3
    1a56:	f006 fc51 	bl	82fc <uxListRemove>
    1a5a:	68fb      	ldr	r3, [r7, #12]
    1a5c:	6d1a      	ldr	r2, [r3, #80]	; 0x50
    1a5e:	4b14      	ldr	r3, [pc, #80]	; (1ab0 <vTaskResume+0x9c>)
    1a60:	681b      	ldr	r3, [r3, #0]
    1a62:	429a      	cmp	r2, r3
    1a64:	d903      	bls.n	1a6e <vTaskResume+0x5a>
    1a66:	68fb      	ldr	r3, [r7, #12]
    1a68:	6d1b      	ldr	r3, [r3, #80]	; 0x50
    1a6a:	4a11      	ldr	r2, [pc, #68]	; (1ab0 <vTaskResume+0x9c>)
    1a6c:	6013      	str	r3, [r2, #0]
    1a6e:	68fb      	ldr	r3, [r7, #12]
    1a70:	6d1a      	ldr	r2, [r3, #80]	; 0x50
    1a72:	4613      	mov	r3, r2
    1a74:	009b      	lsls	r3, r3, #2
    1a76:	4413      	add	r3, r2
    1a78:	009b      	lsls	r3, r3, #2
    1a7a:	4a0e      	ldr	r2, [pc, #56]	; (1ab4 <vTaskResume+0xa0>)
    1a7c:	441a      	add	r2, r3
    1a7e:	68fb      	ldr	r3, [r7, #12]
    1a80:	3328      	adds	r3, #40	; 0x28
    1a82:	4619      	mov	r1, r3
    1a84:	4610      	mov	r0, r2
    1a86:	f006 fbdd 	bl	8244 <vListInsertEnd>
    1a8a:	68fb      	ldr	r3, [r7, #12]
    1a8c:	6d1a      	ldr	r2, [r3, #80]	; 0x50
    1a8e:	4b07      	ldr	r3, [pc, #28]	; (1aac <vTaskResume+0x98>)
    1a90:	681b      	ldr	r3, [r3, #0]
    1a92:	6d1b      	ldr	r3, [r3, #80]	; 0x50
    1a94:	429a      	cmp	r2, r3
    1a96:	d303      	bcc.n	1aa0 <vTaskResume+0x8c>
    1a98:	4b07      	ldr	r3, [pc, #28]	; (1ab8 <vTaskResume+0xa4>)
    1a9a:	f04f 5280 	mov.w	r2, #268435456	; 0x10000000
    1a9e:	601a      	str	r2, [r3, #0]
    1aa0:	f006 f9a8 	bl	7df4 <vPortExitCritical>
    1aa4:	bf00      	nop
    1aa6:	3710      	adds	r7, #16
    1aa8:	46bd      	mov	sp, r7
    1aaa:	bd80      	pop	{r7, pc}
    1aac:	10000050 	.word	0x10000050
    1ab0:	10000130 	.word	0x10000130
    1ab4:	10000054 	.word	0x10000054
    1ab8:	e000ed04 	.word	0xe000ed04

00001abc <xTaskResumeFromISR>:
    1abc:	b580      	push	{r7, lr}
    1abe:	b086      	sub	sp, #24
    1ac0:	af00      	add	r7, sp, #0
    1ac2:	6078      	str	r0, [r7, #4]
    1ac4:	2300      	movs	r3, #0
    1ac6:	617b      	str	r3, [r7, #20]
    1ac8:	687b      	ldr	r3, [r7, #4]
    1aca:	613b      	str	r3, [r7, #16]
    1acc:	687b      	ldr	r3, [r7, #4]
    1ace:	2b00      	cmp	r3, #0
    1ad0:	d104      	bne.n	1adc <xTaskResumeFromISR+0x20>
    1ad2:	f04f 0028 	mov.w	r0, #40	; 0x28
    1ad6:	f380 8811 	msr	BASEPRI, r0
    1ada:	e7fe      	b.n	1ada <xTaskResumeFromISR+0x1e>
    1adc:	2300      	movs	r3, #0
    1ade:	60fb      	str	r3, [r7, #12]
    1ae0:	f04f 0028 	mov.w	r0, #40	; 0x28
    1ae4:	f380 8811 	msr	BASEPRI, r0
    1ae8:	6938      	ldr	r0, [r7, #16]
    1aea:	f001 fb25 	bl	3138 <prvTaskIsTaskSuspended>
    1aee:	4603      	mov	r3, r0
    1af0:	2b01      	cmp	r3, #1
    1af2:	d130      	bne.n	1b56 <xTaskResumeFromISR+0x9a>
    1af4:	4b1c      	ldr	r3, [pc, #112]	; (1b68 <xTaskResumeFromISR+0xac>)
    1af6:	681b      	ldr	r3, [r3, #0]
    1af8:	2b00      	cmp	r3, #0
    1afa:	d126      	bne.n	1b4a <xTaskResumeFromISR+0x8e>
    1afc:	693b      	ldr	r3, [r7, #16]
    1afe:	6d1a      	ldr	r2, [r3, #80]	; 0x50
    1b00:	4b1a      	ldr	r3, [pc, #104]	; (1b6c <xTaskResumeFromISR+0xb0>)
    1b02:	681b      	ldr	r3, [r3, #0]
    1b04:	6d1b      	ldr	r3, [r3, #80]	; 0x50
    1b06:	429a      	cmp	r2, r3
    1b08:	d301      	bcc.n	1b0e <xTaskResumeFromISR+0x52>
    1b0a:	2301      	movs	r3, #1
    1b0c:	617b      	str	r3, [r7, #20]
    1b0e:	693b      	ldr	r3, [r7, #16]
    1b10:	3328      	adds	r3, #40	; 0x28
    1b12:	4618      	mov	r0, r3
    1b14:	f006 fbf2 	bl	82fc <uxListRemove>
    1b18:	693b      	ldr	r3, [r7, #16]
    1b1a:	6d1a      	ldr	r2, [r3, #80]	; 0x50
    1b1c:	4b14      	ldr	r3, [pc, #80]	; (1b70 <xTaskResumeFromISR+0xb4>)
    1b1e:	681b      	ldr	r3, [r3, #0]
    1b20:	429a      	cmp	r2, r3
    1b22:	d903      	bls.n	1b2c <xTaskResumeFromISR+0x70>
    1b24:	693b      	ldr	r3, [r7, #16]
    1b26:	6d1b      	ldr	r3, [r3, #80]	; 0x50
    1b28:	4a11      	ldr	r2, [pc, #68]	; (1b70 <xTaskResumeFromISR+0xb4>)
    1b2a:	6013      	str	r3, [r2, #0]
    1b2c:	693b      	ldr	r3, [r7, #16]
    1b2e:	6d1a      	ldr	r2, [r3, #80]	; 0x50
    1b30:	4613      	mov	r3, r2
    1b32:	009b      	lsls	r3, r3, #2
    1b34:	4413      	add	r3, r2
    1b36:	009b      	lsls	r3, r3, #2
    1b38:	4a0e      	ldr	r2, [pc, #56]	; (1b74 <xTaskResumeFromISR+0xb8>)
    1b3a:	441a      	add	r2, r3
    1b3c:	693b      	ldr	r3, [r7, #16]
    1b3e:	3328      	adds	r3, #40	; 0x28
    1b40:	4619      	mov	r1, r3
    1b42:	4610      	mov	r0, r2
    1b44:	f006 fb7e 	bl	8244 <vListInsertEnd>
    1b48:	e005      	b.n	1b56 <xTaskResumeFromISR+0x9a>
    1b4a:	693b      	ldr	r3, [r7, #16]
    1b4c:	333c      	adds	r3, #60	; 0x3c
    1b4e:	4619      	mov	r1, r3
    1b50:	4809      	ldr	r0, [pc, #36]	; (1b78 <xTaskResumeFromISR+0xbc>)
    1b52:	f006 fb77 	bl	8244 <vListInsertEnd>
    1b56:	f04f 0000 	mov.w	r0, #0
    1b5a:	f380 8811 	msr	BASEPRI, r0
    1b5e:	697b      	ldr	r3, [r7, #20]
    1b60:	4618      	mov	r0, r3
    1b62:	3718      	adds	r7, #24
    1b64:	46bd      	mov	sp, r7
    1b66:	bd80      	pop	{r7, pc}
    1b68:	1000014c 	.word	0x1000014c
    1b6c:	10000050 	.word	0x10000050
    1b70:	10000130 	.word	0x10000130
    1b74:	10000054 	.word	0x10000054
    1b78:	100000e8 	.word	0x100000e8

00001b7c <vTaskStartScheduler>:
    1b7c:	b580      	push	{r7, lr}
    1b7e:	b086      	sub	sp, #24
    1b80:	af04      	add	r7, sp, #16
    1b82:	2300      	movs	r3, #0
    1b84:	9303      	str	r3, [sp, #12]
    1b86:	2300      	movs	r3, #0
    1b88:	9302      	str	r3, [sp, #8]
    1b8a:	2300      	movs	r3, #0
    1b8c:	9301      	str	r3, [sp, #4]
    1b8e:	f04f 4300 	mov.w	r3, #2147483648	; 0x80000000
    1b92:	9300      	str	r3, [sp, #0]
    1b94:	2300      	movs	r3, #0
    1b96:	225a      	movs	r2, #90	; 0x5a
    1b98:	4916      	ldr	r1, [pc, #88]	; (1bf4 <vTaskStartScheduler+0x78>)
    1b9a:	4817      	ldr	r0, [pc, #92]	; (1bf8 <vTaskStartScheduler+0x7c>)
    1b9c:	f001 f958 	bl	2e50 <xTaskGenericCreate>
    1ba0:	6078      	str	r0, [r7, #4]
    1ba2:	687b      	ldr	r3, [r7, #4]
    1ba4:	2b01      	cmp	r3, #1
    1ba6:	d102      	bne.n	1bae <vTaskStartScheduler+0x32>
    1ba8:	f001 fd40 	bl	362c <xTimerCreateTimerTask>
    1bac:	6078      	str	r0, [r7, #4]
    1bae:	687b      	ldr	r3, [r7, #4]
    1bb0:	2b01      	cmp	r3, #1
    1bb2:	d112      	bne.n	1bda <vTaskStartScheduler+0x5e>
    1bb4:	f04f 0028 	mov.w	r0, #40	; 0x28
    1bb8:	f380 8811 	msr	BASEPRI, r0
    1bbc:	4b0f      	ldr	r3, [pc, #60]	; (1bfc <vTaskStartScheduler+0x80>)
    1bbe:	f04f 32ff 	mov.w	r2, #4294967295
    1bc2:	601a      	str	r2, [r3, #0]
    1bc4:	4b0e      	ldr	r3, [pc, #56]	; (1c00 <vTaskStartScheduler+0x84>)
    1bc6:	2201      	movs	r2, #1
    1bc8:	601a      	str	r2, [r3, #0]
    1bca:	4b0e      	ldr	r3, [pc, #56]	; (1c04 <vTaskStartScheduler+0x88>)
    1bcc:	2200      	movs	r2, #0
    1bce:	601a      	str	r2, [r3, #0]
    1bd0:	f009 fd62 	bl	b698 <vMainConfigureTimerForRunTimeStats>
    1bd4:	f7fe fb8a 	bl	2ec <xPortStartScheduler>
    1bd8:	e007      	b.n	1bea <vTaskStartScheduler+0x6e>
    1bda:	687b      	ldr	r3, [r7, #4]
    1bdc:	2b00      	cmp	r3, #0
    1bde:	d104      	bne.n	1bea <vTaskStartScheduler+0x6e>
    1be0:	f04f 0028 	mov.w	r0, #40	; 0x28
    1be4:	f380 8811 	msr	BASEPRI, r0
    1be8:	e7fe      	b.n	1be8 <vTaskStartScheduler+0x6c>
    1bea:	bf00      	nop
    1bec:	3708      	adds	r7, #8
    1bee:	46bd      	mov	sp, r7
    1bf0:	bd80      	pop	{r7, pc}
    1bf2:	bf00      	nop
    1bf4:	0000e610 	.word	0x0000e610
    1bf8:	00008351 	.word	0x00008351
    1bfc:	10000148 	.word	0x10000148
    1c00:	10000134 	.word	0x10000134
    1c04:	1000012c 	.word	0x1000012c

00001c08 <vTaskEndScheduler>:
    1c08:	b580      	push	{r7, lr}
    1c0a:	af00      	add	r7, sp, #0
    1c0c:	f04f 0028 	mov.w	r0, #40	; 0x28
    1c10:	f380 8811 	msr	BASEPRI, r0
    1c14:	4b03      	ldr	r3, [pc, #12]	; (1c24 <vTaskEndScheduler+0x1c>)
    1c16:	2200      	movs	r2, #0
    1c18:	601a      	str	r2, [r3, #0]
    1c1a:	f7fe fb85 	bl	328 <vPortEndScheduler>
    1c1e:	bf00      	nop
    1c20:	bd80      	pop	{r7, pc}
    1c22:	bf00      	nop
    1c24:	10000134 	.word	0x10000134

00001c28 <vTaskSuspendAll>:
    1c28:	b480      	push	{r7}
    1c2a:	af00      	add	r7, sp, #0
    1c2c:	4b04      	ldr	r3, [pc, #16]	; (1c40 <vTaskSuspendAll+0x18>)
    1c2e:	681b      	ldr	r3, [r3, #0]
    1c30:	3301      	adds	r3, #1
    1c32:	4a03      	ldr	r2, [pc, #12]	; (1c40 <vTaskSuspendAll+0x18>)
    1c34:	6013      	str	r3, [r2, #0]
    1c36:	bf00      	nop
    1c38:	46bd      	mov	sp, r7
    1c3a:	bc80      	pop	{r7}
    1c3c:	4770      	bx	lr
    1c3e:	bf00      	nop
    1c40:	1000014c 	.word	0x1000014c

00001c44 <xTaskResumeAll>:
    1c44:	b580      	push	{r7, lr}
    1c46:	b082      	sub	sp, #8
    1c48:	af00      	add	r7, sp, #0
    1c4a:	2300      	movs	r3, #0
    1c4c:	607b      	str	r3, [r7, #4]
    1c4e:	4b3a      	ldr	r3, [pc, #232]	; (1d38 <xTaskResumeAll+0xf4>)
    1c50:	681b      	ldr	r3, [r3, #0]
    1c52:	2b00      	cmp	r3, #0
    1c54:	d104      	bne.n	1c60 <xTaskResumeAll+0x1c>
    1c56:	f04f 0028 	mov.w	r0, #40	; 0x28
    1c5a:	f380 8811 	msr	BASEPRI, r0
    1c5e:	e7fe      	b.n	1c5e <xTaskResumeAll+0x1a>
    1c60:	f006 f8aa 	bl	7db8 <vPortEnterCritical>
    1c64:	4b34      	ldr	r3, [pc, #208]	; (1d38 <xTaskResumeAll+0xf4>)
    1c66:	681b      	ldr	r3, [r3, #0]
    1c68:	3b01      	subs	r3, #1
    1c6a:	4a33      	ldr	r2, [pc, #204]	; (1d38 <xTaskResumeAll+0xf4>)
    1c6c:	6013      	str	r3, [r2, #0]
    1c6e:	4b32      	ldr	r3, [pc, #200]	; (1d38 <xTaskResumeAll+0xf4>)
    1c70:	681b      	ldr	r3, [r3, #0]
    1c72:	2b00      	cmp	r3, #0
    1c74:	d158      	bne.n	1d28 <xTaskResumeAll+0xe4>
    1c76:	4b31      	ldr	r3, [pc, #196]	; (1d3c <xTaskResumeAll+0xf8>)
    1c78:	681b      	ldr	r3, [r3, #0]
    1c7a:	2b00      	cmp	r3, #0
    1c7c:	d054      	beq.n	1d28 <xTaskResumeAll+0xe4>
    1c7e:	e02f      	b.n	1ce0 <xTaskResumeAll+0x9c>
    1c80:	4b2f      	ldr	r3, [pc, #188]	; (1d40 <xTaskResumeAll+0xfc>)
    1c82:	68db      	ldr	r3, [r3, #12]
    1c84:	68db      	ldr	r3, [r3, #12]
    1c86:	603b      	str	r3, [r7, #0]
    1c88:	683b      	ldr	r3, [r7, #0]
    1c8a:	333c      	adds	r3, #60	; 0x3c
    1c8c:	4618      	mov	r0, r3
    1c8e:	f006 fb35 	bl	82fc <uxListRemove>
    1c92:	683b      	ldr	r3, [r7, #0]
    1c94:	3328      	adds	r3, #40	; 0x28
    1c96:	4618      	mov	r0, r3
    1c98:	f006 fb30 	bl	82fc <uxListRemove>
    1c9c:	683b      	ldr	r3, [r7, #0]
    1c9e:	6d1a      	ldr	r2, [r3, #80]	; 0x50
    1ca0:	4b28      	ldr	r3, [pc, #160]	; (1d44 <xTaskResumeAll+0x100>)
    1ca2:	681b      	ldr	r3, [r3, #0]
    1ca4:	429a      	cmp	r2, r3
    1ca6:	d903      	bls.n	1cb0 <xTaskResumeAll+0x6c>
    1ca8:	683b      	ldr	r3, [r7, #0]
    1caa:	6d1b      	ldr	r3, [r3, #80]	; 0x50
    1cac:	4a25      	ldr	r2, [pc, #148]	; (1d44 <xTaskResumeAll+0x100>)
    1cae:	6013      	str	r3, [r2, #0]
    1cb0:	683b      	ldr	r3, [r7, #0]
    1cb2:	6d1a      	ldr	r2, [r3, #80]	; 0x50
    1cb4:	4613      	mov	r3, r2
    1cb6:	009b      	lsls	r3, r3, #2
    1cb8:	4413      	add	r3, r2
    1cba:	009b      	lsls	r3, r3, #2
    1cbc:	4a22      	ldr	r2, [pc, #136]	; (1d48 <xTaskResumeAll+0x104>)
    1cbe:	441a      	add	r2, r3
    1cc0:	683b      	ldr	r3, [r7, #0]
    1cc2:	3328      	adds	r3, #40	; 0x28
    1cc4:	4619      	mov	r1, r3
    1cc6:	4610      	mov	r0, r2
    1cc8:	f006 fabc 	bl	8244 <vListInsertEnd>
    1ccc:	683b      	ldr	r3, [r7, #0]
    1cce:	6d1a      	ldr	r2, [r3, #80]	; 0x50
    1cd0:	4b1e      	ldr	r3, [pc, #120]	; (1d4c <xTaskResumeAll+0x108>)
    1cd2:	681b      	ldr	r3, [r3, #0]
    1cd4:	6d1b      	ldr	r3, [r3, #80]	; 0x50
    1cd6:	429a      	cmp	r2, r3
    1cd8:	d302      	bcc.n	1ce0 <xTaskResumeAll+0x9c>
    1cda:	4b1d      	ldr	r3, [pc, #116]	; (1d50 <xTaskResumeAll+0x10c>)
    1cdc:	2201      	movs	r2, #1
    1cde:	601a      	str	r2, [r3, #0]
    1ce0:	4b17      	ldr	r3, [pc, #92]	; (1d40 <xTaskResumeAll+0xfc>)
    1ce2:	681b      	ldr	r3, [r3, #0]
    1ce4:	2b00      	cmp	r3, #0
    1ce6:	d1cb      	bne.n	1c80 <xTaskResumeAll+0x3c>
    1ce8:	4b1a      	ldr	r3, [pc, #104]	; (1d54 <xTaskResumeAll+0x110>)
    1cea:	681b      	ldr	r3, [r3, #0]
    1cec:	2b00      	cmp	r3, #0
    1cee:	d011      	beq.n	1d14 <xTaskResumeAll+0xd0>
    1cf0:	e00c      	b.n	1d0c <xTaskResumeAll+0xc8>
    1cf2:	f000 fc65 	bl	25c0 <xTaskIncrementTick>
    1cf6:	4603      	mov	r3, r0
    1cf8:	2b00      	cmp	r3, #0
    1cfa:	d002      	beq.n	1d02 <xTaskResumeAll+0xbe>
    1cfc:	4b14      	ldr	r3, [pc, #80]	; (1d50 <xTaskResumeAll+0x10c>)
    1cfe:	2201      	movs	r2, #1
    1d00:	601a      	str	r2, [r3, #0]
    1d02:	4b14      	ldr	r3, [pc, #80]	; (1d54 <xTaskResumeAll+0x110>)
    1d04:	681b      	ldr	r3, [r3, #0]
    1d06:	3b01      	subs	r3, #1
    1d08:	4a12      	ldr	r2, [pc, #72]	; (1d54 <xTaskResumeAll+0x110>)
    1d0a:	6013      	str	r3, [r2, #0]
    1d0c:	4b11      	ldr	r3, [pc, #68]	; (1d54 <xTaskResumeAll+0x110>)
    1d0e:	681b      	ldr	r3, [r3, #0]
    1d10:	2b00      	cmp	r3, #0
    1d12:	d1ee      	bne.n	1cf2 <xTaskResumeAll+0xae>
    1d14:	4b0e      	ldr	r3, [pc, #56]	; (1d50 <xTaskResumeAll+0x10c>)
    1d16:	681b      	ldr	r3, [r3, #0]
    1d18:	2b01      	cmp	r3, #1
    1d1a:	d105      	bne.n	1d28 <xTaskResumeAll+0xe4>
    1d1c:	2301      	movs	r3, #1
    1d1e:	607b      	str	r3, [r7, #4]
    1d20:	4b0d      	ldr	r3, [pc, #52]	; (1d58 <xTaskResumeAll+0x114>)
    1d22:	f04f 5280 	mov.w	r2, #268435456	; 0x10000000
    1d26:	601a      	str	r2, [r3, #0]
    1d28:	f006 f864 	bl	7df4 <vPortExitCritical>
    1d2c:	687b      	ldr	r3, [r7, #4]
    1d2e:	4618      	mov	r0, r3
    1d30:	3708      	adds	r7, #8
    1d32:	46bd      	mov	sp, r7
    1d34:	bd80      	pop	{r7, pc}
    1d36:	bf00      	nop
    1d38:	1000014c 	.word	0x1000014c
    1d3c:	10000128 	.word	0x10000128
    1d40:	100000e8 	.word	0x100000e8
    1d44:	10000130 	.word	0x10000130
    1d48:	10000054 	.word	0x10000054
    1d4c:	10000050 	.word	0x10000050
    1d50:	1000013c 	.word	0x1000013c
    1d54:	10000138 	.word	0x10000138
    1d58:	e000ed04 	.word	0xe000ed04

00001d5c <xTaskGetTickCount>:
    1d5c:	b480      	push	{r7}
    1d5e:	b083      	sub	sp, #12
    1d60:	af00      	add	r7, sp, #0
    1d62:	4b04      	ldr	r3, [pc, #16]	; (1d74 <xTaskGetTickCount+0x18>)
    1d64:	681b      	ldr	r3, [r3, #0]
    1d66:	607b      	str	r3, [r7, #4]
    1d68:	687b      	ldr	r3, [r7, #4]
    1d6a:	4618      	mov	r0, r3
    1d6c:	370c      	adds	r7, #12
    1d6e:	46bd      	mov	sp, r7
    1d70:	bc80      	pop	{r7}
    1d72:	4770      	bx	lr
    1d74:	1000012c 	.word	0x1000012c

00001d78 <xTaskGetTickCountFromISR>:
    1d78:	b480      	push	{r7}
    1d7a:	b083      	sub	sp, #12
    1d7c:	af00      	add	r7, sp, #0
    1d7e:	2300      	movs	r3, #0
    1d80:	607b      	str	r3, [r7, #4]
    1d82:	4b04      	ldr	r3, [pc, #16]	; (1d94 <xTaskGetTickCountFromISR+0x1c>)
    1d84:	681b      	ldr	r3, [r3, #0]
    1d86:	603b      	str	r3, [r7, #0]
    1d88:	683b      	ldr	r3, [r7, #0]
    1d8a:	4618      	mov	r0, r3
    1d8c:	370c      	adds	r7, #12
    1d8e:	46bd      	mov	sp, r7
    1d90:	bc80      	pop	{r7}
    1d92:	4770      	bx	lr
    1d94:	1000012c 	.word	0x1000012c

00001d98 <uxTaskGetNumberOfTasks>:
    1d98:	b480      	push	{r7}
    1d9a:	af00      	add	r7, sp, #0
    1d9c:	4b02      	ldr	r3, [pc, #8]	; (1da8 <uxTaskGetNumberOfTasks+0x10>)
    1d9e:	681b      	ldr	r3, [r3, #0]
    1da0:	4618      	mov	r0, r3
    1da2:	46bd      	mov	sp, r7
    1da4:	bc80      	pop	{r7}
    1da6:	4770      	bx	lr
    1da8:	10000128 	.word	0x10000128

00001dac <uxTaskGetStackHighWaterMark>:
    1dac:	b580      	push	{r7, lr}
    1dae:	b086      	sub	sp, #24
    1db0:	af00      	add	r7, sp, #0
    1db2:	6078      	str	r0, [r7, #4]
    1db4:	687b      	ldr	r3, [r7, #4]
    1db6:	2b00      	cmp	r3, #0
    1db8:	d102      	bne.n	1dc0 <uxTaskGetStackHighWaterMark+0x14>
    1dba:	4b09      	ldr	r3, [pc, #36]	; (1de0 <uxTaskGetStackHighWaterMark+0x34>)
    1dbc:	681b      	ldr	r3, [r3, #0]
    1dbe:	e000      	b.n	1dc2 <uxTaskGetStackHighWaterMark+0x16>
    1dc0:	687b      	ldr	r3, [r7, #4]
    1dc2:	617b      	str	r3, [r7, #20]
    1dc4:	697b      	ldr	r3, [r7, #20]
    1dc6:	6d5b      	ldr	r3, [r3, #84]	; 0x54
    1dc8:	613b      	str	r3, [r7, #16]
    1dca:	6938      	ldr	r0, [r7, #16]
    1dcc:	f001 fb70 	bl	34b0 <prvTaskCheckFreeStackSpace>
    1dd0:	4603      	mov	r3, r0
    1dd2:	60fb      	str	r3, [r7, #12]
    1dd4:	68fb      	ldr	r3, [r7, #12]
    1dd6:	4618      	mov	r0, r3
    1dd8:	3718      	adds	r7, #24
    1dda:	46bd      	mov	sp, r7
    1ddc:	bd80      	pop	{r7, pc}
    1dde:	bf00      	nop
    1de0:	10000050 	.word	0x10000050

00001de4 <uxTaskGetSystemState>:
    1de4:	b580      	push	{r7, lr}
    1de6:	b086      	sub	sp, #24
    1de8:	af00      	add	r7, sp, #0
    1dea:	60f8      	str	r0, [r7, #12]
    1dec:	60b9      	str	r1, [r7, #8]
    1dee:	607a      	str	r2, [r7, #4]
    1df0:	2300      	movs	r3, #0
    1df2:	617b      	str	r3, [r7, #20]
    1df4:	2305      	movs	r3, #5
    1df6:	613b      	str	r3, [r7, #16]
    1df8:	f7ff ff16 	bl	1c28 <vTaskSuspendAll>
    1dfc:	4b31      	ldr	r3, [pc, #196]	; (1ec4 <uxTaskGetSystemState+0xe0>)
    1dfe:	681b      	ldr	r3, [r3, #0]
    1e00:	68ba      	ldr	r2, [r7, #8]
    1e02:	429a      	cmp	r2, r3
    1e04:	d356      	bcc.n	1eb4 <uxTaskGetSystemState+0xd0>
    1e06:	693b      	ldr	r3, [r7, #16]
    1e08:	3b01      	subs	r3, #1
    1e0a:	613b      	str	r3, [r7, #16]
    1e0c:	697b      	ldr	r3, [r7, #20]
    1e0e:	015b      	lsls	r3, r3, #5
    1e10:	68fa      	ldr	r2, [r7, #12]
    1e12:	18d0      	adds	r0, r2, r3
    1e14:	693a      	ldr	r2, [r7, #16]
    1e16:	4613      	mov	r3, r2
    1e18:	009b      	lsls	r3, r3, #2
    1e1a:	4413      	add	r3, r2
    1e1c:	009b      	lsls	r3, r3, #2
    1e1e:	4a2a      	ldr	r2, [pc, #168]	; (1ec8 <uxTaskGetSystemState+0xe4>)
    1e20:	4413      	add	r3, r2
    1e22:	2201      	movs	r2, #1
    1e24:	4619      	mov	r1, r3
    1e26:	f001 fab7 	bl	3398 <prvListTaskWithinSingleList>
    1e2a:	4602      	mov	r2, r0
    1e2c:	697b      	ldr	r3, [r7, #20]
    1e2e:	4413      	add	r3, r2
    1e30:	617b      	str	r3, [r7, #20]
    1e32:	693b      	ldr	r3, [r7, #16]
    1e34:	2b00      	cmp	r3, #0
    1e36:	d1e6      	bne.n	1e06 <uxTaskGetSystemState+0x22>
    1e38:	697b      	ldr	r3, [r7, #20]
    1e3a:	015b      	lsls	r3, r3, #5
    1e3c:	68fa      	ldr	r2, [r7, #12]
    1e3e:	18d0      	adds	r0, r2, r3
    1e40:	4b22      	ldr	r3, [pc, #136]	; (1ecc <uxTaskGetSystemState+0xe8>)
    1e42:	681b      	ldr	r3, [r3, #0]
    1e44:	2202      	movs	r2, #2
    1e46:	4619      	mov	r1, r3
    1e48:	f001 faa6 	bl	3398 <prvListTaskWithinSingleList>
    1e4c:	4602      	mov	r2, r0
    1e4e:	697b      	ldr	r3, [r7, #20]
    1e50:	4413      	add	r3, r2
    1e52:	617b      	str	r3, [r7, #20]
    1e54:	697b      	ldr	r3, [r7, #20]
    1e56:	015b      	lsls	r3, r3, #5
    1e58:	68fa      	ldr	r2, [r7, #12]
    1e5a:	18d0      	adds	r0, r2, r3
    1e5c:	4b1c      	ldr	r3, [pc, #112]	; (1ed0 <uxTaskGetSystemState+0xec>)
    1e5e:	681b      	ldr	r3, [r3, #0]
    1e60:	2202      	movs	r2, #2
    1e62:	4619      	mov	r1, r3
    1e64:	f001 fa98 	bl	3398 <prvListTaskWithinSingleList>
    1e68:	4602      	mov	r2, r0
    1e6a:	697b      	ldr	r3, [r7, #20]
    1e6c:	4413      	add	r3, r2
    1e6e:	617b      	str	r3, [r7, #20]
    1e70:	697b      	ldr	r3, [r7, #20]
    1e72:	015b      	lsls	r3, r3, #5
    1e74:	68fa      	ldr	r2, [r7, #12]
    1e76:	4413      	add	r3, r2
    1e78:	2204      	movs	r2, #4
    1e7a:	4916      	ldr	r1, [pc, #88]	; (1ed4 <uxTaskGetSystemState+0xf0>)
    1e7c:	4618      	mov	r0, r3
    1e7e:	f001 fa8b 	bl	3398 <prvListTaskWithinSingleList>
    1e82:	4602      	mov	r2, r0
    1e84:	697b      	ldr	r3, [r7, #20]
    1e86:	4413      	add	r3, r2
    1e88:	617b      	str	r3, [r7, #20]
    1e8a:	697b      	ldr	r3, [r7, #20]
    1e8c:	015b      	lsls	r3, r3, #5
    1e8e:	68fa      	ldr	r2, [r7, #12]
    1e90:	4413      	add	r3, r2
    1e92:	2203      	movs	r2, #3
    1e94:	4910      	ldr	r1, [pc, #64]	; (1ed8 <uxTaskGetSystemState+0xf4>)
    1e96:	4618      	mov	r0, r3
    1e98:	f001 fa7e 	bl	3398 <prvListTaskWithinSingleList>
    1e9c:	4602      	mov	r2, r0
    1e9e:	697b      	ldr	r3, [r7, #20]
    1ea0:	4413      	add	r3, r2
    1ea2:	617b      	str	r3, [r7, #20]
    1ea4:	687b      	ldr	r3, [r7, #4]
    1ea6:	2b00      	cmp	r3, #0
    1ea8:	d004      	beq.n	1eb4 <uxTaskGetSystemState+0xd0>
    1eaa:	f009 fc01 	bl	b6b0 <ulMainGetRunTimeCounterValue>
    1eae:	4602      	mov	r2, r0
    1eb0:	687b      	ldr	r3, [r7, #4]
    1eb2:	601a      	str	r2, [r3, #0]
    1eb4:	f7ff fec6 	bl	1c44 <xTaskResumeAll>
    1eb8:	697b      	ldr	r3, [r7, #20]
    1eba:	4618      	mov	r0, r3
    1ebc:	3718      	adds	r7, #24
    1ebe:	46bd      	mov	sp, r7
    1ec0:	bd80      	pop	{r7, pc}
    1ec2:	bf00      	nop
    1ec4:	10000128 	.word	0x10000128
    1ec8:	10000054 	.word	0x10000054
    1ecc:	100000e0 	.word	0x100000e0
    1ed0:	100000e4 	.word	0x100000e4
    1ed4:	100000fc 	.word	0x100000fc
    1ed8:	10000114 	.word	0x10000114

00001edc <vTaskList>:
    1edc:	b590      	push	{r4, r7, lr}
    1ede:	b089      	sub	sp, #36	; 0x24
    1ee0:	af02      	add	r7, sp, #8
    1ee2:	6078      	str	r0, [r7, #4]
    1ee4:	687b      	ldr	r3, [r7, #4]
    1ee6:	2200      	movs	r2, #0
    1ee8:	701a      	strb	r2, [r3, #0]
    1eea:	4b39      	ldr	r3, [pc, #228]	; (1fd0 <vTaskList+0xf4>)
    1eec:	681b      	ldr	r3, [r3, #0]
    1eee:	60fb      	str	r3, [r7, #12]
    1ef0:	4b37      	ldr	r3, [pc, #220]	; (1fd0 <vTaskList+0xf4>)
    1ef2:	681b      	ldr	r3, [r3, #0]
    1ef4:	015b      	lsls	r3, r3, #5
    1ef6:	4618      	mov	r0, r3
    1ef8:	f7fe f8e8 	bl	cc <pvPortMalloc>
    1efc:	6138      	str	r0, [r7, #16]
    1efe:	693b      	ldr	r3, [r7, #16]
    1f00:	2b00      	cmp	r3, #0
    1f02:	d060      	beq.n	1fc6 <vTaskList+0xea>
    1f04:	68fb      	ldr	r3, [r7, #12]
    1f06:	2200      	movs	r2, #0
    1f08:	4619      	mov	r1, r3
    1f0a:	6938      	ldr	r0, [r7, #16]
    1f0c:	f7ff ff6a 	bl	1de4 <uxTaskGetSystemState>
    1f10:	4603      	mov	r3, r0
    1f12:	60fb      	str	r3, [r7, #12]
    1f14:	2300      	movs	r3, #0
    1f16:	60bb      	str	r3, [r7, #8]
    1f18:	e04e      	b.n	1fb8 <vTaskList+0xdc>
    1f1a:	68bb      	ldr	r3, [r7, #8]
    1f1c:	015b      	lsls	r3, r3, #5
    1f1e:	693a      	ldr	r2, [r7, #16]
    1f20:	4413      	add	r3, r2
    1f22:	7b1b      	ldrb	r3, [r3, #12]
    1f24:	3b01      	subs	r3, #1
    1f26:	2b03      	cmp	r3, #3
    1f28:	d816      	bhi.n	1f58 <vTaskList+0x7c>
    1f2a:	a201      	add	r2, pc, #4	; (adr r2, 1f30 <vTaskList+0x54>)
    1f2c:	f852 f023 	ldr.w	pc, [r2, r3, lsl #2]
    1f30:	00001f41 	.word	0x00001f41
    1f34:	00001f47 	.word	0x00001f47
    1f38:	00001f4d 	.word	0x00001f4d
    1f3c:	00001f53 	.word	0x00001f53
    1f40:	2352      	movs	r3, #82	; 0x52
    1f42:	75fb      	strb	r3, [r7, #23]
    1f44:	e00b      	b.n	1f5e <vTaskList+0x82>
    1f46:	2342      	movs	r3, #66	; 0x42
    1f48:	75fb      	strb	r3, [r7, #23]
    1f4a:	e008      	b.n	1f5e <vTaskList+0x82>
    1f4c:	2353      	movs	r3, #83	; 0x53
    1f4e:	75fb      	strb	r3, [r7, #23]
    1f50:	e005      	b.n	1f5e <vTaskList+0x82>
    1f52:	2344      	movs	r3, #68	; 0x44
    1f54:	75fb      	strb	r3, [r7, #23]
    1f56:	e002      	b.n	1f5e <vTaskList+0x82>
    1f58:	2300      	movs	r3, #0
    1f5a:	75fb      	strb	r3, [r7, #23]
    1f5c:	bf00      	nop
    1f5e:	68bb      	ldr	r3, [r7, #8]
    1f60:	015b      	lsls	r3, r3, #5
    1f62:	693a      	ldr	r2, [r7, #16]
    1f64:	4413      	add	r3, r2
    1f66:	685b      	ldr	r3, [r3, #4]
    1f68:	4619      	mov	r1, r3
    1f6a:	6878      	ldr	r0, [r7, #4]
    1f6c:	f006 fa1c 	bl	83a8 <prvWriteNameToBuffer>
    1f70:	6078      	str	r0, [r7, #4]
    1f72:	7df9      	ldrb	r1, [r7, #23]
    1f74:	68bb      	ldr	r3, [r7, #8]
    1f76:	015b      	lsls	r3, r3, #5
    1f78:	693a      	ldr	r2, [r7, #16]
    1f7a:	4413      	add	r3, r2
    1f7c:	6918      	ldr	r0, [r3, #16]
    1f7e:	68bb      	ldr	r3, [r7, #8]
    1f80:	015b      	lsls	r3, r3, #5
    1f82:	693a      	ldr	r2, [r7, #16]
    1f84:	4413      	add	r3, r2
    1f86:	8b9b      	ldrh	r3, [r3, #28]
    1f88:	461c      	mov	r4, r3
    1f8a:	68bb      	ldr	r3, [r7, #8]
    1f8c:	015b      	lsls	r3, r3, #5
    1f8e:	693a      	ldr	r2, [r7, #16]
    1f90:	4413      	add	r3, r2
    1f92:	689b      	ldr	r3, [r3, #8]
    1f94:	9301      	str	r3, [sp, #4]
    1f96:	9400      	str	r4, [sp, #0]
    1f98:	4603      	mov	r3, r0
    1f9a:	460a      	mov	r2, r1
    1f9c:	490d      	ldr	r1, [pc, #52]	; (1fd4 <vTaskList+0xf8>)
    1f9e:	6878      	ldr	r0, [r7, #4]
    1fa0:	f009 fd94 	bl	bacc <sprintf>
    1fa4:	6878      	ldr	r0, [r7, #4]
    1fa6:	f00b ff6e 	bl	de86 <strlen>
    1faa:	4602      	mov	r2, r0
    1fac:	687b      	ldr	r3, [r7, #4]
    1fae:	4413      	add	r3, r2
    1fb0:	607b      	str	r3, [r7, #4]
    1fb2:	68bb      	ldr	r3, [r7, #8]
    1fb4:	3301      	adds	r3, #1
    1fb6:	60bb      	str	r3, [r7, #8]
    1fb8:	68ba      	ldr	r2, [r7, #8]
    1fba:	68fb      	ldr	r3, [r7, #12]
    1fbc:	429a      	cmp	r2, r3
    1fbe:	d3ac      	bcc.n	1f1a <vTaskList+0x3e>
    1fc0:	6938      	ldr	r0, [r7, #16]
    1fc2:	f7fe f915 	bl	1f0 <vPortFree>
    1fc6:	bf00      	nop
    1fc8:	371c      	adds	r7, #28
    1fca:	46bd      	mov	sp, r7
    1fcc:	bd90      	pop	{r4, r7, pc}
    1fce:	bf00      	nop
    1fd0:	10000128 	.word	0x10000128
    1fd4:	0000e618 	.word	0x0000e618

00001fd8 <vTaskGetRunTimeStats>:
    1fd8:	b580      	push	{r7, lr}
    1fda:	b088      	sub	sp, #32
    1fdc:	af00      	add	r7, sp, #0
    1fde:	6078      	str	r0, [r7, #4]
    1fe0:	687b      	ldr	r3, [r7, #4]
    1fe2:	2200      	movs	r2, #0
    1fe4:	701a      	strb	r2, [r3, #0]
    1fe6:	4b31      	ldr	r3, [pc, #196]	; (20ac <vTaskGetRunTimeStats+0xd4>)
    1fe8:	681b      	ldr	r3, [r3, #0]
    1fea:	617b      	str	r3, [r7, #20]
    1fec:	4b2f      	ldr	r3, [pc, #188]	; (20ac <vTaskGetRunTimeStats+0xd4>)
    1fee:	681b      	ldr	r3, [r3, #0]
    1ff0:	015b      	lsls	r3, r3, #5
    1ff2:	4618      	mov	r0, r3
    1ff4:	f7fe f86a 	bl	cc <pvPortMalloc>
    1ff8:	61f8      	str	r0, [r7, #28]
    1ffa:	69fb      	ldr	r3, [r7, #28]
    1ffc:	2b00      	cmp	r3, #0
    1ffe:	d050      	beq.n	20a2 <vTaskGetRunTimeStats+0xca>
    2000:	697b      	ldr	r3, [r7, #20]
    2002:	f107 020c 	add.w	r2, r7, #12
    2006:	4619      	mov	r1, r3
    2008:	69f8      	ldr	r0, [r7, #28]
    200a:	f7ff feeb 	bl	1de4 <uxTaskGetSystemState>
    200e:	4603      	mov	r3, r0
    2010:	617b      	str	r3, [r7, #20]
    2012:	68fb      	ldr	r3, [r7, #12]
    2014:	4a26      	ldr	r2, [pc, #152]	; (20b0 <vTaskGetRunTimeStats+0xd8>)
    2016:	fba2 2303 	umull	r2, r3, r2, r3
    201a:	095b      	lsrs	r3, r3, #5
    201c:	60fb      	str	r3, [r7, #12]
    201e:	68fb      	ldr	r3, [r7, #12]
    2020:	2b00      	cmp	r3, #0
    2022:	d03b      	beq.n	209c <vTaskGetRunTimeStats+0xc4>
    2024:	2300      	movs	r3, #0
    2026:	613b      	str	r3, [r7, #16]
    2028:	e034      	b.n	2094 <vTaskGetRunTimeStats+0xbc>
    202a:	693b      	ldr	r3, [r7, #16]
    202c:	015b      	lsls	r3, r3, #5
    202e:	69fa      	ldr	r2, [r7, #28]
    2030:	4413      	add	r3, r2
    2032:	699a      	ldr	r2, [r3, #24]
    2034:	68fb      	ldr	r3, [r7, #12]
    2036:	fbb2 f3f3 	udiv	r3, r2, r3
    203a:	61bb      	str	r3, [r7, #24]
    203c:	693b      	ldr	r3, [r7, #16]
    203e:	015b      	lsls	r3, r3, #5
    2040:	69fa      	ldr	r2, [r7, #28]
    2042:	4413      	add	r3, r2
    2044:	685b      	ldr	r3, [r3, #4]
    2046:	4619      	mov	r1, r3
    2048:	6878      	ldr	r0, [r7, #4]
    204a:	f006 f9ad 	bl	83a8 <prvWriteNameToBuffer>
    204e:	6078      	str	r0, [r7, #4]
    2050:	69bb      	ldr	r3, [r7, #24]
    2052:	2b00      	cmp	r3, #0
    2054:	d00a      	beq.n	206c <vTaskGetRunTimeStats+0x94>
    2056:	693b      	ldr	r3, [r7, #16]
    2058:	015b      	lsls	r3, r3, #5
    205a:	69fa      	ldr	r2, [r7, #28]
    205c:	4413      	add	r3, r2
    205e:	699a      	ldr	r2, [r3, #24]
    2060:	69bb      	ldr	r3, [r7, #24]
    2062:	4914      	ldr	r1, [pc, #80]	; (20b4 <vTaskGetRunTimeStats+0xdc>)
    2064:	6878      	ldr	r0, [r7, #4]
    2066:	f009 fd31 	bl	bacc <sprintf>
    206a:	e009      	b.n	2080 <vTaskGetRunTimeStats+0xa8>
    206c:	693b      	ldr	r3, [r7, #16]
    206e:	015b      	lsls	r3, r3, #5
    2070:	69fa      	ldr	r2, [r7, #28]
    2072:	4413      	add	r3, r2
    2074:	699b      	ldr	r3, [r3, #24]
    2076:	461a      	mov	r2, r3
    2078:	490f      	ldr	r1, [pc, #60]	; (20b8 <vTaskGetRunTimeStats+0xe0>)
    207a:	6878      	ldr	r0, [r7, #4]
    207c:	f009 fd26 	bl	bacc <sprintf>
    2080:	6878      	ldr	r0, [r7, #4]
    2082:	f00b ff00 	bl	de86 <strlen>
    2086:	4602      	mov	r2, r0
    2088:	687b      	ldr	r3, [r7, #4]
    208a:	4413      	add	r3, r2
    208c:	607b      	str	r3, [r7, #4]
    208e:	693b      	ldr	r3, [r7, #16]
    2090:	3301      	adds	r3, #1
    2092:	613b      	str	r3, [r7, #16]
    2094:	693a      	ldr	r2, [r7, #16]
    2096:	697b      	ldr	r3, [r7, #20]
    2098:	429a      	cmp	r2, r3
    209a:	d3c6      	bcc.n	202a <vTaskGetRunTimeStats+0x52>
    209c:	69f8      	ldr	r0, [r7, #28]
    209e:	f7fe f8a7 	bl	1f0 <vPortFree>
    20a2:	bf00      	nop
    20a4:	3720      	adds	r7, #32
    20a6:	46bd      	mov	sp, r7
    20a8:	bd80      	pop	{r7, pc}
    20aa:	bf00      	nop
    20ac:	10000128 	.word	0x10000128
    20b0:	51eb851f 	.word	0x51eb851f
    20b4:	0000e628 	.word	0x0000e628
    20b8:	0000e634 	.word	0x0000e634

000020bc <xTaskGenericNotify>:
    20bc:	b580      	push	{r7, lr}
    20be:	b088      	sub	sp, #32
    20c0:	af00      	add	r7, sp, #0
    20c2:	60f8      	str	r0, [r7, #12]
    20c4:	60b9      	str	r1, [r7, #8]
    20c6:	603b      	str	r3, [r7, #0]
    20c8:	4613      	mov	r3, r2
    20ca:	71fb      	strb	r3, [r7, #7]
    20cc:	2301      	movs	r3, #1
    20ce:	61fb      	str	r3, [r7, #28]
    20d0:	68fb      	ldr	r3, [r7, #12]
    20d2:	2b00      	cmp	r3, #0
    20d4:	d104      	bne.n	20e0 <xTaskGenericNotify+0x24>
    20d6:	f04f 0028 	mov.w	r0, #40	; 0x28
    20da:	f380 8811 	msr	BASEPRI, r0
    20de:	e7fe      	b.n	20de <xTaskGenericNotify+0x22>
    20e0:	68fb      	ldr	r3, [r7, #12]
    20e2:	61bb      	str	r3, [r7, #24]
    20e4:	f005 fe68 	bl	7db8 <vPortEnterCritical>
    20e8:	683b      	ldr	r3, [r7, #0]
    20ea:	2b00      	cmp	r3, #0
    20ec:	d003      	beq.n	20f6 <xTaskGenericNotify+0x3a>
    20ee:	69bb      	ldr	r3, [r7, #24]
    20f0:	6f9a      	ldr	r2, [r3, #120]	; 0x78
    20f2:	683b      	ldr	r3, [r7, #0]
    20f4:	601a      	str	r2, [r3, #0]
    20f6:	69bb      	ldr	r3, [r7, #24]
    20f8:	f893 307c 	ldrb.w	r3, [r3, #124]	; 0x7c
    20fc:	75fb      	strb	r3, [r7, #23]
    20fe:	69bb      	ldr	r3, [r7, #24]
    2100:	2202      	movs	r2, #2
    2102:	f883 207c 	strb.w	r2, [r3, #124]	; 0x7c
    2106:	79fb      	ldrb	r3, [r7, #7]
    2108:	2b04      	cmp	r3, #4
    210a:	d828      	bhi.n	215e <xTaskGenericNotify+0xa2>
    210c:	a201      	add	r2, pc, #4	; (adr r2, 2114 <xTaskGenericNotify+0x58>)
    210e:	f852 f023 	ldr.w	pc, [r2, r3, lsl #2]
    2112:	bf00      	nop
    2114:	0000215f 	.word	0x0000215f
    2118:	00002129 	.word	0x00002129
    211c:	00002137 	.word	0x00002137
    2120:	00002143 	.word	0x00002143
    2124:	0000214b 	.word	0x0000214b
    2128:	69bb      	ldr	r3, [r7, #24]
    212a:	6f9a      	ldr	r2, [r3, #120]	; 0x78
    212c:	68bb      	ldr	r3, [r7, #8]
    212e:	431a      	orrs	r2, r3
    2130:	69bb      	ldr	r3, [r7, #24]
    2132:	679a      	str	r2, [r3, #120]	; 0x78
    2134:	e013      	b.n	215e <xTaskGenericNotify+0xa2>
    2136:	69bb      	ldr	r3, [r7, #24]
    2138:	6f9b      	ldr	r3, [r3, #120]	; 0x78
    213a:	1c5a      	adds	r2, r3, #1
    213c:	69bb      	ldr	r3, [r7, #24]
    213e:	679a      	str	r2, [r3, #120]	; 0x78
    2140:	e00d      	b.n	215e <xTaskGenericNotify+0xa2>
    2142:	69bb      	ldr	r3, [r7, #24]
    2144:	68ba      	ldr	r2, [r7, #8]
    2146:	679a      	str	r2, [r3, #120]	; 0x78
    2148:	e009      	b.n	215e <xTaskGenericNotify+0xa2>
    214a:	7dfb      	ldrb	r3, [r7, #23]
    214c:	2b02      	cmp	r3, #2
    214e:	d003      	beq.n	2158 <xTaskGenericNotify+0x9c>
    2150:	69bb      	ldr	r3, [r7, #24]
    2152:	68ba      	ldr	r2, [r7, #8]
    2154:	679a      	str	r2, [r3, #120]	; 0x78
    2156:	e001      	b.n	215c <xTaskGenericNotify+0xa0>
    2158:	2300      	movs	r3, #0
    215a:	61fb      	str	r3, [r7, #28]
    215c:	bf00      	nop
    215e:	7dfb      	ldrb	r3, [r7, #23]
    2160:	2b01      	cmp	r3, #1
    2162:	d130      	bne.n	21c6 <xTaskGenericNotify+0x10a>
    2164:	69bb      	ldr	r3, [r7, #24]
    2166:	3328      	adds	r3, #40	; 0x28
    2168:	4618      	mov	r0, r3
    216a:	f006 f8c7 	bl	82fc <uxListRemove>
    216e:	69bb      	ldr	r3, [r7, #24]
    2170:	6d1a      	ldr	r2, [r3, #80]	; 0x50
    2172:	4b18      	ldr	r3, [pc, #96]	; (21d4 <xTaskGenericNotify+0x118>)
    2174:	681b      	ldr	r3, [r3, #0]
    2176:	429a      	cmp	r2, r3
    2178:	d903      	bls.n	2182 <xTaskGenericNotify+0xc6>
    217a:	69bb      	ldr	r3, [r7, #24]
    217c:	6d1b      	ldr	r3, [r3, #80]	; 0x50
    217e:	4a15      	ldr	r2, [pc, #84]	; (21d4 <xTaskGenericNotify+0x118>)
    2180:	6013      	str	r3, [r2, #0]
    2182:	69bb      	ldr	r3, [r7, #24]
    2184:	6d1a      	ldr	r2, [r3, #80]	; 0x50
    2186:	4613      	mov	r3, r2
    2188:	009b      	lsls	r3, r3, #2
    218a:	4413      	add	r3, r2
    218c:	009b      	lsls	r3, r3, #2
    218e:	4a12      	ldr	r2, [pc, #72]	; (21d8 <xTaskGenericNotify+0x11c>)
    2190:	441a      	add	r2, r3
    2192:	69bb      	ldr	r3, [r7, #24]
    2194:	3328      	adds	r3, #40	; 0x28
    2196:	4619      	mov	r1, r3
    2198:	4610      	mov	r0, r2
    219a:	f006 f853 	bl	8244 <vListInsertEnd>
    219e:	69bb      	ldr	r3, [r7, #24]
    21a0:	6cdb      	ldr	r3, [r3, #76]	; 0x4c
    21a2:	2b00      	cmp	r3, #0
    21a4:	d004      	beq.n	21b0 <xTaskGenericNotify+0xf4>
    21a6:	f04f 0028 	mov.w	r0, #40	; 0x28
    21aa:	f380 8811 	msr	BASEPRI, r0
    21ae:	e7fe      	b.n	21ae <xTaskGenericNotify+0xf2>
    21b0:	69bb      	ldr	r3, [r7, #24]
    21b2:	6d1a      	ldr	r2, [r3, #80]	; 0x50
    21b4:	4b09      	ldr	r3, [pc, #36]	; (21dc <xTaskGenericNotify+0x120>)
    21b6:	681b      	ldr	r3, [r3, #0]
    21b8:	6d1b      	ldr	r3, [r3, #80]	; 0x50
    21ba:	429a      	cmp	r2, r3
    21bc:	d903      	bls.n	21c6 <xTaskGenericNotify+0x10a>
    21be:	4b08      	ldr	r3, [pc, #32]	; (21e0 <xTaskGenericNotify+0x124>)
    21c0:	f04f 5280 	mov.w	r2, #268435456	; 0x10000000
    21c4:	601a      	str	r2, [r3, #0]
    21c6:	f005 fe15 	bl	7df4 <vPortExitCritical>
    21ca:	69fb      	ldr	r3, [r7, #28]
    21cc:	4618      	mov	r0, r3
    21ce:	3720      	adds	r7, #32
    21d0:	46bd      	mov	sp, r7
    21d2:	bd80      	pop	{r7, pc}
    21d4:	10000130 	.word	0x10000130
    21d8:	10000054 	.word	0x10000054
    21dc:	10000050 	.word	0x10000050
    21e0:	e000ed04 	.word	0xe000ed04

000021e4 <xTaskGenericNotifyFromISR>:
    21e4:	b580      	push	{r7, lr}
    21e6:	b088      	sub	sp, #32
    21e8:	af00      	add	r7, sp, #0
    21ea:	60f8      	str	r0, [r7, #12]
    21ec:	60b9      	str	r1, [r7, #8]
    21ee:	603b      	str	r3, [r7, #0]
    21f0:	4613      	mov	r3, r2
    21f2:	71fb      	strb	r3, [r7, #7]
    21f4:	2301      	movs	r3, #1
    21f6:	61fb      	str	r3, [r7, #28]
    21f8:	68fb      	ldr	r3, [r7, #12]
    21fa:	2b00      	cmp	r3, #0
    21fc:	d104      	bne.n	2208 <xTaskGenericNotifyFromISR+0x24>
    21fe:	f04f 0028 	mov.w	r0, #40	; 0x28
    2202:	f380 8811 	msr	BASEPRI, r0
    2206:	e7fe      	b.n	2206 <xTaskGenericNotifyFromISR+0x22>
    2208:	68fb      	ldr	r3, [r7, #12]
    220a:	61bb      	str	r3, [r7, #24]
    220c:	2300      	movs	r3, #0
    220e:	617b      	str	r3, [r7, #20]
    2210:	f04f 0028 	mov.w	r0, #40	; 0x28
    2214:	f380 8811 	msr	BASEPRI, r0
    2218:	683b      	ldr	r3, [r7, #0]
    221a:	2b00      	cmp	r3, #0
    221c:	d003      	beq.n	2226 <xTaskGenericNotifyFromISR+0x42>
    221e:	69bb      	ldr	r3, [r7, #24]
    2220:	6f9a      	ldr	r2, [r3, #120]	; 0x78
    2222:	683b      	ldr	r3, [r7, #0]
    2224:	601a      	str	r2, [r3, #0]
    2226:	69bb      	ldr	r3, [r7, #24]
    2228:	f893 307c 	ldrb.w	r3, [r3, #124]	; 0x7c
    222c:	74fb      	strb	r3, [r7, #19]
    222e:	69bb      	ldr	r3, [r7, #24]
    2230:	2202      	movs	r2, #2
    2232:	f883 207c 	strb.w	r2, [r3, #124]	; 0x7c
    2236:	79fb      	ldrb	r3, [r7, #7]
    2238:	2b04      	cmp	r3, #4
    223a:	d828      	bhi.n	228e <xTaskGenericNotifyFromISR+0xaa>
    223c:	a201      	add	r2, pc, #4	; (adr r2, 2244 <xTaskGenericNotifyFromISR+0x60>)
    223e:	f852 f023 	ldr.w	pc, [r2, r3, lsl #2]
    2242:	bf00      	nop
    2244:	0000228f 	.word	0x0000228f
    2248:	00002259 	.word	0x00002259
    224c:	00002267 	.word	0x00002267
    2250:	00002273 	.word	0x00002273
    2254:	0000227b 	.word	0x0000227b
    2258:	69bb      	ldr	r3, [r7, #24]
    225a:	6f9a      	ldr	r2, [r3, #120]	; 0x78
    225c:	68bb      	ldr	r3, [r7, #8]
    225e:	431a      	orrs	r2, r3
    2260:	69bb      	ldr	r3, [r7, #24]
    2262:	679a      	str	r2, [r3, #120]	; 0x78
    2264:	e013      	b.n	228e <xTaskGenericNotifyFromISR+0xaa>
    2266:	69bb      	ldr	r3, [r7, #24]
    2268:	6f9b      	ldr	r3, [r3, #120]	; 0x78
    226a:	1c5a      	adds	r2, r3, #1
    226c:	69bb      	ldr	r3, [r7, #24]
    226e:	679a      	str	r2, [r3, #120]	; 0x78
    2270:	e00d      	b.n	228e <xTaskGenericNotifyFromISR+0xaa>
    2272:	69bb      	ldr	r3, [r7, #24]
    2274:	68ba      	ldr	r2, [r7, #8]
    2276:	679a      	str	r2, [r3, #120]	; 0x78
    2278:	e009      	b.n	228e <xTaskGenericNotifyFromISR+0xaa>
    227a:	7cfb      	ldrb	r3, [r7, #19]
    227c:	2b02      	cmp	r3, #2
    227e:	d003      	beq.n	2288 <xTaskGenericNotifyFromISR+0xa4>
    2280:	69bb      	ldr	r3, [r7, #24]
    2282:	68ba      	ldr	r2, [r7, #8]
    2284:	679a      	str	r2, [r3, #120]	; 0x78
    2286:	e001      	b.n	228c <xTaskGenericNotifyFromISR+0xa8>
    2288:	2300      	movs	r3, #0
    228a:	61fb      	str	r3, [r7, #28]
    228c:	bf00      	nop
    228e:	7cfb      	ldrb	r3, [r7, #19]
    2290:	2b01      	cmp	r3, #1
    2292:	d13d      	bne.n	2310 <xTaskGenericNotifyFromISR+0x12c>
    2294:	69bb      	ldr	r3, [r7, #24]
    2296:	6cdb      	ldr	r3, [r3, #76]	; 0x4c
    2298:	2b00      	cmp	r3, #0
    229a:	d004      	beq.n	22a6 <xTaskGenericNotifyFromISR+0xc2>
    229c:	f04f 0028 	mov.w	r0, #40	; 0x28
    22a0:	f380 8811 	msr	BASEPRI, r0
    22a4:	e7fe      	b.n	22a4 <xTaskGenericNotifyFromISR+0xc0>
    22a6:	4b1f      	ldr	r3, [pc, #124]	; (2324 <xTaskGenericNotifyFromISR+0x140>)
    22a8:	681b      	ldr	r3, [r3, #0]
    22aa:	2b00      	cmp	r3, #0
    22ac:	d11d      	bne.n	22ea <xTaskGenericNotifyFromISR+0x106>
    22ae:	69bb      	ldr	r3, [r7, #24]
    22b0:	3328      	adds	r3, #40	; 0x28
    22b2:	4618      	mov	r0, r3
    22b4:	f006 f822 	bl	82fc <uxListRemove>
    22b8:	69bb      	ldr	r3, [r7, #24]
    22ba:	6d1a      	ldr	r2, [r3, #80]	; 0x50
    22bc:	4b1a      	ldr	r3, [pc, #104]	; (2328 <xTaskGenericNotifyFromISR+0x144>)
    22be:	681b      	ldr	r3, [r3, #0]
    22c0:	429a      	cmp	r2, r3
    22c2:	d903      	bls.n	22cc <xTaskGenericNotifyFromISR+0xe8>
    22c4:	69bb      	ldr	r3, [r7, #24]
    22c6:	6d1b      	ldr	r3, [r3, #80]	; 0x50
    22c8:	4a17      	ldr	r2, [pc, #92]	; (2328 <xTaskGenericNotifyFromISR+0x144>)
    22ca:	6013      	str	r3, [r2, #0]
    22cc:	69bb      	ldr	r3, [r7, #24]
    22ce:	6d1a      	ldr	r2, [r3, #80]	; 0x50
    22d0:	4613      	mov	r3, r2
    22d2:	009b      	lsls	r3, r3, #2
    22d4:	4413      	add	r3, r2
    22d6:	009b      	lsls	r3, r3, #2
    22d8:	4a14      	ldr	r2, [pc, #80]	; (232c <xTaskGenericNotifyFromISR+0x148>)
    22da:	441a      	add	r2, r3
    22dc:	69bb      	ldr	r3, [r7, #24]
    22de:	3328      	adds	r3, #40	; 0x28
    22e0:	4619      	mov	r1, r3
    22e2:	4610      	mov	r0, r2
    22e4:	f005 ffae 	bl	8244 <vListInsertEnd>
    22e8:	e005      	b.n	22f6 <xTaskGenericNotifyFromISR+0x112>
    22ea:	69bb      	ldr	r3, [r7, #24]
    22ec:	333c      	adds	r3, #60	; 0x3c
    22ee:	4619      	mov	r1, r3
    22f0:	480f      	ldr	r0, [pc, #60]	; (2330 <xTaskGenericNotifyFromISR+0x14c>)
    22f2:	f005 ffa7 	bl	8244 <vListInsertEnd>
    22f6:	69bb      	ldr	r3, [r7, #24]
    22f8:	6d1a      	ldr	r2, [r3, #80]	; 0x50
    22fa:	4b0e      	ldr	r3, [pc, #56]	; (2334 <xTaskGenericNotifyFromISR+0x150>)
    22fc:	681b      	ldr	r3, [r3, #0]
    22fe:	6d1b      	ldr	r3, [r3, #80]	; 0x50
    2300:	429a      	cmp	r2, r3
    2302:	d905      	bls.n	2310 <xTaskGenericNotifyFromISR+0x12c>
    2304:	6abb      	ldr	r3, [r7, #40]	; 0x28
    2306:	2b00      	cmp	r3, #0
    2308:	d002      	beq.n	2310 <xTaskGenericNotifyFromISR+0x12c>
    230a:	6abb      	ldr	r3, [r7, #40]	; 0x28
    230c:	2201      	movs	r2, #1
    230e:	601a      	str	r2, [r3, #0]
    2310:	f04f 0000 	mov.w	r0, #0
    2314:	f380 8811 	msr	BASEPRI, r0
    2318:	69fb      	ldr	r3, [r7, #28]
    231a:	4618      	mov	r0, r3
    231c:	3720      	adds	r7, #32
    231e:	46bd      	mov	sp, r7
    2320:	bd80      	pop	{r7, pc}
    2322:	bf00      	nop
    2324:	1000014c 	.word	0x1000014c
    2328:	10000130 	.word	0x10000130
    232c:	10000054 	.word	0x10000054
    2330:	100000e8 	.word	0x100000e8
    2334:	10000050 	.word	0x10000050

00002338 <xTaskNotifyWait>:
    2338:	b580      	push	{r7, lr}
    233a:	b086      	sub	sp, #24
    233c:	af00      	add	r7, sp, #0
    233e:	60f8      	str	r0, [r7, #12]
    2340:	60b9      	str	r1, [r7, #8]
    2342:	607a      	str	r2, [r7, #4]
    2344:	603b      	str	r3, [r7, #0]
    2346:	f005 fd37 	bl	7db8 <vPortEnterCritical>
    234a:	4b2f      	ldr	r3, [pc, #188]	; (2408 <xTaskNotifyWait+0xd0>)
    234c:	681b      	ldr	r3, [r3, #0]
    234e:	f893 307c 	ldrb.w	r3, [r3, #124]	; 0x7c
    2352:	b2db      	uxtb	r3, r3
    2354:	2b02      	cmp	r3, #2
    2356:	d02c      	beq.n	23b2 <xTaskNotifyWait+0x7a>
    2358:	4b2b      	ldr	r3, [pc, #172]	; (2408 <xTaskNotifyWait+0xd0>)
    235a:	681b      	ldr	r3, [r3, #0]
    235c:	6f99      	ldr	r1, [r3, #120]	; 0x78
    235e:	68fa      	ldr	r2, [r7, #12]
    2360:	43d2      	mvns	r2, r2
    2362:	400a      	ands	r2, r1
    2364:	679a      	str	r2, [r3, #120]	; 0x78
    2366:	4b28      	ldr	r3, [pc, #160]	; (2408 <xTaskNotifyWait+0xd0>)
    2368:	681b      	ldr	r3, [r3, #0]
    236a:	2201      	movs	r2, #1
    236c:	f883 207c 	strb.w	r2, [r3, #124]	; 0x7c
    2370:	683b      	ldr	r3, [r7, #0]
    2372:	2b00      	cmp	r3, #0
    2374:	d01d      	beq.n	23b2 <xTaskNotifyWait+0x7a>
    2376:	4b24      	ldr	r3, [pc, #144]	; (2408 <xTaskNotifyWait+0xd0>)
    2378:	681b      	ldr	r3, [r3, #0]
    237a:	3328      	adds	r3, #40	; 0x28
    237c:	4618      	mov	r0, r3
    237e:	f005 ffbd 	bl	82fc <uxListRemove>
    2382:	683b      	ldr	r3, [r7, #0]
    2384:	f1b3 3fff 	cmp.w	r3, #4294967295
    2388:	d107      	bne.n	239a <xTaskNotifyWait+0x62>
    238a:	4b1f      	ldr	r3, [pc, #124]	; (2408 <xTaskNotifyWait+0xd0>)
    238c:	681b      	ldr	r3, [r3, #0]
    238e:	3328      	adds	r3, #40	; 0x28
    2390:	4619      	mov	r1, r3
    2392:	481e      	ldr	r0, [pc, #120]	; (240c <xTaskNotifyWait+0xd4>)
    2394:	f005 ff56 	bl	8244 <vListInsertEnd>
    2398:	e007      	b.n	23aa <xTaskNotifyWait+0x72>
    239a:	4b1d      	ldr	r3, [pc, #116]	; (2410 <xTaskNotifyWait+0xd8>)
    239c:	681a      	ldr	r2, [r3, #0]
    239e:	683b      	ldr	r3, [r7, #0]
    23a0:	4413      	add	r3, r2
    23a2:	613b      	str	r3, [r7, #16]
    23a4:	6938      	ldr	r0, [r7, #16]
    23a6:	f000 ff8b 	bl	32c0 <prvAddCurrentTaskToDelayedList>
    23aa:	4b1a      	ldr	r3, [pc, #104]	; (2414 <xTaskNotifyWait+0xdc>)
    23ac:	f04f 5280 	mov.w	r2, #268435456	; 0x10000000
    23b0:	601a      	str	r2, [r3, #0]
    23b2:	f005 fd1f 	bl	7df4 <vPortExitCritical>
    23b6:	f005 fcff 	bl	7db8 <vPortEnterCritical>
    23ba:	687b      	ldr	r3, [r7, #4]
    23bc:	2b00      	cmp	r3, #0
    23be:	d004      	beq.n	23ca <xTaskNotifyWait+0x92>
    23c0:	4b11      	ldr	r3, [pc, #68]	; (2408 <xTaskNotifyWait+0xd0>)
    23c2:	681b      	ldr	r3, [r3, #0]
    23c4:	6f9a      	ldr	r2, [r3, #120]	; 0x78
    23c6:	687b      	ldr	r3, [r7, #4]
    23c8:	601a      	str	r2, [r3, #0]
    23ca:	4b0f      	ldr	r3, [pc, #60]	; (2408 <xTaskNotifyWait+0xd0>)
    23cc:	681b      	ldr	r3, [r3, #0]
    23ce:	f893 307c 	ldrb.w	r3, [r3, #124]	; 0x7c
    23d2:	b2db      	uxtb	r3, r3
    23d4:	2b01      	cmp	r3, #1
    23d6:	d102      	bne.n	23de <xTaskNotifyWait+0xa6>
    23d8:	2300      	movs	r3, #0
    23da:	617b      	str	r3, [r7, #20]
    23dc:	e008      	b.n	23f0 <xTaskNotifyWait+0xb8>
    23de:	4b0a      	ldr	r3, [pc, #40]	; (2408 <xTaskNotifyWait+0xd0>)
    23e0:	681b      	ldr	r3, [r3, #0]
    23e2:	6f99      	ldr	r1, [r3, #120]	; 0x78
    23e4:	68ba      	ldr	r2, [r7, #8]
    23e6:	43d2      	mvns	r2, r2
    23e8:	400a      	ands	r2, r1
    23ea:	679a      	str	r2, [r3, #120]	; 0x78
    23ec:	2301      	movs	r3, #1
    23ee:	617b      	str	r3, [r7, #20]
    23f0:	4b05      	ldr	r3, [pc, #20]	; (2408 <xTaskNotifyWait+0xd0>)
    23f2:	681b      	ldr	r3, [r3, #0]
    23f4:	2200      	movs	r2, #0
    23f6:	f883 207c 	strb.w	r2, [r3, #124]	; 0x7c
    23fa:	f005 fcfb 	bl	7df4 <vPortExitCritical>
    23fe:	697b      	ldr	r3, [r7, #20]
    2400:	4618      	mov	r0, r3
    2402:	3718      	adds	r7, #24
    2404:	46bd      	mov	sp, r7
    2406:	bd80      	pop	{r7, pc}
    2408:	10000050 	.word	0x10000050
    240c:	10000114 	.word	0x10000114
    2410:	1000012c 	.word	0x1000012c
    2414:	e000ed04 	.word	0xe000ed04

00002418 <vTaskNotifyGiveFromISR>:
    2418:	b580      	push	{r7, lr}
    241a:	b086      	sub	sp, #24
    241c:	af00      	add	r7, sp, #0
    241e:	6078      	str	r0, [r7, #4]
    2420:	6039      	str	r1, [r7, #0]
    2422:	687b      	ldr	r3, [r7, #4]
    2424:	2b00      	cmp	r3, #0
    2426:	d104      	bne.n	2432 <vTaskNotifyGiveFromISR+0x1a>
    2428:	f04f 0028 	mov.w	r0, #40	; 0x28
    242c:	f380 8811 	msr	BASEPRI, r0
    2430:	e7fe      	b.n	2430 <vTaskNotifyGiveFromISR+0x18>
    2432:	687b      	ldr	r3, [r7, #4]
    2434:	617b      	str	r3, [r7, #20]
    2436:	2300      	movs	r3, #0
    2438:	613b      	str	r3, [r7, #16]
    243a:	f04f 0028 	mov.w	r0, #40	; 0x28
    243e:	f380 8811 	msr	BASEPRI, r0
    2442:	697b      	ldr	r3, [r7, #20]
    2444:	f893 307c 	ldrb.w	r3, [r3, #124]	; 0x7c
    2448:	73fb      	strb	r3, [r7, #15]
    244a:	697b      	ldr	r3, [r7, #20]
    244c:	2202      	movs	r2, #2
    244e:	f883 207c 	strb.w	r2, [r3, #124]	; 0x7c
    2452:	697b      	ldr	r3, [r7, #20]
    2454:	6f9b      	ldr	r3, [r3, #120]	; 0x78
    2456:	1c5a      	adds	r2, r3, #1
    2458:	697b      	ldr	r3, [r7, #20]
    245a:	679a      	str	r2, [r3, #120]	; 0x78
    245c:	7bfb      	ldrb	r3, [r7, #15]
    245e:	2b01      	cmp	r3, #1
    2460:	d13d      	bne.n	24de <vTaskNotifyGiveFromISR+0xc6>
    2462:	697b      	ldr	r3, [r7, #20]
    2464:	6cdb      	ldr	r3, [r3, #76]	; 0x4c
    2466:	2b00      	cmp	r3, #0
    2468:	d004      	beq.n	2474 <vTaskNotifyGiveFromISR+0x5c>
    246a:	f04f 0028 	mov.w	r0, #40	; 0x28
    246e:	f380 8811 	msr	BASEPRI, r0
    2472:	e7fe      	b.n	2472 <vTaskNotifyGiveFromISR+0x5a>
    2474:	4b1e      	ldr	r3, [pc, #120]	; (24f0 <vTaskNotifyGiveFromISR+0xd8>)
    2476:	681b      	ldr	r3, [r3, #0]
    2478:	2b00      	cmp	r3, #0
    247a:	d11d      	bne.n	24b8 <vTaskNotifyGiveFromISR+0xa0>
    247c:	697b      	ldr	r3, [r7, #20]
    247e:	3328      	adds	r3, #40	; 0x28
    2480:	4618      	mov	r0, r3
    2482:	f005 ff3b 	bl	82fc <uxListRemove>
    2486:	697b      	ldr	r3, [r7, #20]
    2488:	6d1a      	ldr	r2, [r3, #80]	; 0x50
    248a:	4b1a      	ldr	r3, [pc, #104]	; (24f4 <vTaskNotifyGiveFromISR+0xdc>)
    248c:	681b      	ldr	r3, [r3, #0]
    248e:	429a      	cmp	r2, r3
    2490:	d903      	bls.n	249a <vTaskNotifyGiveFromISR+0x82>
    2492:	697b      	ldr	r3, [r7, #20]
    2494:	6d1b      	ldr	r3, [r3, #80]	; 0x50
    2496:	4a17      	ldr	r2, [pc, #92]	; (24f4 <vTaskNotifyGiveFromISR+0xdc>)
    2498:	6013      	str	r3, [r2, #0]
    249a:	697b      	ldr	r3, [r7, #20]
    249c:	6d1a      	ldr	r2, [r3, #80]	; 0x50
    249e:	4613      	mov	r3, r2
    24a0:	009b      	lsls	r3, r3, #2
    24a2:	4413      	add	r3, r2
    24a4:	009b      	lsls	r3, r3, #2
    24a6:	4a14      	ldr	r2, [pc, #80]	; (24f8 <vTaskNotifyGiveFromISR+0xe0>)
    24a8:	441a      	add	r2, r3
    24aa:	697b      	ldr	r3, [r7, #20]
    24ac:	3328      	adds	r3, #40	; 0x28
    24ae:	4619      	mov	r1, r3
    24b0:	4610      	mov	r0, r2
    24b2:	f005 fec7 	bl	8244 <vListInsertEnd>
    24b6:	e005      	b.n	24c4 <vTaskNotifyGiveFromISR+0xac>
    24b8:	697b      	ldr	r3, [r7, #20]
    24ba:	333c      	adds	r3, #60	; 0x3c
    24bc:	4619      	mov	r1, r3
    24be:	480f      	ldr	r0, [pc, #60]	; (24fc <vTaskNotifyGiveFromISR+0xe4>)
    24c0:	f005 fec0 	bl	8244 <vListInsertEnd>
    24c4:	697b      	ldr	r3, [r7, #20]
    24c6:	6d1a      	ldr	r2, [r3, #80]	; 0x50
    24c8:	4b0d      	ldr	r3, [pc, #52]	; (2500 <vTaskNotifyGiveFromISR+0xe8>)
    24ca:	681b      	ldr	r3, [r3, #0]
    24cc:	6d1b      	ldr	r3, [r3, #80]	; 0x50
    24ce:	429a      	cmp	r2, r3
    24d0:	d905      	bls.n	24de <vTaskNotifyGiveFromISR+0xc6>
    24d2:	683b      	ldr	r3, [r7, #0]
    24d4:	2b00      	cmp	r3, #0
    24d6:	d002      	beq.n	24de <vTaskNotifyGiveFromISR+0xc6>
    24d8:	683b      	ldr	r3, [r7, #0]
    24da:	2201      	movs	r2, #1
    24dc:	601a      	str	r2, [r3, #0]
    24de:	f04f 0000 	mov.w	r0, #0
    24e2:	f380 8811 	msr	BASEPRI, r0
    24e6:	bf00      	nop
    24e8:	3718      	adds	r7, #24
    24ea:	46bd      	mov	sp, r7
    24ec:	bd80      	pop	{r7, pc}
    24ee:	bf00      	nop
    24f0:	1000014c 	.word	0x1000014c
    24f4:	10000130 	.word	0x10000130
    24f8:	10000054 	.word	0x10000054
    24fc:	100000e8 	.word	0x100000e8
    2500:	10000050 	.word	0x10000050

00002504 <ulTaskNotifyTake>:
    2504:	b580      	push	{r7, lr}
    2506:	b084      	sub	sp, #16
    2508:	af00      	add	r7, sp, #0
    250a:	6078      	str	r0, [r7, #4]
    250c:	6039      	str	r1, [r7, #0]
    250e:	f005 fc53 	bl	7db8 <vPortEnterCritical>
    2512:	4b27      	ldr	r3, [pc, #156]	; (25b0 <ulTaskNotifyTake+0xac>)
    2514:	681b      	ldr	r3, [r3, #0]
    2516:	6f9b      	ldr	r3, [r3, #120]	; 0x78
    2518:	2b00      	cmp	r3, #0
    251a:	d125      	bne.n	2568 <ulTaskNotifyTake+0x64>
    251c:	4b24      	ldr	r3, [pc, #144]	; (25b0 <ulTaskNotifyTake+0xac>)
    251e:	681b      	ldr	r3, [r3, #0]
    2520:	2201      	movs	r2, #1
    2522:	f883 207c 	strb.w	r2, [r3, #124]	; 0x7c
    2526:	683b      	ldr	r3, [r7, #0]
    2528:	2b00      	cmp	r3, #0
    252a:	d01d      	beq.n	2568 <ulTaskNotifyTake+0x64>
    252c:	4b20      	ldr	r3, [pc, #128]	; (25b0 <ulTaskNotifyTake+0xac>)
    252e:	681b      	ldr	r3, [r3, #0]
    2530:	3328      	adds	r3, #40	; 0x28
    2532:	4618      	mov	r0, r3
    2534:	f005 fee2 	bl	82fc <uxListRemove>
    2538:	683b      	ldr	r3, [r7, #0]
    253a:	f1b3 3fff 	cmp.w	r3, #4294967295
    253e:	d107      	bne.n	2550 <ulTaskNotifyTake+0x4c>
    2540:	4b1b      	ldr	r3, [pc, #108]	; (25b0 <ulTaskNotifyTake+0xac>)
    2542:	681b      	ldr	r3, [r3, #0]
    2544:	3328      	adds	r3, #40	; 0x28
    2546:	4619      	mov	r1, r3
    2548:	481a      	ldr	r0, [pc, #104]	; (25b4 <ulTaskNotifyTake+0xb0>)
    254a:	f005 fe7b 	bl	8244 <vListInsertEnd>
    254e:	e007      	b.n	2560 <ulTaskNotifyTake+0x5c>
    2550:	4b19      	ldr	r3, [pc, #100]	; (25b8 <ulTaskNotifyTake+0xb4>)
    2552:	681a      	ldr	r2, [r3, #0]
    2554:	683b      	ldr	r3, [r7, #0]
    2556:	4413      	add	r3, r2
    2558:	60fb      	str	r3, [r7, #12]
    255a:	68f8      	ldr	r0, [r7, #12]
    255c:	f000 feb0 	bl	32c0 <prvAddCurrentTaskToDelayedList>
    2560:	4b16      	ldr	r3, [pc, #88]	; (25bc <ulTaskNotifyTake+0xb8>)
    2562:	f04f 5280 	mov.w	r2, #268435456	; 0x10000000
    2566:	601a      	str	r2, [r3, #0]
    2568:	f005 fc44 	bl	7df4 <vPortExitCritical>
    256c:	f005 fc24 	bl	7db8 <vPortEnterCritical>
    2570:	4b0f      	ldr	r3, [pc, #60]	; (25b0 <ulTaskNotifyTake+0xac>)
    2572:	681b      	ldr	r3, [r3, #0]
    2574:	6f9b      	ldr	r3, [r3, #120]	; 0x78
    2576:	60bb      	str	r3, [r7, #8]
    2578:	68bb      	ldr	r3, [r7, #8]
    257a:	2b00      	cmp	r3, #0
    257c:	d00c      	beq.n	2598 <ulTaskNotifyTake+0x94>
    257e:	687b      	ldr	r3, [r7, #4]
    2580:	2b00      	cmp	r3, #0
    2582:	d004      	beq.n	258e <ulTaskNotifyTake+0x8a>
    2584:	4b0a      	ldr	r3, [pc, #40]	; (25b0 <ulTaskNotifyTake+0xac>)
    2586:	681b      	ldr	r3, [r3, #0]
    2588:	2200      	movs	r2, #0
    258a:	679a      	str	r2, [r3, #120]	; 0x78
    258c:	e004      	b.n	2598 <ulTaskNotifyTake+0x94>
    258e:	4b08      	ldr	r3, [pc, #32]	; (25b0 <ulTaskNotifyTake+0xac>)
    2590:	681b      	ldr	r3, [r3, #0]
    2592:	6f9a      	ldr	r2, [r3, #120]	; 0x78
    2594:	3a01      	subs	r2, #1
    2596:	679a      	str	r2, [r3, #120]	; 0x78
    2598:	4b05      	ldr	r3, [pc, #20]	; (25b0 <ulTaskNotifyTake+0xac>)
    259a:	681b      	ldr	r3, [r3, #0]
    259c:	2200      	movs	r2, #0
    259e:	f883 207c 	strb.w	r2, [r3, #124]	; 0x7c
    25a2:	f005 fc27 	bl	7df4 <vPortExitCritical>
    25a6:	68bb      	ldr	r3, [r7, #8]
    25a8:	4618      	mov	r0, r3
    25aa:	3710      	adds	r7, #16
    25ac:	46bd      	mov	sp, r7
    25ae:	bd80      	pop	{r7, pc}
    25b0:	10000050 	.word	0x10000050
    25b4:	10000114 	.word	0x10000114
    25b8:	1000012c 	.word	0x1000012c
    25bc:	e000ed04 	.word	0xe000ed04

000025c0 <xTaskIncrementTick>:
    25c0:	b580      	push	{r7, lr}
    25c2:	b086      	sub	sp, #24
    25c4:	af00      	add	r7, sp, #0
    25c6:	2300      	movs	r3, #0
    25c8:	617b      	str	r3, [r7, #20]
    25ca:	4b4f      	ldr	r3, [pc, #316]	; (2708 <xTaskIncrementTick+0x148>)
    25cc:	681b      	ldr	r3, [r3, #0]
    25ce:	2b00      	cmp	r3, #0
    25d0:	f040 8089 	bne.w	26e6 <xTaskIncrementTick+0x126>
    25d4:	4b4d      	ldr	r3, [pc, #308]	; (270c <xTaskIncrementTick+0x14c>)
    25d6:	681b      	ldr	r3, [r3, #0]
    25d8:	3301      	adds	r3, #1
    25da:	4a4c      	ldr	r2, [pc, #304]	; (270c <xTaskIncrementTick+0x14c>)
    25dc:	6013      	str	r3, [r2, #0]
    25de:	4b4b      	ldr	r3, [pc, #300]	; (270c <xTaskIncrementTick+0x14c>)
    25e0:	681b      	ldr	r3, [r3, #0]
    25e2:	613b      	str	r3, [r7, #16]
    25e4:	693b      	ldr	r3, [r7, #16]
    25e6:	2b00      	cmp	r3, #0
    25e8:	d11a      	bne.n	2620 <xTaskIncrementTick+0x60>
    25ea:	4b49      	ldr	r3, [pc, #292]	; (2710 <xTaskIncrementTick+0x150>)
    25ec:	681b      	ldr	r3, [r3, #0]
    25ee:	681b      	ldr	r3, [r3, #0]
    25f0:	2b00      	cmp	r3, #0
    25f2:	d004      	beq.n	25fe <xTaskIncrementTick+0x3e>
    25f4:	f04f 0028 	mov.w	r0, #40	; 0x28
    25f8:	f380 8811 	msr	BASEPRI, r0
    25fc:	e7fe      	b.n	25fc <xTaskIncrementTick+0x3c>
    25fe:	4b44      	ldr	r3, [pc, #272]	; (2710 <xTaskIncrementTick+0x150>)
    2600:	681b      	ldr	r3, [r3, #0]
    2602:	60fb      	str	r3, [r7, #12]
    2604:	4b43      	ldr	r3, [pc, #268]	; (2714 <xTaskIncrementTick+0x154>)
    2606:	681b      	ldr	r3, [r3, #0]
    2608:	4a41      	ldr	r2, [pc, #260]	; (2710 <xTaskIncrementTick+0x150>)
    260a:	6013      	str	r3, [r2, #0]
    260c:	4a41      	ldr	r2, [pc, #260]	; (2714 <xTaskIncrementTick+0x154>)
    260e:	68fb      	ldr	r3, [r7, #12]
    2610:	6013      	str	r3, [r2, #0]
    2612:	4b41      	ldr	r3, [pc, #260]	; (2718 <xTaskIncrementTick+0x158>)
    2614:	681b      	ldr	r3, [r3, #0]
    2616:	3301      	adds	r3, #1
    2618:	4a3f      	ldr	r2, [pc, #252]	; (2718 <xTaskIncrementTick+0x158>)
    261a:	6013      	str	r3, [r2, #0]
    261c:	f005 fea0 	bl	8360 <prvResetNextTaskUnblockTime>
    2620:	4b3e      	ldr	r3, [pc, #248]	; (271c <xTaskIncrementTick+0x15c>)
    2622:	681b      	ldr	r3, [r3, #0]
    2624:	693a      	ldr	r2, [r7, #16]
    2626:	429a      	cmp	r2, r3
    2628:	d34e      	bcc.n	26c8 <xTaskIncrementTick+0x108>
    262a:	4b39      	ldr	r3, [pc, #228]	; (2710 <xTaskIncrementTick+0x150>)
    262c:	681b      	ldr	r3, [r3, #0]
    262e:	681b      	ldr	r3, [r3, #0]
    2630:	2b00      	cmp	r3, #0
    2632:	d101      	bne.n	2638 <xTaskIncrementTick+0x78>
    2634:	2301      	movs	r3, #1
    2636:	e000      	b.n	263a <xTaskIncrementTick+0x7a>
    2638:	2300      	movs	r3, #0
    263a:	2b00      	cmp	r3, #0
    263c:	d004      	beq.n	2648 <xTaskIncrementTick+0x88>
    263e:	4b37      	ldr	r3, [pc, #220]	; (271c <xTaskIncrementTick+0x15c>)
    2640:	f04f 32ff 	mov.w	r2, #4294967295
    2644:	601a      	str	r2, [r3, #0]
    2646:	e03f      	b.n	26c8 <xTaskIncrementTick+0x108>
    2648:	4b31      	ldr	r3, [pc, #196]	; (2710 <xTaskIncrementTick+0x150>)
    264a:	681b      	ldr	r3, [r3, #0]
    264c:	68db      	ldr	r3, [r3, #12]
    264e:	68db      	ldr	r3, [r3, #12]
    2650:	60bb      	str	r3, [r7, #8]
    2652:	68bb      	ldr	r3, [r7, #8]
    2654:	6a9b      	ldr	r3, [r3, #40]	; 0x28
    2656:	607b      	str	r3, [r7, #4]
    2658:	693a      	ldr	r2, [r7, #16]
    265a:	687b      	ldr	r3, [r7, #4]
    265c:	429a      	cmp	r2, r3
    265e:	d203      	bcs.n	2668 <xTaskIncrementTick+0xa8>
    2660:	4a2e      	ldr	r2, [pc, #184]	; (271c <xTaskIncrementTick+0x15c>)
    2662:	687b      	ldr	r3, [r7, #4]
    2664:	6013      	str	r3, [r2, #0]
    2666:	e02f      	b.n	26c8 <xTaskIncrementTick+0x108>
    2668:	68bb      	ldr	r3, [r7, #8]
    266a:	3328      	adds	r3, #40	; 0x28
    266c:	4618      	mov	r0, r3
    266e:	f005 fe45 	bl	82fc <uxListRemove>
    2672:	68bb      	ldr	r3, [r7, #8]
    2674:	6cdb      	ldr	r3, [r3, #76]	; 0x4c
    2676:	2b00      	cmp	r3, #0
    2678:	d004      	beq.n	2684 <xTaskIncrementTick+0xc4>
    267a:	68bb      	ldr	r3, [r7, #8]
    267c:	333c      	adds	r3, #60	; 0x3c
    267e:	4618      	mov	r0, r3
    2680:	f005 fe3c 	bl	82fc <uxListRemove>
    2684:	68bb      	ldr	r3, [r7, #8]
    2686:	6d1a      	ldr	r2, [r3, #80]	; 0x50
    2688:	4b25      	ldr	r3, [pc, #148]	; (2720 <xTaskIncrementTick+0x160>)
    268a:	681b      	ldr	r3, [r3, #0]
    268c:	429a      	cmp	r2, r3
    268e:	d903      	bls.n	2698 <xTaskIncrementTick+0xd8>
    2690:	68bb      	ldr	r3, [r7, #8]
    2692:	6d1b      	ldr	r3, [r3, #80]	; 0x50
    2694:	4a22      	ldr	r2, [pc, #136]	; (2720 <xTaskIncrementTick+0x160>)
    2696:	6013      	str	r3, [r2, #0]
    2698:	68bb      	ldr	r3, [r7, #8]
    269a:	6d1a      	ldr	r2, [r3, #80]	; 0x50
    269c:	4613      	mov	r3, r2
    269e:	009b      	lsls	r3, r3, #2
    26a0:	4413      	add	r3, r2
    26a2:	009b      	lsls	r3, r3, #2
    26a4:	4a1f      	ldr	r2, [pc, #124]	; (2724 <xTaskIncrementTick+0x164>)
    26a6:	441a      	add	r2, r3
    26a8:	68bb      	ldr	r3, [r7, #8]
    26aa:	3328      	adds	r3, #40	; 0x28
    26ac:	4619      	mov	r1, r3
    26ae:	4610      	mov	r0, r2
    26b0:	f005 fdc8 	bl	8244 <vListInsertEnd>
    26b4:	68bb      	ldr	r3, [r7, #8]
    26b6:	6d1a      	ldr	r2, [r3, #80]	; 0x50
    26b8:	4b1b      	ldr	r3, [pc, #108]	; (2728 <xTaskIncrementTick+0x168>)
    26ba:	681b      	ldr	r3, [r3, #0]
    26bc:	6d1b      	ldr	r3, [r3, #80]	; 0x50
    26be:	429a      	cmp	r2, r3
    26c0:	d3b3      	bcc.n	262a <xTaskIncrementTick+0x6a>
    26c2:	2301      	movs	r3, #1
    26c4:	617b      	str	r3, [r7, #20]
    26c6:	e7b0      	b.n	262a <xTaskIncrementTick+0x6a>
    26c8:	4b17      	ldr	r3, [pc, #92]	; (2728 <xTaskIncrementTick+0x168>)
    26ca:	681b      	ldr	r3, [r3, #0]
    26cc:	6d1a      	ldr	r2, [r3, #80]	; 0x50
    26ce:	4915      	ldr	r1, [pc, #84]	; (2724 <xTaskIncrementTick+0x164>)
    26d0:	4613      	mov	r3, r2
    26d2:	009b      	lsls	r3, r3, #2
    26d4:	4413      	add	r3, r2
    26d6:	009b      	lsls	r3, r3, #2
    26d8:	440b      	add	r3, r1
    26da:	681b      	ldr	r3, [r3, #0]
    26dc:	2b01      	cmp	r3, #1
    26de:	d907      	bls.n	26f0 <xTaskIncrementTick+0x130>
    26e0:	2301      	movs	r3, #1
    26e2:	617b      	str	r3, [r7, #20]
    26e4:	e004      	b.n	26f0 <xTaskIncrementTick+0x130>
    26e6:	4b11      	ldr	r3, [pc, #68]	; (272c <xTaskIncrementTick+0x16c>)
    26e8:	681b      	ldr	r3, [r3, #0]
    26ea:	3301      	adds	r3, #1
    26ec:	4a0f      	ldr	r2, [pc, #60]	; (272c <xTaskIncrementTick+0x16c>)
    26ee:	6013      	str	r3, [r2, #0]
    26f0:	4b0f      	ldr	r3, [pc, #60]	; (2730 <xTaskIncrementTick+0x170>)
    26f2:	681b      	ldr	r3, [r3, #0]
    26f4:	2b00      	cmp	r3, #0
    26f6:	d001      	beq.n	26fc <xTaskIncrementTick+0x13c>
    26f8:	2301      	movs	r3, #1
    26fa:	617b      	str	r3, [r7, #20]
    26fc:	697b      	ldr	r3, [r7, #20]
    26fe:	4618      	mov	r0, r3
    2700:	3718      	adds	r7, #24
    2702:	46bd      	mov	sp, r7
    2704:	bd80      	pop	{r7, pc}
    2706:	bf00      	nop
    2708:	1000014c 	.word	0x1000014c
    270c:	1000012c 	.word	0x1000012c
    2710:	100000e0 	.word	0x100000e0
    2714:	100000e4 	.word	0x100000e4
    2718:	10000140 	.word	0x10000140
    271c:	10000148 	.word	0x10000148
    2720:	10000130 	.word	0x10000130
    2724:	10000054 	.word	0x10000054
    2728:	10000050 	.word	0x10000050
    272c:	10000138 	.word	0x10000138
    2730:	1000013c 	.word	0x1000013c

00002734 <vTaskPlaceOnEventList>:
    2734:	b580      	push	{r7, lr}
    2736:	b084      	sub	sp, #16
    2738:	af00      	add	r7, sp, #0
    273a:	6078      	str	r0, [r7, #4]
    273c:	6039      	str	r1, [r7, #0]
    273e:	687b      	ldr	r3, [r7, #4]
    2740:	2b00      	cmp	r3, #0
    2742:	d104      	bne.n	274e <vTaskPlaceOnEventList+0x1a>
    2744:	f04f 0028 	mov.w	r0, #40	; 0x28
    2748:	f380 8811 	msr	BASEPRI, r0
    274c:	e7fe      	b.n	274c <vTaskPlaceOnEventList+0x18>
    274e:	4b12      	ldr	r3, [pc, #72]	; (2798 <vTaskPlaceOnEventList+0x64>)
    2750:	681b      	ldr	r3, [r3, #0]
    2752:	333c      	adds	r3, #60	; 0x3c
    2754:	4619      	mov	r1, r3
    2756:	6878      	ldr	r0, [r7, #4]
    2758:	f005 fd98 	bl	828c <vListInsert>
    275c:	4b0e      	ldr	r3, [pc, #56]	; (2798 <vTaskPlaceOnEventList+0x64>)
    275e:	681b      	ldr	r3, [r3, #0]
    2760:	3328      	adds	r3, #40	; 0x28
    2762:	4618      	mov	r0, r3
    2764:	f005 fdca 	bl	82fc <uxListRemove>
    2768:	683b      	ldr	r3, [r7, #0]
    276a:	f1b3 3fff 	cmp.w	r3, #4294967295
    276e:	d107      	bne.n	2780 <vTaskPlaceOnEventList+0x4c>
    2770:	4b09      	ldr	r3, [pc, #36]	; (2798 <vTaskPlaceOnEventList+0x64>)
    2772:	681b      	ldr	r3, [r3, #0]
    2774:	3328      	adds	r3, #40	; 0x28
    2776:	4619      	mov	r1, r3
    2778:	4808      	ldr	r0, [pc, #32]	; (279c <vTaskPlaceOnEventList+0x68>)
    277a:	f005 fd63 	bl	8244 <vListInsertEnd>
    277e:	e007      	b.n	2790 <vTaskPlaceOnEventList+0x5c>
    2780:	4b07      	ldr	r3, [pc, #28]	; (27a0 <vTaskPlaceOnEventList+0x6c>)
    2782:	681a      	ldr	r2, [r3, #0]
    2784:	683b      	ldr	r3, [r7, #0]
    2786:	4413      	add	r3, r2
    2788:	60fb      	str	r3, [r7, #12]
    278a:	68f8      	ldr	r0, [r7, #12]
    278c:	f000 fd98 	bl	32c0 <prvAddCurrentTaskToDelayedList>
    2790:	bf00      	nop
    2792:	3710      	adds	r7, #16
    2794:	46bd      	mov	sp, r7
    2796:	bd80      	pop	{r7, pc}
    2798:	10000050 	.word	0x10000050
    279c:	10000114 	.word	0x10000114
    27a0:	1000012c 	.word	0x1000012c

000027a4 <vTaskPlaceOnUnorderedEventList>:
    27a4:	b580      	push	{r7, lr}
    27a6:	b086      	sub	sp, #24
    27a8:	af00      	add	r7, sp, #0
    27aa:	60f8      	str	r0, [r7, #12]
    27ac:	60b9      	str	r1, [r7, #8]
    27ae:	607a      	str	r2, [r7, #4]
    27b0:	68fb      	ldr	r3, [r7, #12]
    27b2:	2b00      	cmp	r3, #0
    27b4:	d104      	bne.n	27c0 <vTaskPlaceOnUnorderedEventList+0x1c>
    27b6:	f04f 0028 	mov.w	r0, #40	; 0x28
    27ba:	f380 8811 	msr	BASEPRI, r0
    27be:	e7fe      	b.n	27be <vTaskPlaceOnUnorderedEventList+0x1a>
    27c0:	4b19      	ldr	r3, [pc, #100]	; (2828 <vTaskPlaceOnUnorderedEventList+0x84>)
    27c2:	681b      	ldr	r3, [r3, #0]
    27c4:	2b00      	cmp	r3, #0
    27c6:	d104      	bne.n	27d2 <vTaskPlaceOnUnorderedEventList+0x2e>
    27c8:	f04f 0028 	mov.w	r0, #40	; 0x28
    27cc:	f380 8811 	msr	BASEPRI, r0
    27d0:	e7fe      	b.n	27d0 <vTaskPlaceOnUnorderedEventList+0x2c>
    27d2:	4b16      	ldr	r3, [pc, #88]	; (282c <vTaskPlaceOnUnorderedEventList+0x88>)
    27d4:	681b      	ldr	r3, [r3, #0]
    27d6:	68ba      	ldr	r2, [r7, #8]
    27d8:	f042 4200 	orr.w	r2, r2, #2147483648	; 0x80000000
    27dc:	63da      	str	r2, [r3, #60]	; 0x3c
    27de:	4b13      	ldr	r3, [pc, #76]	; (282c <vTaskPlaceOnUnorderedEventList+0x88>)
    27e0:	681b      	ldr	r3, [r3, #0]
    27e2:	333c      	adds	r3, #60	; 0x3c
    27e4:	4619      	mov	r1, r3
    27e6:	68f8      	ldr	r0, [r7, #12]
    27e8:	f005 fd2c 	bl	8244 <vListInsertEnd>
    27ec:	4b0f      	ldr	r3, [pc, #60]	; (282c <vTaskPlaceOnUnorderedEventList+0x88>)
    27ee:	681b      	ldr	r3, [r3, #0]
    27f0:	3328      	adds	r3, #40	; 0x28
    27f2:	4618      	mov	r0, r3
    27f4:	f005 fd82 	bl	82fc <uxListRemove>
    27f8:	687b      	ldr	r3, [r7, #4]
    27fa:	f1b3 3fff 	cmp.w	r3, #4294967295
    27fe:	d107      	bne.n	2810 <vTaskPlaceOnUnorderedEventList+0x6c>
    2800:	4b0a      	ldr	r3, [pc, #40]	; (282c <vTaskPlaceOnUnorderedEventList+0x88>)
    2802:	681b      	ldr	r3, [r3, #0]
    2804:	3328      	adds	r3, #40	; 0x28
    2806:	4619      	mov	r1, r3
    2808:	4809      	ldr	r0, [pc, #36]	; (2830 <vTaskPlaceOnUnorderedEventList+0x8c>)
    280a:	f005 fd1b 	bl	8244 <vListInsertEnd>
    280e:	e007      	b.n	2820 <vTaskPlaceOnUnorderedEventList+0x7c>
    2810:	4b08      	ldr	r3, [pc, #32]	; (2834 <vTaskPlaceOnUnorderedEventList+0x90>)
    2812:	681a      	ldr	r2, [r3, #0]
    2814:	687b      	ldr	r3, [r7, #4]
    2816:	4413      	add	r3, r2
    2818:	617b      	str	r3, [r7, #20]
    281a:	6978      	ldr	r0, [r7, #20]
    281c:	f000 fd50 	bl	32c0 <prvAddCurrentTaskToDelayedList>
    2820:	bf00      	nop
    2822:	3718      	adds	r7, #24
    2824:	46bd      	mov	sp, r7
    2826:	bd80      	pop	{r7, pc}
    2828:	1000014c 	.word	0x1000014c
    282c:	10000050 	.word	0x10000050
    2830:	10000114 	.word	0x10000114
    2834:	1000012c 	.word	0x1000012c

00002838 <vTaskPlaceOnEventListRestricted>:
    2838:	b580      	push	{r7, lr}
    283a:	b086      	sub	sp, #24
    283c:	af00      	add	r7, sp, #0
    283e:	60f8      	str	r0, [r7, #12]
    2840:	60b9      	str	r1, [r7, #8]
    2842:	607a      	str	r2, [r7, #4]
    2844:	68fb      	ldr	r3, [r7, #12]
    2846:	2b00      	cmp	r3, #0
    2848:	d104      	bne.n	2854 <vTaskPlaceOnEventListRestricted+0x1c>
    284a:	f04f 0028 	mov.w	r0, #40	; 0x28
    284e:	f380 8811 	msr	BASEPRI, r0
    2852:	e7fe      	b.n	2852 <vTaskPlaceOnEventListRestricted+0x1a>
    2854:	4b11      	ldr	r3, [pc, #68]	; (289c <vTaskPlaceOnEventListRestricted+0x64>)
    2856:	681b      	ldr	r3, [r3, #0]
    2858:	333c      	adds	r3, #60	; 0x3c
    285a:	4619      	mov	r1, r3
    285c:	68f8      	ldr	r0, [r7, #12]
    285e:	f005 fcf1 	bl	8244 <vListInsertEnd>
    2862:	4b0e      	ldr	r3, [pc, #56]	; (289c <vTaskPlaceOnEventListRestricted+0x64>)
    2864:	681b      	ldr	r3, [r3, #0]
    2866:	3328      	adds	r3, #40	; 0x28
    2868:	4618      	mov	r0, r3
    286a:	f005 fd47 	bl	82fc <uxListRemove>
    286e:	687b      	ldr	r3, [r7, #4]
    2870:	2b01      	cmp	r3, #1
    2872:	d107      	bne.n	2884 <vTaskPlaceOnEventListRestricted+0x4c>
    2874:	4b09      	ldr	r3, [pc, #36]	; (289c <vTaskPlaceOnEventListRestricted+0x64>)
    2876:	681b      	ldr	r3, [r3, #0]
    2878:	3328      	adds	r3, #40	; 0x28
    287a:	4619      	mov	r1, r3
    287c:	4808      	ldr	r0, [pc, #32]	; (28a0 <vTaskPlaceOnEventListRestricted+0x68>)
    287e:	f005 fce1 	bl	8244 <vListInsertEnd>
    2882:	e007      	b.n	2894 <vTaskPlaceOnEventListRestricted+0x5c>
    2884:	4b07      	ldr	r3, [pc, #28]	; (28a4 <vTaskPlaceOnEventListRestricted+0x6c>)
    2886:	681a      	ldr	r2, [r3, #0]
    2888:	68bb      	ldr	r3, [r7, #8]
    288a:	4413      	add	r3, r2
    288c:	617b      	str	r3, [r7, #20]
    288e:	6978      	ldr	r0, [r7, #20]
    2890:	f000 fd16 	bl	32c0 <prvAddCurrentTaskToDelayedList>
    2894:	bf00      	nop
    2896:	3718      	adds	r7, #24
    2898:	46bd      	mov	sp, r7
    289a:	bd80      	pop	{r7, pc}
    289c:	10000050 	.word	0x10000050
    28a0:	10000114 	.word	0x10000114
    28a4:	1000012c 	.word	0x1000012c

000028a8 <xTaskRemoveFromEventList>:
    28a8:	b580      	push	{r7, lr}
    28aa:	b084      	sub	sp, #16
    28ac:	af00      	add	r7, sp, #0
    28ae:	6078      	str	r0, [r7, #4]
    28b0:	687b      	ldr	r3, [r7, #4]
    28b2:	68db      	ldr	r3, [r3, #12]
    28b4:	68db      	ldr	r3, [r3, #12]
    28b6:	60bb      	str	r3, [r7, #8]
    28b8:	68bb      	ldr	r3, [r7, #8]
    28ba:	2b00      	cmp	r3, #0
    28bc:	d104      	bne.n	28c8 <xTaskRemoveFromEventList+0x20>
    28be:	f04f 0028 	mov.w	r0, #40	; 0x28
    28c2:	f380 8811 	msr	BASEPRI, r0
    28c6:	e7fe      	b.n	28c6 <xTaskRemoveFromEventList+0x1e>
    28c8:	68bb      	ldr	r3, [r7, #8]
    28ca:	333c      	adds	r3, #60	; 0x3c
    28cc:	4618      	mov	r0, r3
    28ce:	f005 fd15 	bl	82fc <uxListRemove>
    28d2:	4b1e      	ldr	r3, [pc, #120]	; (294c <xTaskRemoveFromEventList+0xa4>)
    28d4:	681b      	ldr	r3, [r3, #0]
    28d6:	2b00      	cmp	r3, #0
    28d8:	d11d      	bne.n	2916 <xTaskRemoveFromEventList+0x6e>
    28da:	68bb      	ldr	r3, [r7, #8]
    28dc:	3328      	adds	r3, #40	; 0x28
    28de:	4618      	mov	r0, r3
    28e0:	f005 fd0c 	bl	82fc <uxListRemove>
    28e4:	68bb      	ldr	r3, [r7, #8]
    28e6:	6d1a      	ldr	r2, [r3, #80]	; 0x50
    28e8:	4b19      	ldr	r3, [pc, #100]	; (2950 <xTaskRemoveFromEventList+0xa8>)
    28ea:	681b      	ldr	r3, [r3, #0]
    28ec:	429a      	cmp	r2, r3
    28ee:	d903      	bls.n	28f8 <xTaskRemoveFromEventList+0x50>
    28f0:	68bb      	ldr	r3, [r7, #8]
    28f2:	6d1b      	ldr	r3, [r3, #80]	; 0x50
    28f4:	4a16      	ldr	r2, [pc, #88]	; (2950 <xTaskRemoveFromEventList+0xa8>)
    28f6:	6013      	str	r3, [r2, #0]
    28f8:	68bb      	ldr	r3, [r7, #8]
    28fa:	6d1a      	ldr	r2, [r3, #80]	; 0x50
    28fc:	4613      	mov	r3, r2
    28fe:	009b      	lsls	r3, r3, #2
    2900:	4413      	add	r3, r2
    2902:	009b      	lsls	r3, r3, #2
    2904:	4a13      	ldr	r2, [pc, #76]	; (2954 <xTaskRemoveFromEventList+0xac>)
    2906:	441a      	add	r2, r3
    2908:	68bb      	ldr	r3, [r7, #8]
    290a:	3328      	adds	r3, #40	; 0x28
    290c:	4619      	mov	r1, r3
    290e:	4610      	mov	r0, r2
    2910:	f005 fc98 	bl	8244 <vListInsertEnd>
    2914:	e005      	b.n	2922 <xTaskRemoveFromEventList+0x7a>
    2916:	68bb      	ldr	r3, [r7, #8]
    2918:	333c      	adds	r3, #60	; 0x3c
    291a:	4619      	mov	r1, r3
    291c:	480e      	ldr	r0, [pc, #56]	; (2958 <xTaskRemoveFromEventList+0xb0>)
    291e:	f005 fc91 	bl	8244 <vListInsertEnd>
    2922:	68bb      	ldr	r3, [r7, #8]
    2924:	6d1a      	ldr	r2, [r3, #80]	; 0x50
    2926:	4b0d      	ldr	r3, [pc, #52]	; (295c <xTaskRemoveFromEventList+0xb4>)
    2928:	681b      	ldr	r3, [r3, #0]
    292a:	6d1b      	ldr	r3, [r3, #80]	; 0x50
    292c:	429a      	cmp	r2, r3
    292e:	d905      	bls.n	293c <xTaskRemoveFromEventList+0x94>
    2930:	2301      	movs	r3, #1
    2932:	60fb      	str	r3, [r7, #12]
    2934:	4b0a      	ldr	r3, [pc, #40]	; (2960 <xTaskRemoveFromEventList+0xb8>)
    2936:	2201      	movs	r2, #1
    2938:	601a      	str	r2, [r3, #0]
    293a:	e001      	b.n	2940 <xTaskRemoveFromEventList+0x98>
    293c:	2300      	movs	r3, #0
    293e:	60fb      	str	r3, [r7, #12]
    2940:	68fb      	ldr	r3, [r7, #12]
    2942:	4618      	mov	r0, r3
    2944:	3710      	adds	r7, #16
    2946:	46bd      	mov	sp, r7
    2948:	bd80      	pop	{r7, pc}
    294a:	bf00      	nop
    294c:	1000014c 	.word	0x1000014c
    2950:	10000130 	.word	0x10000130
    2954:	10000054 	.word	0x10000054
    2958:	100000e8 	.word	0x100000e8
    295c:	10000050 	.word	0x10000050
    2960:	1000013c 	.word	0x1000013c

00002964 <xTaskRemoveFromUnorderedEventList>:
    2964:	b580      	push	{r7, lr}
    2966:	b084      	sub	sp, #16
    2968:	af00      	add	r7, sp, #0
    296a:	6078      	str	r0, [r7, #4]
    296c:	6039      	str	r1, [r7, #0]
    296e:	4b26      	ldr	r3, [pc, #152]	; (2a08 <xTaskRemoveFromUnorderedEventList+0xa4>)
    2970:	681b      	ldr	r3, [r3, #0]
    2972:	2b00      	cmp	r3, #0
    2974:	d104      	bne.n	2980 <xTaskRemoveFromUnorderedEventList+0x1c>
    2976:	f04f 0028 	mov.w	r0, #40	; 0x28
    297a:	f380 8811 	msr	BASEPRI, r0
    297e:	e7fe      	b.n	297e <xTaskRemoveFromUnorderedEventList+0x1a>
    2980:	683b      	ldr	r3, [r7, #0]
    2982:	f043 4200 	orr.w	r2, r3, #2147483648	; 0x80000000
    2986:	687b      	ldr	r3, [r7, #4]
    2988:	601a      	str	r2, [r3, #0]
    298a:	687b      	ldr	r3, [r7, #4]
    298c:	68db      	ldr	r3, [r3, #12]
    298e:	60bb      	str	r3, [r7, #8]
    2990:	68bb      	ldr	r3, [r7, #8]
    2992:	2b00      	cmp	r3, #0
    2994:	d104      	bne.n	29a0 <xTaskRemoveFromUnorderedEventList+0x3c>
    2996:	f04f 0028 	mov.w	r0, #40	; 0x28
    299a:	f380 8811 	msr	BASEPRI, r0
    299e:	e7fe      	b.n	299e <xTaskRemoveFromUnorderedEventList+0x3a>
    29a0:	6878      	ldr	r0, [r7, #4]
    29a2:	f005 fcab 	bl	82fc <uxListRemove>
    29a6:	68bb      	ldr	r3, [r7, #8]
    29a8:	3328      	adds	r3, #40	; 0x28
    29aa:	4618      	mov	r0, r3
    29ac:	f005 fca6 	bl	82fc <uxListRemove>
    29b0:	68bb      	ldr	r3, [r7, #8]
    29b2:	6d1a      	ldr	r2, [r3, #80]	; 0x50
    29b4:	4b15      	ldr	r3, [pc, #84]	; (2a0c <xTaskRemoveFromUnorderedEventList+0xa8>)
    29b6:	681b      	ldr	r3, [r3, #0]
    29b8:	429a      	cmp	r2, r3
    29ba:	d903      	bls.n	29c4 <xTaskRemoveFromUnorderedEventList+0x60>
    29bc:	68bb      	ldr	r3, [r7, #8]
    29be:	6d1b      	ldr	r3, [r3, #80]	; 0x50
    29c0:	4a12      	ldr	r2, [pc, #72]	; (2a0c <xTaskRemoveFromUnorderedEventList+0xa8>)
    29c2:	6013      	str	r3, [r2, #0]
    29c4:	68bb      	ldr	r3, [r7, #8]
    29c6:	6d1a      	ldr	r2, [r3, #80]	; 0x50
    29c8:	4613      	mov	r3, r2
    29ca:	009b      	lsls	r3, r3, #2
    29cc:	4413      	add	r3, r2
    29ce:	009b      	lsls	r3, r3, #2
    29d0:	4a0f      	ldr	r2, [pc, #60]	; (2a10 <xTaskRemoveFromUnorderedEventList+0xac>)
    29d2:	441a      	add	r2, r3
    29d4:	68bb      	ldr	r3, [r7, #8]
    29d6:	3328      	adds	r3, #40	; 0x28
    29d8:	4619      	mov	r1, r3
    29da:	4610      	mov	r0, r2
    29dc:	f005 fc32 	bl	8244 <vListInsertEnd>
    29e0:	68bb      	ldr	r3, [r7, #8]
    29e2:	6d1a      	ldr	r2, [r3, #80]	; 0x50
    29e4:	4b0b      	ldr	r3, [pc, #44]	; (2a14 <xTaskRemoveFromUnorderedEventList+0xb0>)
    29e6:	681b      	ldr	r3, [r3, #0]
    29e8:	6d1b      	ldr	r3, [r3, #80]	; 0x50
    29ea:	429a      	cmp	r2, r3
    29ec:	d905      	bls.n	29fa <xTaskRemoveFromUnorderedEventList+0x96>
    29ee:	2301      	movs	r3, #1
    29f0:	60fb      	str	r3, [r7, #12]
    29f2:	4b09      	ldr	r3, [pc, #36]	; (2a18 <xTaskRemoveFromUnorderedEventList+0xb4>)
    29f4:	2201      	movs	r2, #1
    29f6:	601a      	str	r2, [r3, #0]
    29f8:	e001      	b.n	29fe <xTaskRemoveFromUnorderedEventList+0x9a>
    29fa:	2300      	movs	r3, #0
    29fc:	60fb      	str	r3, [r7, #12]
    29fe:	68fb      	ldr	r3, [r7, #12]
    2a00:	4618      	mov	r0, r3
    2a02:	3710      	adds	r7, #16
    2a04:	46bd      	mov	sp, r7
    2a06:	bd80      	pop	{r7, pc}
    2a08:	1000014c 	.word	0x1000014c
    2a0c:	10000130 	.word	0x10000130
    2a10:	10000054 	.word	0x10000054
    2a14:	10000050 	.word	0x10000050
    2a18:	1000013c 	.word	0x1000013c

00002a1c <vTaskSwitchContext>:
    2a1c:	b580      	push	{r7, lr}
    2a1e:	b084      	sub	sp, #16
    2a20:	af00      	add	r7, sp, #0
    2a22:	4b43      	ldr	r3, [pc, #268]	; (2b30 <vTaskSwitchContext+0x114>)
    2a24:	681b      	ldr	r3, [r3, #0]
    2a26:	2b00      	cmp	r3, #0
    2a28:	d003      	beq.n	2a32 <vTaskSwitchContext+0x16>
    2a2a:	4b42      	ldr	r3, [pc, #264]	; (2b34 <vTaskSwitchContext+0x118>)
    2a2c:	2201      	movs	r2, #1
    2a2e:	601a      	str	r2, [r3, #0]
    2a30:	e07a      	b.n	2b28 <vTaskSwitchContext+0x10c>
    2a32:	4b40      	ldr	r3, [pc, #256]	; (2b34 <vTaskSwitchContext+0x118>)
    2a34:	2200      	movs	r2, #0
    2a36:	601a      	str	r2, [r3, #0]
    2a38:	f008 fe3a 	bl	b6b0 <ulMainGetRunTimeCounterValue>
    2a3c:	4602      	mov	r2, r0
    2a3e:	4b3e      	ldr	r3, [pc, #248]	; (2b38 <vTaskSwitchContext+0x11c>)
    2a40:	601a      	str	r2, [r3, #0]
    2a42:	4b3d      	ldr	r3, [pc, #244]	; (2b38 <vTaskSwitchContext+0x11c>)
    2a44:	681a      	ldr	r2, [r3, #0]
    2a46:	4b3d      	ldr	r3, [pc, #244]	; (2b3c <vTaskSwitchContext+0x120>)
    2a48:	681b      	ldr	r3, [r3, #0]
    2a4a:	429a      	cmp	r2, r3
    2a4c:	d909      	bls.n	2a62 <vTaskSwitchContext+0x46>
    2a4e:	4b3c      	ldr	r3, [pc, #240]	; (2b40 <vTaskSwitchContext+0x124>)
    2a50:	681b      	ldr	r3, [r3, #0]
    2a52:	6f59      	ldr	r1, [r3, #116]	; 0x74
    2a54:	4a38      	ldr	r2, [pc, #224]	; (2b38 <vTaskSwitchContext+0x11c>)
    2a56:	6810      	ldr	r0, [r2, #0]
    2a58:	4a38      	ldr	r2, [pc, #224]	; (2b3c <vTaskSwitchContext+0x120>)
    2a5a:	6812      	ldr	r2, [r2, #0]
    2a5c:	1a82      	subs	r2, r0, r2
    2a5e:	440a      	add	r2, r1
    2a60:	675a      	str	r2, [r3, #116]	; 0x74
    2a62:	4b35      	ldr	r3, [pc, #212]	; (2b38 <vTaskSwitchContext+0x11c>)
    2a64:	681b      	ldr	r3, [r3, #0]
    2a66:	4a35      	ldr	r2, [pc, #212]	; (2b3c <vTaskSwitchContext+0x120>)
    2a68:	6013      	str	r3, [r2, #0]
    2a6a:	4b35      	ldr	r3, [pc, #212]	; (2b40 <vTaskSwitchContext+0x124>)
    2a6c:	681b      	ldr	r3, [r3, #0]
    2a6e:	6d5b      	ldr	r3, [r3, #84]	; 0x54
    2a70:	60fb      	str	r3, [r7, #12]
    2a72:	f04f 33a5 	mov.w	r3, #2779096485	; 0xa5a5a5a5
    2a76:	60bb      	str	r3, [r7, #8]
    2a78:	68fb      	ldr	r3, [r7, #12]
    2a7a:	681a      	ldr	r2, [r3, #0]
    2a7c:	68bb      	ldr	r3, [r7, #8]
    2a7e:	429a      	cmp	r2, r3
    2a80:	d111      	bne.n	2aa6 <vTaskSwitchContext+0x8a>
    2a82:	68fb      	ldr	r3, [r7, #12]
    2a84:	3304      	adds	r3, #4
    2a86:	681a      	ldr	r2, [r3, #0]
    2a88:	68bb      	ldr	r3, [r7, #8]
    2a8a:	429a      	cmp	r2, r3
    2a8c:	d10b      	bne.n	2aa6 <vTaskSwitchContext+0x8a>
    2a8e:	68fb      	ldr	r3, [r7, #12]
    2a90:	3308      	adds	r3, #8
    2a92:	681a      	ldr	r2, [r3, #0]
    2a94:	68bb      	ldr	r3, [r7, #8]
    2a96:	429a      	cmp	r2, r3
    2a98:	d105      	bne.n	2aa6 <vTaskSwitchContext+0x8a>
    2a9a:	68fb      	ldr	r3, [r7, #12]
    2a9c:	330c      	adds	r3, #12
    2a9e:	681a      	ldr	r2, [r3, #0]
    2aa0:	68bb      	ldr	r3, [r7, #8]
    2aa2:	429a      	cmp	r2, r3
    2aa4:	d017      	beq.n	2ad6 <vTaskSwitchContext+0xba>
    2aa6:	4b26      	ldr	r3, [pc, #152]	; (2b40 <vTaskSwitchContext+0x124>)
    2aa8:	681a      	ldr	r2, [r3, #0]
    2aaa:	4b25      	ldr	r3, [pc, #148]	; (2b40 <vTaskSwitchContext+0x124>)
    2aac:	681b      	ldr	r3, [r3, #0]
    2aae:	3358      	adds	r3, #88	; 0x58
    2ab0:	4619      	mov	r1, r3
    2ab2:	4610      	mov	r0, r2
    2ab4:	f008 fe3a 	bl	b72c <vApplicationStackOverflowHook>
    2ab8:	e00d      	b.n	2ad6 <vTaskSwitchContext+0xba>
    2aba:	4b22      	ldr	r3, [pc, #136]	; (2b44 <vTaskSwitchContext+0x128>)
    2abc:	681b      	ldr	r3, [r3, #0]
    2abe:	2b00      	cmp	r3, #0
    2ac0:	d104      	bne.n	2acc <vTaskSwitchContext+0xb0>
    2ac2:	f04f 0028 	mov.w	r0, #40	; 0x28
    2ac6:	f380 8811 	msr	BASEPRI, r0
    2aca:	e7fe      	b.n	2aca <vTaskSwitchContext+0xae>
    2acc:	4b1d      	ldr	r3, [pc, #116]	; (2b44 <vTaskSwitchContext+0x128>)
    2ace:	681b      	ldr	r3, [r3, #0]
    2ad0:	3b01      	subs	r3, #1
    2ad2:	4a1c      	ldr	r2, [pc, #112]	; (2b44 <vTaskSwitchContext+0x128>)
    2ad4:	6013      	str	r3, [r2, #0]
    2ad6:	4b1b      	ldr	r3, [pc, #108]	; (2b44 <vTaskSwitchContext+0x128>)
    2ad8:	681a      	ldr	r2, [r3, #0]
    2ada:	491b      	ldr	r1, [pc, #108]	; (2b48 <vTaskSwitchContext+0x12c>)
    2adc:	4613      	mov	r3, r2
    2ade:	009b      	lsls	r3, r3, #2
    2ae0:	4413      	add	r3, r2
    2ae2:	009b      	lsls	r3, r3, #2
    2ae4:	440b      	add	r3, r1
    2ae6:	681b      	ldr	r3, [r3, #0]
    2ae8:	2b00      	cmp	r3, #0
    2aea:	d0e6      	beq.n	2aba <vTaskSwitchContext+0x9e>
    2aec:	4b15      	ldr	r3, [pc, #84]	; (2b44 <vTaskSwitchContext+0x128>)
    2aee:	681a      	ldr	r2, [r3, #0]
    2af0:	4613      	mov	r3, r2
    2af2:	009b      	lsls	r3, r3, #2
    2af4:	4413      	add	r3, r2
    2af6:	009b      	lsls	r3, r3, #2
    2af8:	4a13      	ldr	r2, [pc, #76]	; (2b48 <vTaskSwitchContext+0x12c>)
    2afa:	4413      	add	r3, r2
    2afc:	607b      	str	r3, [r7, #4]
    2afe:	687b      	ldr	r3, [r7, #4]
    2b00:	685b      	ldr	r3, [r3, #4]
    2b02:	685a      	ldr	r2, [r3, #4]
    2b04:	687b      	ldr	r3, [r7, #4]
    2b06:	605a      	str	r2, [r3, #4]
    2b08:	687b      	ldr	r3, [r7, #4]
    2b0a:	685a      	ldr	r2, [r3, #4]
    2b0c:	687b      	ldr	r3, [r7, #4]
    2b0e:	3308      	adds	r3, #8
    2b10:	429a      	cmp	r2, r3
    2b12:	d104      	bne.n	2b1e <vTaskSwitchContext+0x102>
    2b14:	687b      	ldr	r3, [r7, #4]
    2b16:	685b      	ldr	r3, [r3, #4]
    2b18:	685a      	ldr	r2, [r3, #4]
    2b1a:	687b      	ldr	r3, [r7, #4]
    2b1c:	605a      	str	r2, [r3, #4]
    2b1e:	687b      	ldr	r3, [r7, #4]
    2b20:	685b      	ldr	r3, [r3, #4]
    2b22:	68db      	ldr	r3, [r3, #12]
    2b24:	4a06      	ldr	r2, [pc, #24]	; (2b40 <vTaskSwitchContext+0x124>)
    2b26:	6013      	str	r3, [r2, #0]
    2b28:	bf00      	nop
    2b2a:	3710      	adds	r7, #16
    2b2c:	46bd      	mov	sp, r7
    2b2e:	bd80      	pop	{r7, pc}
    2b30:	1000014c 	.word	0x1000014c
    2b34:	1000013c 	.word	0x1000013c
    2b38:	10000154 	.word	0x10000154
    2b3c:	10000150 	.word	0x10000150
    2b40:	10000050 	.word	0x10000050
    2b44:	10000130 	.word	0x10000130
    2b48:	10000054 	.word	0x10000054

00002b4c <uxTaskResetEventItemValue>:
    2b4c:	b480      	push	{r7}
    2b4e:	b083      	sub	sp, #12
    2b50:	af00      	add	r7, sp, #0
    2b52:	4b09      	ldr	r3, [pc, #36]	; (2b78 <uxTaskResetEventItemValue+0x2c>)
    2b54:	681b      	ldr	r3, [r3, #0]
    2b56:	6bdb      	ldr	r3, [r3, #60]	; 0x3c
    2b58:	607b      	str	r3, [r7, #4]
    2b5a:	4b07      	ldr	r3, [pc, #28]	; (2b78 <uxTaskResetEventItemValue+0x2c>)
    2b5c:	681b      	ldr	r3, [r3, #0]
    2b5e:	4a06      	ldr	r2, [pc, #24]	; (2b78 <uxTaskResetEventItemValue+0x2c>)
    2b60:	6812      	ldr	r2, [r2, #0]
    2b62:	6d12      	ldr	r2, [r2, #80]	; 0x50
    2b64:	f1c2 0205 	rsb	r2, r2, #5
    2b68:	63da      	str	r2, [r3, #60]	; 0x3c
    2b6a:	687b      	ldr	r3, [r7, #4]
    2b6c:	4618      	mov	r0, r3
    2b6e:	370c      	adds	r7, #12
    2b70:	46bd      	mov	sp, r7
    2b72:	bc80      	pop	{r7}
    2b74:	4770      	bx	lr
    2b76:	bf00      	nop
    2b78:	10000050 	.word	0x10000050

00002b7c <xTaskGetCurrentTaskHandle>:
    2b7c:	b480      	push	{r7}
    2b7e:	b083      	sub	sp, #12
    2b80:	af00      	add	r7, sp, #0
    2b82:	4b04      	ldr	r3, [pc, #16]	; (2b94 <xTaskGetCurrentTaskHandle+0x18>)
    2b84:	681b      	ldr	r3, [r3, #0]
    2b86:	607b      	str	r3, [r7, #4]
    2b88:	687b      	ldr	r3, [r7, #4]
    2b8a:	4618      	mov	r0, r3
    2b8c:	370c      	adds	r7, #12
    2b8e:	46bd      	mov	sp, r7
    2b90:	bc80      	pop	{r7}
    2b92:	4770      	bx	lr
    2b94:	10000050 	.word	0x10000050

00002b98 <vTaskSetTimeOutState>:
    2b98:	b480      	push	{r7}
    2b9a:	b083      	sub	sp, #12
    2b9c:	af00      	add	r7, sp, #0
    2b9e:	6078      	str	r0, [r7, #4]
    2ba0:	687b      	ldr	r3, [r7, #4]
    2ba2:	2b00      	cmp	r3, #0
    2ba4:	d104      	bne.n	2bb0 <vTaskSetTimeOutState+0x18>
    2ba6:	f04f 0028 	mov.w	r0, #40	; 0x28
    2baa:	f380 8811 	msr	BASEPRI, r0
    2bae:	e7fe      	b.n	2bae <vTaskSetTimeOutState+0x16>
    2bb0:	4b06      	ldr	r3, [pc, #24]	; (2bcc <vTaskSetTimeOutState+0x34>)
    2bb2:	681a      	ldr	r2, [r3, #0]
    2bb4:	687b      	ldr	r3, [r7, #4]
    2bb6:	601a      	str	r2, [r3, #0]
    2bb8:	4b05      	ldr	r3, [pc, #20]	; (2bd0 <vTaskSetTimeOutState+0x38>)
    2bba:	681a      	ldr	r2, [r3, #0]
    2bbc:	687b      	ldr	r3, [r7, #4]
    2bbe:	605a      	str	r2, [r3, #4]
    2bc0:	bf00      	nop
    2bc2:	370c      	adds	r7, #12
    2bc4:	46bd      	mov	sp, r7
    2bc6:	bc80      	pop	{r7}
    2bc8:	4770      	bx	lr
    2bca:	bf00      	nop
    2bcc:	10000140 	.word	0x10000140
    2bd0:	1000012c 	.word	0x1000012c

00002bd4 <xTaskCheckForTimeOut>:
    2bd4:	b580      	push	{r7, lr}
    2bd6:	b084      	sub	sp, #16
    2bd8:	af00      	add	r7, sp, #0
    2bda:	6078      	str	r0, [r7, #4]
    2bdc:	6039      	str	r1, [r7, #0]
    2bde:	687b      	ldr	r3, [r7, #4]
    2be0:	2b00      	cmp	r3, #0
    2be2:	d104      	bne.n	2bee <xTaskCheckForTimeOut+0x1a>
    2be4:	f04f 0028 	mov.w	r0, #40	; 0x28
    2be8:	f380 8811 	msr	BASEPRI, r0
    2bec:	e7fe      	b.n	2bec <xTaskCheckForTimeOut+0x18>
    2bee:	683b      	ldr	r3, [r7, #0]
    2bf0:	2b00      	cmp	r3, #0
    2bf2:	d104      	bne.n	2bfe <xTaskCheckForTimeOut+0x2a>
    2bf4:	f04f 0028 	mov.w	r0, #40	; 0x28
    2bf8:	f380 8811 	msr	BASEPRI, r0
    2bfc:	e7fe      	b.n	2bfc <xTaskCheckForTimeOut+0x28>
    2bfe:	f005 f8db 	bl	7db8 <vPortEnterCritical>
    2c02:	4b1c      	ldr	r3, [pc, #112]	; (2c74 <xTaskCheckForTimeOut+0xa0>)
    2c04:	681b      	ldr	r3, [r3, #0]
    2c06:	60bb      	str	r3, [r7, #8]
